5	16500	2100 Powell Street Ste 800 ,Emeryville
5	Private Equity Info	Austin, Texas
9	210361	1225 Laurel Street ,Columbia
15	01.COM, INC.	333 W. North Avenue ,Chicago
16	0-100 LLC	2875 Santa Rosa Ave ,Santa Rosa
18	02 NEAL MEDICAL INC	244 Cahaba Calley Parkway ,Pelham
19	02 PARTNERS LLC	9 Research Drive ,Amherst
20	03 TECHNOLOGY SOLUTIONS, LLC	545 8th Avenue - 22nd Floor ,New York
23	0IRECT PRO AUDIO LLC	4022 S 108th Street ,Omaha
27	1 AUTO PARTS, INC.	99 Wilson Road ,Middlebury
28	1 BETTER, LLC	124 Osseo Avenue North ,St. Cloud
29	1 FOOT 2 FOOT CENTRE FOR FOOT AND ANKLE CARE, PC	171 North Main Street ,Suffolk
30	1 GREEN STREET, INC.	7835 Leaf Pointe Ct ,Houston
32	1 NUMAN INC.	3520 Mesa Verde Road ,Colorado Springs
35	1 PARKPLACE INC	10875 Rancho Bernardo Dr Ste 10 ,San Diego
37	1 SOURCE CONSULTING, INC.	20440 Century Blvd. ,Germantown
38	1 SOURCE ELECTRICAL CONTRACTOR	622 Pinnacle Place ,Livermore
39	1 SOURCE MATERIAL HANDLING, INC	3300 Foothill Blvd 8312 ,La Crescenta
41	1 STOP CAR & TRUCK REPAIR, INC.	401 S. Us 41 Bypass ,Venice
43	1 TAX PRO, INC.	800 East Arrow Highway ,Covina
44	1 TO 1 MARKETING, LLC	9197 South Peoria Street ,Englewood
46	1 TRADE FWDING, INC	512 E. Dallas Road ,Grapevine
48	1&1 INTERNET, INC	701 Lee Road, Ste 300 ,Chesterbrook
50	10 DB GAIN, LLC	132 S Houston Rd ,Warner Robins
51	10 EAST COPIER, INC.	10 East 39th Street ,New York
52	10 FITNESS, INC.	Po Box 22917 ,Little Rock
54	10 OVER 12 CREATIVE, LLC	1100 East Louisiana Street ,Evansville
56	10,000 DEGREES	1650 Los Gamos Drive ,San Rafael
57	10,000 FRIENDS OF PENNSYLVANIA	240 North Third Street ,Harrisburg
59	10,000 WAGS CORPORATION	Po Box 1317 ,El Prado
60	100 BLACK MEN OF ATLANTA, INC.	241 Peachtree St NE Ste 300 ,Atlanta
61	100 CLUB OF ARIZONA	5033 N. 19th Ave. Suite 123 ,Phoenix
62	100 LLC	405 Genesee Street, Suite 100 ,Delafield
65	100 PLAZA CLINICAL LAB, INC.	100 Ucla Medical Plaza, Suite 245 ,Los Angeles
68	100% REAL ESTATE, INC.	1810 Lee Rd ,Orlando
70	1000 FRIENDS OF FLORIDA	308 North Monroe Street ,Tallahassee
71	1000 FRIENDS OF WISCONSIN, INC.	6405 Century Ave ,Middleton
72	1000 INC	1000 SW Broadway, Suite 930 ,Portland
74	101 COLLISION	31295 La Baya Drive ,Westlake Village
77	101 PIPE & CASING, INC.	30101 Agoura Court ,Agoura Hills
79	101 STRATEGY PARTNERS, LLC	101 Constitution Avenue NW ,Washington
80	101 TELCO SOLUTIONS	2646 Palma Drive Suite 305 ,Ventura
81	101 VERMONT AUTO GROUP, INC.	200 North Vermont Ave ,Los Angeles
83	1010 DATA INC	80 Broad Street ,New York
84	1010DATA SERVICES LLC	750 3rd Ave Fl 4 ,New York
86	1013 COMMUNICATIONS, LLC	601 South Arlington ,Reno
87	10-15 ASSOCIATES, INC.	168 Main Street ,Goshen
91	10-20 MEDIA, INC.	16005 Frederick Rd ,Woodbine
93	1020, INC.	165 Page Street ,San Francisco
94	1028 NORTH RUSH STREET CORPORATION	1050 North State Street ,Chicago
97	1031 ADVISORS LLC	270 Old Dutch Rd ,Bedminster
99	1031 INVESTMENT SERVICES, LLC	2 Orr Hatch Drive ,Cornwall
100	1031 PRIVATE EXCHANGE GROUP, INC.	3452 E. Foothill Boulevard ,Pasadena
103	1031X COM INC	2120 S Birch St Fl 3 ,Denver
104	104 CONTRACTORS, INC.	P O Box 46 ,Union Hill
106	104 WEST DENTAL, LLC	632 N Main ,Logan
108	1040 TAX FIRM, INC.	1835 S. Del Mar Ave., Suite 101 ,San Gabriel
115	106 GROUP L T D	370 Selby Ave Ste 206 ,Saint Paul
118	1080, INC.	8531 Fairhaven ,San Antonio
124	10TH DEGREE, LLC	1 Spectrum Pointe, Suite 330 ,Lake Forest
125	10TH MAGNITUDE, INC.	20 N. Wacker Drive ,Chicago
128	10TH STREET PRESCHOOL	1444 10th St ,Santa Monica
129	10X GROUP INC.	68 Wesson Terrace ,Northborough
133	110 CONSULTING, INC.	600 108th Ave NE Ste 502 ,Bellevue
134	1-10 INDUSTRY ASSOCIATES, LLC	C/O Jamestown Commercial Management ,Brooklyn
135	110 MANAGEMENT, INC.	11601 Wilshire Blvd. ,Los Angeles
136	1100 ARCHITECT, P.C.	475 Tenth Avenue ,New York
139	1105 MEDIA INC.	9201 Oakdale Avenue ,Chatsworth
141	111 EAST 56TH STREET, INC. THE LOMBARDY	111 East 56th Street ,New York
143	11-17 CORP	525 N 1100 E ,Zionsville
149	1157 DESIGNCONCEPTS, LLC	171 South Lester Avenue ,Sidney
151	116 MINISTRIES, INC.	718 Thompson Lane ,Nashville
153	1170 APARTMENT CORPORATION	3091 Edwin Ave Apt 1-C ,Fort Lee
154	1185 DESIGN	941 Emerson Street ,Palo Alto
155	1187 CREATIVE LLC	201 E. Main St. ,Carbondale
157	1199 SEIU FEDERAL CREDIT UNION	310 W 43rd St Fl 2 ,New York
159	1199SEIU UNITED HEALTHCARE WORKERS EAST	310 West 43rd Street, 5th Floor ,New York
162	11TH HOUR SEARCH LLC	6551 Loisdale Court Ste 270 ,Springfield
165	11TH ST VETERINARY HOSPITAL	1705 11th Street ,Huntsville
169	12 KEYS REHAB INC.	618 NE Jensen Beach Blvd ,Jensen Beach
170	12 OAKS MANAGEMENT SERVICES INC.	5310 Harvest Hill Road ,Dallas
171	12 SPOKES, INC	1790 S. 1100, E # 102 ,Salt Lake City
172	12&12, INC.	6333 E. Skelly Dr ,Tulsa
174	120 VENTURE CONSTRUCTION	11601 Wilshire Blvd. 5th Floor ,Brentwood
176	1207 CAPITAL GROUP, LLC	1033 Skokie Boulevard ,Northbrook
178	1-2-1 FINANCIAL CREDIT UNION	9700 Touchton Rd ,Jacksonville
180	1-2-1 MARKETING SERVICES GROUP, INC.	20195 South Diamond Lake Road ,Rogers
181	121 SILICON VALLEY, INC.	825 Oak Grove Ave., Suite 203A ,Menlo Park
182	121 STRATEGIES AND GOVERNMENT RELATIONS	919 18th Street, NW ,Washington
184	1218, INC.	5514 Swiss Avenue ,Dallas
186	1220 EXHIBITS, INC.	3801 Vulcan Drive ,Nashville
190	123 EXTERIORS, INC.	2240 South Brentwood Blvd ,St. Louis
192	123 PEDIATRICS, INC.	416 Cardinal Lane Suite 102 ,Bolingbrook
195	1237WEST LLC	1237 W Fullerton Ave ,Chicago
198	1259 POST LLC	1259 Post Dr Ne ,Belmont
199	126 POST SALON SPA	126 June St ,Worcester
201	1261 FURNACE BROOK PARKWAY INC	443 Route 130 ,Sandwich
202	1266 APARTMENT CORP.	622 Third Avenue ,New York
205	12900 LAKE AVENUE CONDOMINIUM ASSO	6690 Beta Drive ,Mayfield Village
207	12TH MAN TECHNOLOGIES, INC.	7245 Garden Grove Boulevard ,Garden Grove
209	13 COINS AQUISITION, LLC	1000 Denny Way, Suite 513 ,Seattle
221	136 W BORADWAY INC	136 W Broadway ,New York
222	1366 TECHNOLOGIES, INC.	6 Preston Court ,Bedford
223	137 VENTURES MANAGEMENT, LLC	26 OFarrell St ,San Francisco
227	1394 HIGH PERFORMANCE SERIAL BUS TRADE ASSOCIATION	23117 39th Avenue Se ,Bothell
229	13D RESEARCH, INC.	109 Boulder View Lane ,Ketchum
230	13THERAPEUTICS, INC.	4640 SW Macadam Ave ,Portland
232	14/69 AUTO BODY INC.	620 Avenue Of Autos ,Fort Wayne
242	1447 DENTAL ASSOCIATES	1447 E Market Street ,York
244	1450 INC	5090 Pga Blvd Ste 300 ,Palm Beach Gardens
245	145TH STREET ANIMAL HOSPITAL	454 W 145th St ,New York
246	146 SUPPLY CENTER, INC.	97 Worcester Providence Turnpike ,Millbury
250	1492 CAPITAL MANAGEMENT LLC	309 North Water Street Ste. 505 ,Milwaukee
254	15 FINGERS	443 Delaware Avenue ,Buffalo
256	150 WILLIAM STREET, L.P.	160 Broadway ,New York
260	155 HARBOR DRIVE CONDOMINIUM ASSOC.	155 N Harbor Dr ,Chicago
269	16 EAST 32ND CORP	16 East 32 Street ,New York
270	16 HANDLES	38 East 29th Street ,New York
271	16 TONS, INC.	27 Knickerbocker Avenue ,Brooklyn
272	1602 GROUP, LLC	5600 General Washington Drive ,Alexandria
273	1607 CAPITAL PARTNERS LLC	4991 Lake Brook Dr ,Glen Allen
279	167TH TFR FEDERAL CREDIT UNION	1945 Edwin Miller Blvd ,Martinsburg
283	16TH AMENDMENT ADVISORS LLC	One Rockefeller Plaza #1202 ,New York
285	16W MARKETING, LLC	75 Union Avenue ,Rutherford
293	176 DENTAL ASSOCIATES, LTD.	176 S. Bloomingdale Road ,Bloomingdale
295	1772 FOUNDATION, INC.	449 Thames Street, Suite 301C ,Newport
300	1798 CONSULTANTS, INC.	828 Prospect Street, Unit H ,La Jolla
302	17TH STREET PHOTO SUPPLY, INC.	33 W. 17th Street ,New York
304	18 FRONT INC	18 Spring Street ,New York
305	18 INTERNATIONAL, LTD.	65 West 36th Street, 8th Floor ,New York
306	18 KARAT, INC.	211 Mitchell Road ,Eighty Four
307	18 POMEGRANATES, INC.	P.O. Box 19649 ,Boulder
312	180 PROPERTIES, LLC	8707 Skokie Blvd ,Skokie
314	180,TURNING LIVES AROUND, INC.	One Bethany Road ,Hazlet
315	1800 BOARDUP INC	233 Wolfner Drive ,Fenton
316	1-800 CONTACTS, INC.	66 E. Wadsworth Park Drive ,Draper
318	1-800 WATER DAMAGE OF HICKSVIL	250 W Old Country Rd Ste 1B ,Hicksville
320	1-800-BAR NONE, A FINANCIAL C	100 Carillon Parkway ,St Petersburg
321	1-800-DRYCLEAN	1202 Apache Ln ,Apex
323	1-800-GOT-JUNK LLC	887 Great Northen Way ,Vancouver
324	1-800-LIFE-INSURANCE AGENCY, INC.	5170 Golden Foothill Pkwy. ,El Dorado Hills
325	1-800-PACK-RAT, LLC	6400 Goldsboro Road, Suite 300 ,Bethesda
327	1804 OPERATING LLC	5910 N. Central Expressway ,Dallas
328	180LA, LLC	1733 Ocean Avenue ,Santa Monica
329	180ONE	16016 Boones Ferry Road ,Lake Oswego
330	180S, LLC	700 South Caroline St ,Baltimore
331	181 SOUTH MAIN STREET INC	181 South Main Street ,West Bridgewater
332	1818 CLUB INC	6500 Sugarloaf Parkway ,Duluth
335	1848 CAPITAL PARTNERS LLC	1221 Brickell Ave, Ste 2660 ,Miami
336	1854 TREATY AUTHORITY	Airpark Square ,Duluth
338	1861 CAPITAL MANAGEMENT LLC	30 Rockefeller Plaza, 28th Floor ,New York
341	1883, INC.	7430 Us 42, Suite 200 ,Florence
342	1887 CORPORATION	2030 Franklin Street, Suite 200 ,Oakland
344	1-888-OHIOCOMP, INC.	2900 Carnegie Avenue ,Cleveland
345	1890 WILLIAMS HOUSE INC.	420 Quapaw Avenue ,Hot Springs
348	19 ENTERTAINMENT, INC.	8560 W. Sunset Blvd., 9th Fl ,West Hollywood
349	1901 GROUP, LLC	11955 Freedom Drive ,Reston
350	191 PRESIDENTIAL CONDOMINIUM ASSOCIATION	191 Presidential Blvd ,Bala Cynwyd
353	195 LUMBER COMPANY KILLEEN, LTD. INC	3032 S Ft Hood St ,Killeen
354	1960 FAMILY PRACTICE, P.A.	837 Fm 1960 West ,Houston
362	1A AUTO, INC.	8 Chapel Place ,Pepperell
363	1A SMART START, INC.	500 East Dallas Road, Suite 100 ,Grapevine
365	1-DAY PAINT & BODY CENTERS, INC.	11766 Wilshire Blvd 9th Floor ,Los Angeles
367	1EDISOURCE	31875 Solon Rd ,Solon
369	1EZ CONSULTING SERVICES, INC	1300 Bristol St N Ste 100 ,Newport Beach
371	1MAGE SOFTWARE, INC.	384 Inverness Pkwy ,Englewood
372	1MOSAIC, INC	2605 Alvinwood Dr ,Nashville
373	1P CONSULTANT LLC	800 Brentwood Drive ,Baytown
374	1SEO.COM	7009 Bristol Pike ,Levittown
375	1SOURCE INTERNATIONAL, LLC	925 Woodstock Road, Suite 150 ,Roswell
376	1SOURCEVIDEO.COM, LLC	3 Crown Plaza, ,Hazlet
379	1ST ADVANTAGE BANK	240 Salt Lick Road ,St. Peters
380	1ST ADVANTAGE FEDERAL CREDIT UNION	P.O. Box 2116 ,Newport News
382	1ST ADVANTAGE MORTGAGE, LLC	701 E. 22nd Street, Suite 125 ,Lombard
383	1ST ALLIANCE COMMUNICATIONS, INC	517 North Lake Avenue Unit A ,Twin Lakes
384	1ST ALLIANCE LENDING, LLC	111 Founders Plaza, Suite 1300 ,East Hartford
385	1ST AMENDMENT INC	54 Hemlock Ridge Rd ,Chelsea
388	1ST AMERICAN FAMILY MORTGAGE	8057 S Madison Way ,Centennial
389	1ST AMERICAN INSURANCE LLC	4445 N Pulaski Road ,Chicago
391	1ST AMERICAN SYSTEMS AND SERVICES	7609 Leonard Dr ,Falls Church
392	1ST AMRICARD INC	6100 Fairview Rd Ste 300 ,Charlotte
393	1ST ASSIST HOME HEALTH CARE, LLC	1019 W. Wise Rd. ,Schaumburg
395	1ST AYD CORPORATION	1325 Gateway Dr ,Elgin
396	1ST BANK	120 2nd St NW ,Sidney
397	1ST BANK & TRUST OF BROKEN BOW	710 S Park Dr ,Broken Bow
398	1ST BANK YUMA	2799 South 4th Avenue ,Yuma
399	1ST CALIFORNIA SECURITY INVEST	1225 W 190th St Ste 320 ,Gardena
400	1ST CAMERON STATE BANK	Po Box 465 ,Cameron
401	1ST CAPITAL BANK	5 Harris Ct Bldg N Suite 3 ,Monterey
402	1ST CAPITAL MORTGAGE, LLC	13720 East 86th St. North ,Owasso
403	1ST CARE HEALTHGROUP	#5 Twin Spring ,Dalworthington Gardens
404	1ST CENTURY BANK, N.A.	1875 Century Park East Ste. 1400 ,Los Angeles
405	1ST CEREBRAL PALSY OF NEW JERSEY, I NC.	7 Sanford Ave. ,Belleville
406	1ST CHOICE CABINETRY, LLC	2620 Westinghouse Blvd ,Raleigh
407	1ST CHOICE CHIROPRACTIC, INC.	2955 W. Sylvania Avenue ,Toledo
408	1ST CHOICE COMMUNITY FCU	3910 Schaper Ave ,Erie
409	1ST CHOICE CREDIT UNION	315 Auburn Ave Ne ,Atlanta
411	1ST CHOICE HEALTH SERVICES L.P.	1205 Bent Oaks Ct Ste 100 ,Denton
412	1ST CHOICE HOME HEALTHCARE, INC	43421 Kalifornsky Beach Road ,Soldotna
414	1ST CHOICE HOMECARE INC.	735 Woodspring Court ,Beavercreek
415	1ST CHOICE HOUSING, INC.	16507 Northcross Dr Ste G ,Huntersville
418	1ST CHOICE PHYSICAL THERAPY, P.C.	1855 Hwy 51 By-Pass Suite A ,Dyersburg
419	1ST CHOICE REALTY, INC.	3091 Clairemont Drive ,San Diego
421	1ST CHOICE SALES, INC.	3210 N. Fruit Avenue ,Fresno
422	1ST CLASS SLEEP DIAGNOSTICS, INC.	14631 Lee Highway Suite 401 ,Centreville
423	1ST COLONIAL NATIONAL BANK	210 Lake Drive East Suite 300 ,Cherry Hill
425	1ST COMMUNITY FEDERAL CREDIT UNION	3505 Wildewood Drive ,San Angelo
426	1ST CONSTITUTION BANK	P.O. Box 634 ,Cranbury
427	1ST CREDIT UNION OF GAINESVILLE	412 E University Ave ,Gainesville
428	1ST DENTAL CARE LTD	1556 Douglas Rd ,Montgomery
429	1ST DISCOUNT BROKERAGE	8927 Hypoluxo Road, A-5 ,Lake Worth
430	1ST ED CREDIT UNION	1156 Kennebec Dr ,Chambersburg
433	1ST EMPLOYMENT STAFFING	P.O. Box 8712 ,Fayetteville
434	1ST ENTERPRISE BANK	818 West Seventh Street, Suite 220 ,Los Angeles
435	1ST EQUITY BANK	3956 W. Dempster St. ,Skokie
436	1ST EQUITY BANK NORTHWEST	1330 West Dundee Road ,Buffalo Grove
437	1ST EXPRESS, INC.	1750 Southfield Road ,Lincoln Park
438	1ST FINANCIAL BANK	11120 W 135th St ,Overland Park
439	1ST FINANCIAL BANK USA	363 W Anchor Dr ,Dakota Dunes
440	1ST FINANCIAL FEDERAL CREDIT UNION	1232 Wentzville Pkwy ,Wentzville
442	1ST FINANCIAL, INC.	703 Bestgate Rd. ,Annapolis
443	1ST FRANKLIN FINANCIAL CORPORATION	Po Box 880 ,Toccoa
444	1ST GATEWAY CREDIT UNION	2306 Camanche Industrial Park Drive ,Camanche
446	1ST GUARD CORPORATION	200 Nokomis Ave S Fl 4 ,Venice
447	1ST HOME MORTGAGE, INC.	851 N 100 E ,Spanish Fork
448	1ST ILLINOIS CREDIT UNION	323 N Gilbert St ,Danville
449	1ST IMPRESSION, INC.	Po Box 910 ,Hockessin
451	1ST IMPRESSIONS ORTHODONTICS P	1333 W 120th Ave Ste 303 ,Westminster
452	1ST IN COFFEE, LLC	28 Susan Drive ,Marlboro
453	1ST IN SMILES	5201 West Park Boulevard, Suite 204 ,Plano
454	1ST IN VIDEO - MUSIC WORLD, INC.	2828 Broadway St ,Quincy
457	1ST KIDS, INC.	11045 Broadway, Suite F ,Crown Point
459	1ST LIBERTY FEDERAL CREDIT UNION	Po Box 5002 ,Great Falls
461	1ST LONDON REALTORS INC	12441 Ventura Court ,Studio City
463	1ST MIDAMERICA CREDIT UNION	731 E Bethalto Drive ,Bethalto
464	1ST NATIONAL BANK OF SOUTH FLORIDA	1550 N Krome Ave ,Homestead
465	1ST NATIONAL COMMUNITY BANK	16924 St. Clair ,East Liverpool
466	1ST NATIONAL FINANCIAL SVCS OF OR	10170 SW Nimbus Ave Ste H2 ,Portland
467	1ST NATL BANK OF ST. CHARLES	P O Box 508 ,Boutte
468	1ST ORLANDO REAL ESTATE SERV	564 N Semoran Blvd ,Orlando
469	1ST PARTNERS & CO., INC.	12750 Merit Drive ,Dallas
470	1ST PLACE SPORTS	3710 Beauclerc Rd. ,Jacksonville
472	1ST PORTFOLIO HOLDING CORPORATION	8300 Boone Blvd. ,Vienna
474	1ST PRIORITY FED CR UN	38 Lomb Memorial Dr ,Rochester
476	1ST RATE MORTGAGE CORPORATION	3159 Voyager Dr ,Green Bay
477	1ST RESIDENTIAL FUNDING, INC.	1755 W. Broadway Street, Suite 1 ,Oviedo
478	1ST SECURITY BANK OF WASHINGTON	6920 220th Street Sw ,Mountlake Terrace
480	1ST SOURCE CORPORATION	Human Resource Division ,South Bend
481	1ST SOURCE FUNDING INC	3646 Hamner Ave ,Norco
484	1ST STATE BANK	4800 Fashion Square Blvd ,Saginaw
486	1ST STOP MAIL CENTER, INC.	2806 East Atlanta Road ,Ellenwood
487	1ST STREET GRAPHICS, INC.	1205 South 11th St. ,Saint Joseph
488	1ST STREET N.W. INC.	3140 Neil Armstron Blvd, Ste 103 ,Eagan
489	1ST SUMMIT BANCORP	125 Donald Lane ,Johnstown
491	1ST TEAM STAFFING SERVICES, INC.	806 Frederick Road ,Catonsville
492	1ST TITLE OF CENTRAL JERSEY	303 West Main Street 3rd Floor ,Freehold
493	1ST TRUST BANK	24 Commerce Drive ,Hazard
494	1ST TRUST MORTGAGE	2460 Highway 100 South ,St Louis Park
495	1ST UNITED BANK	1700 Palm Beach Lakes Boulevard ,West Palm Beach
497	1ST UNITED SERVICES CREDIT UNION	5901 Gibraltar Drive ,Pleasanton
498	1ST UNIVERSITY CREDIT UNION	605 S University Parks Dr ,Waco
499	1ST VALLEY CREDIT UNION	401 W 2nd St ,San Bernardino
500	1ST VISION, INC.	2 Dundee Park Drive, B09 ,Andover
503	1TEXAS LIONS CAMP INC.	Po Box 290247 ,Kerrville
505	2 B 1 INC	355 8th Street Suite 200 ,San Francisco
509	2 CIRCLE INCORPORATED	1400 North 14th Street Ste 10 ,Arlington
510	2 D CONSTRUCTION	Po Box 360 ,Vermilion
512	2 DYE 4, INC.	4521 W 99th Street ,Carmel
514	2 IS, INC.	75 West Street ,Walpole
516	2 JOVANS, INC.	1 Mahogany Run ,Trabuco Canyon
518	2 M COMPANY, INC.	5249 Holiday Ave ,Billings
520	2 PLUS 2 PARTNERS, INC.	5980 Horton Street, Suite 105 ,Emeryville
523	2 ROBS, INC.	2885 Churn Creek ,Redding
524	2 SCALE INTERIORS, LLC	140 Little Falls St., Ste. 214 ,Falls Church
525	2 SISTERS FOOD GROUP	4305 Colony Plaza ,Newport Beach
527	2 THE TOP ENTERPRISES	1750 K Street, NW ,Washington
528	2 TON LLC	2700 Navajo Road ,El Cajon
532	2 WIRE, INC. D/B/A PACE AMERICAS	3701 Fau Blvd ,Boca Raton
533	2 WITCHES WINERY AND BREWING COMPANY, INC.	1056 Pinecroft Road ,Danville
534	20 / 20 OPTICAL, INC.	15 Arcadia Road ,Old Greenwich
535	20 20 EYE CARE PC	91 Central St # B ,Norwood
537	20 GATES MANAGEMENT LLC	30 Irving Place ,New York
540	20 WON, LLC	3028 NE Sandy Blvd ,Portland
541	20/10 DESIGN & MARKETING, INC.	625 Willowbrook Lane, Bldg. 600 ,West Chester
546	20/20 BUSINESS INSIGHTS, INC.	10375 Richmond Ave Ste 1300 ,Houston
547	20/20 COMMUNICATIONS, INC.	3575 Lone Star Circle ,Fort Worth
548	20/20 CUSTOM MOLDED PLASTICS, LTD.	14620 Selwyn Drive ,Holiday City
552	20/20 EYECARE, PSC	181 Highway 44 E ,Shepardsville
553	20/20 FINANCIAL CONSULTING, INC.	11800 Ridge Parkway ,Broomfield
555	20/20 HEALTHCARE, LLC	6950 Philips Hwy, Ste 45 ,Jacksonville
558	20/20 PROMOTIONS, LLC	135 Grand Avenue East ,South St. Paul
561	2000 STRONG, INC	Po Box 1527 ,Venice
562	2001 DANA POINT MARINA COMPANY	34555 Casitas Pl ,Dana Point
563	2001 INC	Po Box 2557 ,Waterbury
569	2010 OFFICE FURNITURE	2227 N. Merced ,South El Monte
570	2011 ANGELINA MANUFACTURING LLC	Po Box 155110 ,Lufkin
575	2015 SPECIAL OLYMPICS WORLD SUMMER GAMES ORGANIZING COMMITTEE, INC.	350 S. Grand Ave., Suite 200 ,Los Angeles
576	2020 CAPITAL GROUP	14 Claires Point Road ,Beaufort
578	2020 EXHIBITS, INC.	10550 S Sam Houston Parkway ,Houston
580	2020 PLUMBING LLC	2545 Dobbs Road, Suite 6 ,Saint Augustine
581	20-20 TECHNOLOGIES COMMERCIAL CORP	550 3 Mile Rd NW ,Grand Rapids
582	20-20 TECHNOLOGIES COMMERCIAL, CORP.	550 3 Mile Rd NW ,Grand Rapids
586	2025 INC.	1851 Ryan Avenue West ,Roseville
590	2030, INC.	607 Cerrillos Road, Suite G ,Santa Fe
593	206, INC.	1505 Western Avenue ,Seattle
595	209 NYC DENTAL LLP	209 East 56th Street ,Ny
596	20NINE DESIGN STUDIOS LLC	1100 E Hector St Ste 305 ,Conshohocken
597	20TH CENTURY FORD, INC.	1090 Ford Way ,Blackfoot
599	20TWENTY STRATEGIC CONSULTING	1390 Chain Bridge Road, Suite 222 ,Mclean
600	21 CENTURY DERMATOLOGY, LLC	1300 Fayette Street ,Teaneck
602	21 MAIN NORTH BEACH, LLC	80 Browns River Road ,Sayville
604	21 SPORTS & ENTERTAINMENT	85 Railroad Ave ,Greenwich
606	210 MANAGEMENT CORP.	The Rittenhouse 401K Admin ,Philadelphia
609	2100 XENON GROUP, LLC	430 W. Erie St., Suite 300 ,Chicago
611	2101 COOPERATIVE, INC.	118 South 21st Street ,Philadelphia
612	2-1-1 BIG BEND, INC.	Po Box 10950 ,Tallahassee
613	211 INFO	Po Box 11830 ,Portland
615	211 PALM BEACH/TREASURE COAST, INC.	Po Box 3588 ,Lantana
616	2-1-1 TAMPA BAY CARES, INC.	14155 58th Street North ,Clearwater
618	212 CONSULTING INC	40 Washington Street Ste 220 ,Wellesley
619	212 RESOURCES, LLC	450 Gears Road ,Houston
622	213 GROUP, LLC	701 W. Delilah Rd., Ste. 213 ,Pleasantville
624	215 HOLDING CO.	215 South 11th Street ,Minneapolis
625	215SECURE, LLC	643 North 15th Street ,Philadelphia
628	21C MUSEUM HOTELS, LLC	710 West Main Street Third Floor ,Louisville
629	21C SYSTEM INSTITUTE, INC.	13470 Moonflower Meadows Trail ,San Diego
631	21ST AMENDMENT, INC	1158 W. 86th Street ,Indianapolis
632	21ST CENTURY BANK	9380 Central Ave Ne ,Blaine
633	21ST CENTURY BENEFIT ADVISORS, INC.	2 Park Central Drive Suite 120 ,Southborough
636	21ST CENTURY CHIROPRACTIC FAMILY WELLNESS, S.C.	4907 W. 95th Street ,Oak Lawn
637	21ST CENTURY CHIROPRACTIC PC	16 E Main Street ,Monteagle
638	21ST CENTURY CHIROPRACTIC, LLC	3690 King St Ste M ,Alexandria
639	21ST CENTURY CONSULTING COMPANY	825 NE 18th St ,Fort Lauderdale
640	21ST CENTURY COOPERATIVE COMPANY	Po Box 80 ,Cumberland
641	21ST CENTURY DENTAL PC	4001 Asbury Ave., Suite 1 ,Tinton Falls
642	21ST CENTURY DENTAL.COM	8907 Warner Avenue Suite 100 ,Huntington Beach
643	21ST CENTURY DERMATOLOGY, PLLC	133 East 58th Street ,New York
644	21ST CENTURY EQUIPMENT, LLC	P.O.Box 61 ,Bridgeport
645	21ST CENTURY FINANCIAL SERVICES, LL	10711 Burnet Rd Ste 306 ,Austin
646	21ST CENTURY FINISHING, INC.	280 N Midland Ave ,Saddle Brook
647	21ST CENTURY FOX AMERICA, INC.	1211 Avenue Of The Americas ,New York
651	21ST CENTURY MEDIA, INC.	448 Lincoln Highway, 2nd Floor ,Fairless Hills
653	21ST CENTURY ONCOLOGY, INC.	2234 Colonial Blvd ,Fort Myers
654	21ST CENTURY OPTICS, INC.	47-00 33rd Street ,Long Island City
655	21ST CENTURY PARKS, INC.	471 W. Main St., Suite 202 ,Louisville
657	21ST CENTURY PLASTICS CORPORATION	300 Wright Parkway ,Potterville
658	21ST CENTURY PROFESSIONALS CORP	9411 Alice Mcginn Dr. ,Charlotte
661	21ST CENTURY REHAB, PC	Post Office Box 461 ,Nevada
662	21ST CENTURY SCIENTIFIC, INC.	4931 N Manufacturing Way ,Coeur D Alene
663	21ST CENTURY SOFTWARE TECHNOLOGI	940 West Valley Rd Ste 1604 ,Wayne
664	21ST CENTURY SOFTWARE, INC	43416 Colter Court ,Ashburn
667	21ST CENTURY SYSTEMS, INC.	6500 Prairie Ave. ,Omaha
669	21ST CENTURY THERAPY, P.C.	8951 East 60th Street ,Raytown
670	21ST CENTURY TILE, INC.	12600 West Silver Spring Drive ,Butler
672	21ST EDITIONS, INC.	9 New Venture Drive, Unit 3 ,South Dennis
675	2-20 RECORDS MANAGEMENT LLC	379 Thornall St., 5th Floor ,Edison
678	222 INVESTMENTS INC.	315 Candelaria St. ,Helotes
680	225 UNLIMITED, INC.	317 North Lake Blvd, Ste. 1016 ,Altamonte Springs
683	22LIBERTY, L.L.C.	22 Liberty Street ,Pawcatuck
685	22ND CENTURY LIMITED LLC	9530 Main Street ,Clarence
686	22ND CENTURY MEDIA, LLC	11516 West 183rd Street ,Orland Park
688	22ND CENTURY STAFFING INC	1 Executive Drive Ste 285 ,Somerset
689	22ND CENTURY TECHNOLOGIES, INC.	1 Executive Dr Ste 285 ,Somerset
690	22SQUARED, INC.	1170 Peachtree Street Ne ,Atlanta
703	23RD FAMILY MED, LLC	350 W 23rd Street, Suite D ,Fremont
705	24 7 EXPEDITE INC	6711 Middlebelt ,West Bloomfield
707	24 ASSET MANAGEMENT CORP	2020 Camino Del Rio N Ste 900 ,San Diego
708	24 CARROTS, LLC	17851 Sky Park Circle ,Irvine
712	24 HOUR COMPANY	6521 Arlington Blvd. Suite 501 ,Falls Church
713	24 HOUR DATA	811 East Plano Pkwy. ,Plano
714	24 HOUR ELEVATOR INC	7166 Convoy Ct ,San Diego
715	24 HOUR FITNESS USA, INC.	12647 Alcosta Boulevard, Suite 500 ,San Ramon
716	24 HOUR LTD.	8911 Directors Row ,Dallas
718	24 HR SAFETY LLC	4912 Railroad St ,Deer Park
720	24 KARAT ROSE LOYALTY CO. LLC	1539 Clare Lane ,Wayzata
724	24 SEVEN INC.	120 Wooster Street, 4th Floor ,New York
727	24 X 7 HOSPITALITY TECHNOLOGY, LLC	1770 S. Randall Road ,Geneva
730	24/7 FLOOD RESPONSE, INC.	6225 W. 48th Avenue, Suite 206 ,Wheat Ridge
732	24/7 HOME COMFORT SERVICES, INC.	310 Sunnyside Drive ,Milton
734	24/7 PEDIATRIC CARE CENTERS, INC.	274 Third Avenue South ,Jacksonville Beach
738	24/7, INC	3490 Harris Hill Blvd ,Huntsville
741	242, INC.	S50 W23515 Woodchuck Ln ,Waukesha
745	247, INC	910 E. Hamilton Avenue ,Campbell
747	24HR HOMECARE	3812 Sepulveda Blvd Ste 240 ,Torrance
748	24M TECHNOLOGIES INC	130 Brookline Street ,Cambridge
750	25 CAPITAL PARTNERS, LLC	13024 Ballantyne Corp. Place ,Charlotte
751	25 EAST, LLC	P.O. Box 2139 ,Savannah
755	25/7 PRODUCTIONS	1880 Century Park East Suite 1600 ,Los Angeles
760	26 DOT TWO, LLC.	1045 Sansome Street Suite 328 ,San Francisco
762	26 LLC	5736 Mayfield Road ,Mayfield Heights
763	26 NORTH AVIATION, INC.	2202 N. Irving St. ,Allentown
765	2668 MONTAUK HIGHWAY, LLC	450 County Road 39 ,Southampton
769	270 STRATEGIES INC.	401 West Superior Street ,Chicago
783	28TH STREET HOTEL, LLC	5 Shenandoah Ave ,Jacksonville
785	29 EAST MACARTHUR, L.L.C.	29 East Macarthur Street ,Sonoma
787	2900 STEEL, LLC	5277 Manhattan Circle, Suite 111 ,Boulder
789	2AM GROUP, LLC	P.O. Box 170397 ,Spartanburg
790	2B COMMUNICATIONS, INC.	1201 Morningside Drive Suite 105 ,Manhattan Beach
791	2B INC.	8614 Ash Lane ,Prairie Village
792	2B MANAGEMENT, LLC	110 Greene Street, Suite 501 ,New York
793	2B SOLUTIONS, INC	1500 1st Avenue North ,Birmingham
794	2B STUDIO INC	6420 Fulton St E ,Ada
800	2BFIT INC.	3606 W Cielo Grande ,Glendale
802	2C MEDIA, INC.	12550 Biscayne Blvd., Suite 700 ,North Miami
803	2C PROCESSOR USA LLC	122 Arena St ,El Segundo
806	2CHECKOUT.COM	855 Grandview Avenue ,Columbus
807	2CV INC	460 Bush St ,San Francisco
808	2D, INC.	15020 Mintz Lane ,Houston
815	2G ENGINEERING LLC	2870 Terra Ct Ste 3 ,Sun Prairie
816	2G ROSES LLC	735 San Juan Road ,Royal Oaks
817	2GIG TECHNOLOGIES, INC.	500 Exchange Street ,Providence
818	2GO, INC.	2117 Dorchester Dr. ,Mobile
819	2GRAND MEDIA, INC.	6956 Navigation Drive ,Grand Prairie
820	2H CONSTRUCTION, INC.	2651 Walnut Avenue ,Signal Hill
822	2H OFFSHORE INC	16010 Barkers Point Lane, Suite 120 ,Houston
823	2HB SOFTWARE DESIGN INC	8894 Stanford Blvd Suite 301 ,Columbia
825	2HEMISPHERES INC.	4835 Willamette Falls Dr ,West Linn
826	2-J SUPPLY COMPANY, INC.	872 Valley Street ,Dayton
828	2K CORPORATION	2624 North 157th Terrace ,Bashehor
829	2K GENERAL COMPANY, INC.	19 Gruber St, Bldg B ,Delaware
831	2K PRODUCTIONS	400 N. Main Avenue ,Sioux Falls
837	2LEMETRY	1321 15th St ,Denver
839	2M LIGHTING, INC	4602 Perrin Creek Ste 1280 ,San Antonio
840	2M RESEARCH SERVICES, LLC	615 West Main Street, Ste 311 ,Arlington
841	2M SOLUTIONS INC	802 Greenview Dr Ste 100 ,Grand Prairie
843	2ND AVENUE ANIMAL HOSPITAL, LLC	4025 2nd Avenue ,Columbus
850	2ND SOLUTION INC.	15 Broad Street Apt. 1512 ,New York
851	2ND SPARK CONSULTING LLC	818 Paper Mill Rd ,Wyndmoor
853	2ND WIND EXERCISE EQUIPMENT	7585 Equitable Drive ,Eden Prairie
854	2ND WIND HEATING & AIR CONDITIONING, INC	6130 Shakespeare Road ,Columbia
855	2ND WIND SLEEP MEDICAL EQUIPMENT, L	700 Bellvue St. Se ,Salem
856	2NDEDISON, INC.	11 El Gavilan Rd ,Orinda
858	2NDS IN BUILDING MATERIALS, INC.	6052 Lee Hwy ,Chattanooga
859	2R AUTOMATION, LLC	11026 Split Oak Drive ,West Olive
860	2R DRILLING, INC.	3968 Chino Ave. ,Chino
862	2RB CONSULTING INC	150 Lake Street Ste 204 ,Kirkland
865	2SCRIBE, INC.	29325 Kennedy Court ,Farmington Hills
869	2U, INC.	8201 Corporate Dr, Ste 900 ,Landover
870	2V INDUSTRIES, INC.	48553 West Road ,Wixom
874	2X4, INC.	180 Varick Street,15th Floor ,New York
875	2XCEL, LLC	2901 W. Coast Hwy., Suite 200 ,Newport Beach
878	2XL GAMES, INC.	3131 E Camelback Rd Suite 440 ,Phoenix
879	2XL, INC.	590 Brennan Street ,San Jose
881	3 A SANITARY STANDARDS INC	6888 Elm St Ste 2D ,Mclean
882	3 ARROWS SERVICES, INC.	17601 Beretta Drive ,Accokeek
883	3 ARTIST MANAGEMENT, INC.	2800 Olympic Blvd., 2nd Floor ,Santa Monica
884	3 ARTS ENTERTAINMENT	9460 Wilshire Blvd., 7th Floor ,Beverly Hills
885	3 AXIS ENGINEERING	5929 Knight Avenue ,Tuscaloosa
887	3 BD CORP	10462 San Pablo Ave ,El Cerrito
888	3 BIRDS MARKETING LLC	1818 Mlk Jr Blvd ,Chapel Hill
889	3 BLACK DIAMOND HOLDING CORP	Po Box 27600 ,Tampa
892	3 BUSY DOGS, INC.	3725 SW 170th St. ,Burien
893	3 C SOFTWARE	1760 The Exchange ,Atlanta
897	3 D COLOR, INC.	2190 Florence Avenue ,Cincinnati
899	3 D MARKETING, INC.	16133 Carden Drive ,Odessa
900	3 DAY BLINDS CORPORATION	25 Technology Drive, Suite B100 ,Irvine
901	3 DEGREES GROUP, INC	2 Embarcadero Center ,San Francisco
905	3 DOORS DOWN, INC.	P.O. Box 896 ,Pine Brook
909	3 G CAPITAL INC.	600 3rd Ave Fl 37 ,New York
913	3 LATINO RESTAURANT	2 Palm St ,Rochester
914	3 LEGGED DOG, INC.	22287 Mulholland Highway, Ste. 122 ,Calabasas
915	3 MARK FINANCIAL, INC.	1600 Highway 6, Suite 400 ,Sugar Land
916	3 N 1 MEDIA	555 Church Street, Suite 101 ,Brentwood
918	3 OLIVES, INC.	4650 Fm 1960 W ,Houston
919	3 P INC.	118 Quarry Road ,Milford
923	3 PHOENIX, INC.	14585 Avion Parkway ,Chantilly
924	3 PILLAR HOMES, LLC	5241 Summer Ridge Ln ,Galena
929	3 PROPHETS & A KING, INC.	22189 State Road 23 ,South Bend
930	3 PUTT BOGEY LLC	909 Divison Street Suite 100 ,Nashville
931	3 QUEENS EQUESTRIAN CENTER & SHOWBARN	209 Whitetail Lane ,Hutto
933	3 RIVERS	1615 Northland Boulevard ,Fort Wayne
934	3 RIVERS CAPITAL LLC	437 Grant Street ,Pittsburgh
935	3 RIVERS POTATO SERVICES, INC	Po Box 2791 ,Tri-Cities
936	3 RIVERS TELEPHONE COOPERATIVE, INC.	Po Box 429 ,Fairfield
937	3 RIVERS WET WEATHER INC	3901 Penn Ave Bldg 3 ,Pittsburgh
938	3 SHELTIES, INC.	7973 Wills Run Pl ,Harrisburg
939	3 SONS DESIGN LLC	2140 S. Wolcott Ct. ,Denver
941	3 SPRINGS WATER COMPANY, INC.	37173 ONeill Drive ,Solon
946	3 TON GROUP, LLC	1661 N. Water St. Suite 509 ,Milwaukee
948	3 WIRE LLC	4606 S Atlantis Dr ,Janesville
952	30 INCORPORATED	2485 Saint Paul Drive ,Colorado Springs
955	30 SECOND STREET, LTD.	1209 Mountain Road Place, Ne ,Albuquerque
960	300 NORTH CAPITAL SMALL CAP INVESTMENT FUND	4005 Kennett Pike ,Greenville
961	300 NORTH CAPITAL, LLC	300 N. Lake Avenue, Suite 1120 ,Pasadena
968	303 FIFTH AVENUE, INC.	303 Fifth Avenue ,New York
971	309 MONROE, INC.	309 Monroe Street ,Monroeville
972	30SIXTY DESIGN INC	800 N Alameda St ,Los Angeles
973	30SIXTY DESIGN, INC	800 N Alameda St Ste 200 ,Los Angeles
974	30TH JUDICIAL DISTRICT DV-SA ALLIANCE	P.O. Box 554 ,Waynesville
976	31 INCORPORATED	100 Enterprise Drive ,Newcomerstown
977	31,000 FT LLC	15400 Knoll Trail Dr Ste 400 ,Dallas
985	317 ENTERPRISE INC.	1103 Brack Forest Ave ,Shorewood
989	31-W INSULATION CO., INC.	7434 Cycle Lane ,Goodlettsville
990	32 NORTH, INC.	140 Turrini Ct ,Danville
994	321 GANG	14362 N Frank Lloyd Wright ,Scottsdale
1003	32ND STREET 99 CENTS CORP.	110 West 32nd Street ,New York
1004	32ND STREET DENTAL CARE, LLC	550 E. 32nd Street ,Yuma
1012	333 BUTTERNUT DRIVE LLC	333 Butternut Dr ,De Witt
1021	340 390 MAIN STREET ASSOCIATES	340 Main Street ,Worcester
1032	350.ORG	20 Jay Street ,Brooklyn
1033	352 INC	Dba 352 Media Group ,Newberry
1039	36 COMMUTING SOLUTIONS	287 Century Circle ,Louisville
1041	360 APPRAISAL GROUP	23832 Rockfield Blvd #252 ,Lake Forrest
1042	360 ARCHITECTURE INC	300 West 22nd Street ,Kansas City
1045	360 DG, LLC	9 Marconi ,Irvine
1046	360 DIGITAL MEDIA, INC	15 Ellwood Ct. ,Greenville
1047	360 DYNAMIC TECHNOLOGY INC	1920 Main Street Ste 700 ,Irvine
1048	360 EDUCATION SOLUTIONS, INC.	2440 West Ray Road, Suite 2 ,Chandler
1049	360 ENERGY ENGINEERS	2029 Becker Drive ,Lawrence
1051	360 FEDERAL CREDIT UNION	191 Ella Grasso Turnpike ,Windsor Locks
1052	360 FINANCIAL INC	11100 Wayzata Blvd Ste 360 ,Minnetonka
1053	360 HEALTH CLUB, LLC	18420 Hart Street ,Reseda
1054	360 HOTEL MANAGEMENT CO LLC	19009 33rd Ave. West ,Lynnwood
1055	360 INTERNATIONAL, INC.	220 Crip Lane ,Duson
1057	360 LIVE MEDIA, LLC	1602 L. Street NW ,Washington
1059	360 MECHANICAL	1100 Athens Avenue Suite G ,Richmond
1061	360 MORTGAGE GROUP, LLC	11305 Four Points Drive ,Austin
1062	360 OFFICE SOLUTIONS, INC.	P.O. Box 30598 ,Billings
1063	360 PAYMENT SOLUTIONS, INC.	1245 S. Winchester Blvd., Suite 216 ,San Jose
1065	360 PUBLIC RELATIONS, LLC	200 State Street ,Boston
1066	360 RISK MANAGEMENT INC	21500 Haggerty Rd Ste 140 ,Northville
1067	360 SERVICES, INC.	12623 Newburgh Road ,Livonia
1068	360 SOLUTIONS CORP	36 Four Oaks Rd ,Bedminster
1069	360 SOLUTIONS, INC.	4390 Clearwater Way #3404 ,Lexington
1070	360 SOLUTIONS, LLC	2114 Austin Avenue ,Waco
1073	360 SYSTEMS	3281 Grande Vista Drive ,Newbury Park
1074	360 TECHNOLOGIES INC	15401 Debba Dr ,Lakeway
1075	360 TENTS, LLC	900 Industrial Park Road ,Belton
1076	360 TRANSLATIONS INTERNATIONAL INC	334 Lincoln Ave North ,Cherry Hill
1083	360TRAINING.COM	13801 N. Mopac Expressway ,Austin
1085	361 INTERACTIVE, LLC	400 South Main St ,Springboro
1088	365 MEDIA INC	63 Bovet Rd Ste 209 ,San Mateo
1089	365 OPERATING CO. LLC	1400 65th Street ,Emeryville
1093	37 SIGNALS LLC	30 N Racine Ave Ste 200 ,Chicago
1098	377 GREENWICH OPERATING LLC	377 Greenwich Street ,New York
1099	377 OMEGA, INC.	9701 Overlea Drive ,Rockville
1100	38 DEGREES NORTH LATITUDE BUILDERS, INC.	40 Belvedere St Suite 1 ,San Rafael
1104	380180-01 PRIORITY PRODUCTION SERVICES, LLC	15 West 39th Street ,New York
1109	38TH STREET PHARMACY INC.	711 W. 38th St. ,Austin
1111	3900 TUNLAW COOP INC	5250 Cherokee Avenue ,Alexandria
1112	3924 BINGHAM HILL RD INC	3924 Bingham Hill Rd ,Ft Collins
1114	3A COMPOSITES HOLDING INC.	3480 Taylorsville Hwy ,Statesville
1116	3ANGLES, INC.	2 Access Road ,Albany
1119	3B FILTERS INC	4642 W 92nd ,Oak Lawn
1122	3B, INC.	120 Corporate Dr ,Danville
1126	3BRIDGE SOLUTIONS, LLC	920 Second Ave. S. ,Minneapolis
1127	3BS OF KC, LLC DBA KRUEGER & JAMES INSURANCE AGENCY	1126 Swift ,North Kansas City
1129	3C EXAMINATIONS INC	2487 S Gilbert Road Ste106-501 ,Gilbert
1130	3C INC.	194 Warburton Avenue ,Hawthorne
1131	3C INSIGHT INC.	2856 NE 26 Street ,Fort Lauderdale
1132	3-C INSTITUTE FOR SOCIAL DEVELOPMENT, INC.	1901 N. Harrison Avenue, Suite 200 ,Cary
1133	3-C MANAGEMENT INC.	Po Box 5345 ,Kingwood
1134	3C PACKAGING, INC.	1000 Ccc Drive ,Clayton
1136	3CINTERACTIVE, LLC	750 Park Of Commerce Blvd ,Boca Raton
1139	3CSI, LLC	235 East Main Street ,Northville
1140	3D ADVANTAGE, LLC	10315 Los Alamitos Boulevard ,Los Alamitos
1141	3D ADVISORS, LLC	10314 S.E. Banyan Way ,Tequesta
1142	3D ASSET MANAGEMENT, INC	111 Founders Plaza ,East Hartford
1144	3-D BODY WORKS, INC.	300 West Boot Road ,West Chester
1145	3-D BUILDERS AND DESIGN, INC.	353 Hanamau St., Suite 1 ,Kahului
1148	3D CLONE INC	525 Breakwater Drive ,Redwood City
1149	3-D CNC, INC.	1055 5th Ave SE ,Hutchinson
1150	3-D COLLATERS, INC	2302 East Pacific ,Grand Prairie
1152	3D CONCRETE, INC.	Po Box 458 ,Battle Mountain
1153	3-D CONCRETE, INC.	103 SE 15th Ave. ,Aledo
1154	3D CONSTRUCTION SERVICES INC.	11132 Cypress Leaf Drive ,Orlando
1155	3D CONSTRUCTION, INC	496 S. Pine Street ,Burlington
1156	3D CORPORATE SOLUTIONS, LLC	601 N. 13Th Street ,Monett
1157	3-D CREATIVE SERVICES, INC.	1531-A Marietta Blvd NW ,Atlanta
1158	3D DATACOM	11365 Sunrise Gold Circle ,Rancho Cordova
1159	3D DENTAL	17853 Pierce Plaza ,Omaha
1160	3-D DENTAL, PC	203 Turnpike St. Ste. 100 ,North Andover
1161	3D DESIGN STUDIO, LLC	529 Barron ,Grayslake
1162	3D DEVELOPMENT AND HOLDINGS, LLC	6005 S. 40th St. Ste 5 ,Phoenix
1163	3D DEVELOPMENT GROUP	4549 Main Street ,Amherst
1169	3D ENGINEERING SOLUTIONS, LLC	10597 Chester Road ,Cincinnati
1170	3-D ENTERPRISES, INC.	3257 Lochness Dr. ,Lexington
1171	3-D EQUIPMENT, INC.	2229 Mercer West Middlesex ,West Middlesex
1175	3-D FIRE PROTECTION, INC.	P.O. Box 50845 ,Idaho Falls
1177	3D FLOOR COVERING INC.	1352 Colusa Ave. Suite E ,Yuba City
1178	3D HEALTH INC	1118 W Fulton Market Suite 100 ,Chicago
1180	3D HONING, INC.	1103 Glenwood ,Katy
1183	3D INDUSTRIES, INC.	228 Horizon Avenue ,Sartell
1186	3D MAGIC FACTORY LLC	16238 Hwy 620 Ste F-348 ,Austin
1187	3D MANAGEMENT LLC	5350 N 16th Street ,Phoenix
1188	3D MARINE USA INC.	12411 Donna Lane ,Houston
1189	3-D MATRIX	245 First Street, 18th Fl. ,Cambridge
1190	3D MEDICAL MANUFACTURING, INC.	1006 West 15th Street ,Riviera Beach
1191	3D METAL FABRICATION INC	1120 N Crosby Way ,Anaheim
1194	3-D OPTICAL INC.	3402 13Th Ave Sw ,Fargo
1196	3D PERCEPTION INC	12600 Challenger Pkwy Ste 155 ,Orlando
1197	3D PLASTICS, INC.	2701 E 2nd Street ,Newberg
1198	3D PRINTING AND COPY CENTER	1296 Adams Road, Suite 150 ,Bensalem
1199	3D RAPID PROTOTYPING, INC.	7201 Garden Grove Blvd., Suite A ,Garden Grove
1201	3D REPROGRAPHICS	14 Mocha Lane ,Ladera Ranch
1203	3D SECURITY INC.	1602 Mcallen ,Henderson
1207	3D STEEL BUILDING SYSTEMS, LLC	45 Pr 4592 ,Ballinger
1208	3-D STONE INC	6700 S Victor Pike ,Bloomington
1211	3-D TECHNOLOGY, INC.	1280 Barclay Blvd. ,Buffalo Grove
1214	3DCONNEXION, INC.	C/O Ipd, Inc. ,Norwalk
1217	3DI, INC	3 Pointe Drive Suite 307 ,Brea
1219	3-DIMENSIONAL SERVICES INC.	2547 Product Drive ,Rochester Hills
1220	3DM SOURCE	555 Plymouth Ave., Ne ,Grand Rapids
1223	3DMOTIF LLC	8711 Highway 6 North, Suite 240 ,Houston
1224	3DMR, INC.	1215 Norman Circle ,Arlington
1226	3DT, LLC	N114 W18850 Clinton Dr ,Germantown
1227	3DVISION TECHNOLOGIES CORP.	11500 Northlake Drive ,Cincinnati
1228	3E COMMUNICATIONS, INC.	P.O. Box 5335 ,Ocean Springs
1229	3E COMPANY ENVIRONMENTAL, ECOLOGICAL AND ENGINEERING	3207 Grey Hawk Court, Suite 200 ,Carlsbad
1230	3E CONSULTANTS, INC.	7320 Narcoossee Rd Ste A ,Orlando
1231	3E CONSULTING, INC.	621 NW 53rd Street ,Boca Raton
1232	3E NDT, LLC	300 Highway 146 N ,La Porte
1233	3EB TOURING, INC.	901 A Street ,San Rafael
1239	3FORM, INC.	2300 South 2300 West Suite B ,Salt Lake City
1240	3FX, INC.	1100 East Hector Street, Suite 215 ,Conshohocken
1241	3G AMERICAS, LLC	1750 - 112Th Avenue NE, Suite B220 ,Bellevue
1244	3G FEDERAL SOLUTIONS LLC	12801 Worldgate Drive #500 ,Herndon
1245	3G PRODUCTIONS, INC	6295 S Pearl Ste 800 ,Las Vegas
1246	3G SELLING, LLC	3764 Skyfarm Drive ,Santa Rosa
1247	3G STUDIOS, INC.	300 E. Second Street, Suite 1510 ,Reno
1252	3GHC ARCHITECTS, LLC	100 Park Ave ,Swarthmore
1253	3-GIS, LLC	350 Market Street NE, Suite C ,Decatur
1254	3GREEN, LLC	1470 Walnut St Ste 180 ,Boulder
1256	3GTMS, INC.	8 Progress Drive ,Shelton
1258	3H COMPANY, INC.	P.O. Box 278 ,Louisa
1259	3H CORPORATE SERVICES, LLC	6 Clement Ave ,Saratoga Springs
1260	3-HAB, LTD	P.O. Box 429540 ,Cincinnati
1261	3I CONSTRUCTION, LLC	1111 W. Mockingbird Lane ,Dallas
1262	3I INFOTECH, INC.	450 Raritan Center Parkway ,Edison
1266	3J AUTOMOTIVE, INC.	4501 S. Congress Ave. ,Austin
1268	3JAM INC.	107 Connor Ct. ,Burlington
1271	3K CORPORATION	1543 N. Commercial Rd Suite 5 ,Nixa
1272	3K TECHNOLOGIES, LLC	1114 Cadillac Ct ,Milpitas
1274	3KEYLOGIC LLC	1801 American Blvd E, Suite 4 ,Bloomington
1276	3KIDS, INC.	2154 Cameron Cir ,Birmingham
1280	3L&T INC.	897 Independence Ave. Suite 4B ,Mountain View
1281	3LD, INC.	13423 Blanco Road ,San Antonio
1286	3M COMPANY	3M Center 224-2W-15 ,St. Paul
1293	3MARKETEERS ADVERTISING, INC.	6399 San Ignacio Avenue, Suite 200 ,San Jose
1297	3-MENTORS, INC.	1300 Peachtree Industrial Blvd ,Suwanee
1299	3N2 LLC	111 Atlantic Annex Point #1 ,Maitland
1301	3NINE USA, INC.	28730 South River Rd. ,Catoosa
1302	3NORTH SHARED SERVICES	201 W 7th St ,Richmond
1303	3NSOLUTIONS, INC.	209 Lady Bug Way ,Edgewater
1304	3P INC.	3004 Estate Altona ,St. Thomas
1305	3P INDUSTRIES, LLC	11942 Laney Road ,Tyler
1306	3P PROCESSING, INC.	1702 South Knight St ,Wichita
1307	3P TECHNOLOGY STAFFING, LLC	One Glenlake Parkway Ste 1000 ,Atlanta
1310	3PILLAR GLOBAL, INC.	3975 Fair Ridge Dr Ste 200 South ,Fairfax
1311	3PL SOLUTIONS, LLC	P. O. Box 81805 ,Wellesley
1313	3POINT MACHINE, INC.	26290 W. Eight Mile Road ,Southfield
1315	3POUND HEALTH LLC	235 Harrison St ,Syracuse
1316	3PSC LLC	One Commercial Place, 20th Floor ,Norfolk
1317	3Q DIGITAL, LLC	1710 S Amphlett Boulevard ,San Mateo
1318	3QC INC	193 Blue Ravine Road Suite 190 ,Folsom
1320	3R PARTNERS INC	1223 Wilshire Blvd # 821 ,Santa Monica
1321	3R PRODUCTS & SERVICES, LLC	1970 Midwest Boulevard ,Indianapolis
1322	3R RV SERVICE CENTER LLC	7819 Highway 47 So Po Box 78 ,Union
1323	3RD ANGLE TECHNOLOGIES INC	800 Westchester Avenue N641 ,Rye Brook
1324	3RD EDGE COMMUNICATIONS INC.	162 Newark Avenue, 3rd Flr. ,Jersey City
1325	3RD FED BANK	3 Penns Trl, Ste 200 ,Newtown
1327	3RD GENERATION, INC.	Po Box 68026 ,Anaheim
1334	3-S ASSOCIATES, LLC	470 S Pearl Street ,Canandaigua
1335	3S CAR WASH	15608 S 70th Ct ,Orland Park
1337	3S GROUP, INC.	125 Church Street NE, Suite 204 ,Vienna
1338	3S INCORPORATED	8686 Southwest Parkway ,Harrison
1339	3S NETWORK, INC.	30398 Esperanza ,Rancho Santa Margarita
1340	3SAE TECHNOLOGIES, INC.	318 Seaboard Lane, Suite 212 ,Franklin
1341	3SAGE CONSULTING, LLC	103 Millie Way ,Mary Esther
1343	3SG CORPORATION	344 Cramer Creek Ct ,Dublin
1344	3SHAPE, INC.	10 Independence Blvd ,Warren
1345	3SHARP LLC	14700 NE 95th St Ste 210 ,Redmond
1346	3SI SECURITY SYSTEMS, INC.	486 Thomas Jones Way ,Exton
1347	3SL, INC.	530B Discovery Dr NW ,Huntsville
1348	3STRANDS, INC.	1336 Methodist Park Rd. ,West Columbia
1349	3-STRANDS, INC.	P.O. Box 53 ,Mifflinville
1351	3T & ASSOCIATES, INC.	16720 Chestnut St Ste D ,City Of Industry
1354	3TECH CORPORATION	2828 W Parker Road ,Plano
1355	3TIER, INC.	2001 Sixth Avenue, Suite 2100 ,Seattle
1356	3U TECHNOLOGIES, LLC	11681 Leonidas Horton Road ,Conroe
1358	3URLINGAME ORTHOPEDICS & SPORTS MEDICINE ASSOCIATES, INC.	1720 El Camino Real #116 ,Burlingame
1360	3V INC.	888 Wood Stock Street ,Georgetown
1361	3V SOLUTIONS, LLC	1888 Main Street, Ste C 296 ,Madison
1362	3VR SECURITY, INC.	475 Brannan Street ,San Francisco
1363	3W ENTERPRISES INC	4496 Mahoning Ave No 274 ,Youngstown
1365	3WIRE GROUP INC.	101 Broadway St. W. Suite 300 ,Osseo
1366	3XDATA CORPORATION	329 W. 18th St. ,Chicago
1369	3ZERO3 MOTORSPORTS, INC	5000 Robb Street, Bldg 1A ,Wheat Ridge
1374	4 AMIGOS INC	4632 Bloomberg Lane ,Inver Grove Heights
1375	4 ANGELS DAY CARE, INC	245 Simonson Ave ,Staten Island
1376	4 B FARMS, INC.	15234 Butsch Lane, Ne ,Mt. Angel
1379	4 BEAUTY AESTHETICS INSTITUTE	2310 South Dixie Hwy ,Miami
1380	4 BRIDGES, LLC	7316 New Lagrange Rd ,Louisville
1381	4 BUCKS MEDIA, INC.	3835R East Thousand Oaks Blvd., Sui ,Westlake Village
1384	4 CAST INC	420 Lexington Ave Rm 2147 ,New York
1385	4 COMM, INC.	40-4 Burt Drive ,Deer Park
1388	4 CREEKS INC	Po Box 7593 ,Visalia
1393	4 FINI, INC.	1000 Corporate Pointe, Suite 100 ,Culver City
1395	4 GUYS INC	Po Box 90 ,Meyersdale
1397	4 HEROS LLC	2634 E Rawhide St ,Gilbert
1398	4 IMPRINT, INC.	101 Commerce Street ,Oshkosh
1399	4 IS ENTERPRISES, INC.	255 Old East Lake Rd. ,Tarpon Springs
1401	4 JET SERVICE INC	9891 Montgomery Rd ,Cincinnati
1403	4 KIDHELP, INC.	6513 Frank Road, N.W. ,North Canton
1404	4 KIDS CHILD CARE LEARNING CENTER, INC.	5580 Hilltop Lane ,Libertyville
1410	4 M, INC.	10878 Pond Ridge Drive ,Fort Myers
1413	4 PAWS ANIMAL HOSPITAL	184 Rte 9 ,Englishtown
1414	4 PAWS COMMUNITY CENTER, INC.	16245 West 13 Mile Road ,Southfield
1416	4 PROFIT, LLC	64 Bouton Rd. ,South Salem
1417	4 PS PAYROLL SERVICES, LLC	1732 Crooks Road ,Troy
1423	4 SEASONS FULL SERVICE LAWN CA	1539 N 8th St ,Manitowoc
1424	4 SEASONS HEATING & AIR	132 West Gate Drive ,West End
1426	4 SEASONS PROPERTY SERVICES, INC.	3700 Adams Street ,Lincoln
1427	4 SEASONS TRAVEL, INC.	Po Box 16638 ,San Juan
1431	4 SIZZLE INC	5717 E Thomas Rd Ste 4 ,Scottsdale
1433	4 STAFFING INC	2829 Blue Springs Place ,Wesley Chapel
1439	4 THE BOYS, INC.	698 N. 1280 E. ,American Fork
1442	4 WAY LOGISTICS INC.	2303 Camino Ramon, Suite 102 ,San Ramon
1444	4 X 1 IMPORTS, INC.	5873 Day Road ,Cincinnati
1446	4 YOUR EYES, LLC	P.O. Box 11167 ,New Orleans
1451	400 CAPITAL MANAGEMENT, LLC	510 Madison Avenue ,Nyc
1452	400 WEST 14TH INC.	400 West 14th Street ,New York
1456	401 GROUP, LLC	401 North 2nd Street ,Harrisburg
1458	401 K SOLUTIONS, INC.	1000 Shelard Parkway ,Minneapolis
1460	401 M, INC.	10820 Jennifer Marie Place ,Fairfax Station
1464	401K ADVISORS, LTD.	111 Bulifants Blvd, Suite D ,Williamsburg
1465	401K FREEDOM, INC.	119 Elaine Drive ,Oceanside
1466	401K MANAGEMENT GROUP, INC.	1851 E. 1st Street, Suite 165 ,Santa Ana
1471	401K GENERATION INC	620 Denning Dr 110 ,Winter Park
1472	401K LATTE COMPANY	10543 165th Street West ,Lakeville
1473	401K PLUS, INC.	5840 W Interstate 20 ,Arlington
1481	403 LABS, LLC	17145J W. Bluemound Road, Suite 200 ,Brookfield
1484	405 MOTORS	6430 240th Street Se ,Woodinville
1485	406 MANAGEMENT, LLC	1415 South Main Street ,Salt Lake City
1486	406 VENTURES MANAGEMENT LLC	470 Atlantic Avenue ,Boston
1489	40HRS, INC.	1816 Tully Road ,San Jose
1490	41 PARK DENTAL PC	41 Park Ave ,New York
1491	41 WEST REALTY, INC.	7535 Treeline Drive ,Naples
1498	413 INC.	970 Romans Rd ,Corona
1499	413 SERVICES, INC.	21540 Provincial Blvd. ,Katy
1501	414100-SHARY, INC.	1750 K Street, NW ,Washington
1504	41ST PARAMETER, INC.	17851 N. 85th Street, Suite 250 ,Scottsdale
1505	42 DRAFT DESIGNS	1554 Millersville Rd. ,Millersville
1506	42 EQUITY PARTNERS, LLC	1140 Avenue Of The America ,New York
1509	42 WEST LLC	220 W. 42nd Street ,New York
1510	42, INC.	2039 Shattuck Ave Suite 500 ,Berkeley
1513	427 DESIGN, LLC	190 N. Union Street ,Akron
1521	434 ANIMAL HOSPITAL	212 E. State Road 434 ,Longwood
1525	44 BLUE PRODUCTIONS, INC.	4040 Vineland Ave, Ste 105 ,Studio City
1526	44 BUSINESS CAPITAL	1787 Sentry Parkway West ,Blue Bell
1528	44 NORTH FINANCIAL PARTNERS, LLC	2 Cotton Street - Suite 200 ,Portland
1529	440 ENTERTAINMENT, INC.	9340 W. Flamingo Road ,Las Vegas
1530	440 MANAGEMENT, LLC	432 State Street ,Schenectady
1534	44TH STREET CHIROPRACTIC OFFICES	15 West 44th Street 8th Floor ,New York
1535	44TH STREET DENTAL	3925 West 44th Street ,Edina
1536	45 BROADWAY, LLC	45 Broadway, 25th Floor ,New York
1540	452 FIFTH OWNERS LLC	452 Fifth Ave. ,New York
1542	453040-01 CALDWELL GROUP LLC	4000 Tower Road ,Louisville
1545	454 LIFE SCIENCES CORPORATION	20 Commercial Street ,Branford
1551	463 COMMUNICATIONS, LLC	1150 17th Street NW ,Washington
1554	47 COMMUNICATIONS, INC.	C/O 1875 Century Park East ,Los Angeles
1556	47TH ST BUSINESS IMPROVEMENT DISTRICT	580 5th Avenue Suite 323 ,New York
1557	48 HR BOOKS INC.	2249 14th Street Sw ,Akron
1558	480 BIOMEDICAL, INC.	480 Arsenal Street ,Watertown
1559	480-481 AMERICAN POSTAL WORKERS UNION	810 Livernois St ,Ferndale
1562	49 NORTH LLC	420 33rd Avenue ,San Francisco
1563	490, INC	37 West 57th Street 5th Floor ,New York
1564	494 FREEWAY 66 SERVICE INC	9209 Lyndale Ave S ,Bloomington
1566	495 CHRYSLER JEEP DODGE	732 Rogers St. ,Lowell
1567	495 EXPRESS FOODS INC	84 Crossways Dr East ,Bohemia
1577	4BOYZ INC.	22821 Rifle Ridge Road ,Elkhorn
1578	4C FOODS CORP.	580 Fountain Ave. ,Brooklyn
1580	4C MEDICAL GROUP PLC	11000 N. Scottsdale Road, Suite 120 ,Scottsdale
1581	4C PARTNERS, LLC	501 Third Street NW ,Washington
1582	4C-COMMUNITY COORDINATED CHILD CARE	1805 N Martin Luther King Dr ,Milwaukee
1583	4CITE MARKETING, LLC	540 Broadway ,Albany
1584	4CLICKS-SOLUTIONS, LLC	P.O. Box 76884 ,Colorado Springs
1585	4COM, INC.	1660 Highway 100 South ,Minneapolis
1594	4D SYSTEMS, LLC	2285 N Opdyke ,Auburn Hills
1595	4D TECHNOLOGY CORPORATION	3280 E. Hemisphere Loop St.146 ,Tucson
1596	4D, INC.	3031 Tisch Way, Suite 900 ,San Jose
1599	4DNY	90 John Street Suite 703 ,New York
1601	4DSP LLC	1210 San Antonio St. #801 ,Austin
1606	4FREEQUOTES.COM,INC.	1635 Harris Court ,Erie
1607	4FRONT ENGINEERED SOLUTIONS, INC.	1612 Hutton Dr., Ste 140 ,Carrollton
1610	4G DEVELOPMENT & CONSULTING, INC.	27002 Red Maple Street ,Murrieta
1612	4G ENTERPRISES, INC.	6890 S. Salida Street ,Foxfield
1613	4G PLUMBING & HEATING, INC.	Po Box 17140 ,Missoula
1614	4G PROJECT PEOPLE, INC.	101 E. Park Blvd, Ste. 600 ,Plano
1615	4G UNWIRED, INC.	325 Fifth Avenue ,Indialantic
1616	4G WIRELESS, INC.	8871 Research Drive ,Irvine
1617	4GS CORPORATION	1128 Silveridge ,Conroe
1618	4HM GROUP, INC.	76 Chalet Circle ,Dawsonville
1619	4I CONSULTING	540 Lake Cook Road ,Deerfield
1620	4IMPRINT, INC.	101 Commerce Street ,Oshkosh
1621	4INFO INC.	155 Bovet Road ,San Mateo
1632	4-L ENGINEERING COMPANY, INC.	420 N Dorothy Drive ,Richardson
1633	4LEAF, INC.	2110 Rheem Dr Ste A ,Pleasanton
1634	4LICENSING CORPORATION	767 Third Avenue ,New York
1635	4LIFE RESEARCH	9850 South 300 West ,Sandy
1639	4-M COMPANY, INC	15660 Nelson Pl ,Tukwila
1641	4M FRUIT DISTRIBUTORS INC	34 Market Street ,Everett
1643	4M HOLDINGS, INC.	43346 Earls Court ,Ashburn
1644	4M INDUSTRIES, INC.	35300 Glendale Street ,Livonia
1645	4M METALS, INC.	201 Red Oaks Way ,Ridgeland
1651	4M, INC.	5700 Darrow Road, Suite 106 ,Hudson
1652	4MATIX, INC.	2500 E Foothill Blvd Ste 200A ,Pasadena
1654	4OVER, INC.	5900 San Fernando Road, Unit B ,Glendale
1655	4PATH, LTD.	9050 West 81st Street ,Justice
1658	4R SYSTEMS, INC.	801 Cassatt Rd Ste 202 ,Berwyn
1661	4-S SERVICES, INC.	1037 Cheaney Road ,Valley View
1662	4-SIGHT MARKETING INC	Po Box 2606 ,Oldsmar
1663	4SIGHT SUPPLY CHAIN GROUP LLC	140 East Ridgewood Ave ,Paramus
1664	4SIGHT TECHNOLOGIES, INC.	17200 No. Perimeter Drive,Suite 202 ,Scottsdale
1669	4-STAR HOSE & SUPPLY, INC.	10704 Composite Drive ,Dallas
1671	4-STAR TRAILERS, INC.	10000 N.W. 10th ,Oklahoma City
1672	4STRUCTURES.COM LLC	43 Harbor Drive Apt 309 ,Stamford
1674	4TELECOMHELP.COM, INC.	882 S. Matlack St, Suite 109 ,West Chester
1675	4TH AND MADISON DENTAL	1001 4th Avenue Safeco Plaza ,Seattle
1676	4TH DAY HOLDINGS, INC.	3104 Eagle Crest Rd ,Bloomington
1677	4TH DIMENSION DESIGN, INC.	817 Venture Court ,Waukesha
1678	4TH DIMENSION PROMOTIONAL PRODUCTS, INC.	5640 W. Maple #203 ,West Bloomfield
1680	4TH MERIDIAN FARM, INC.	35 Knox Road 2550 N ,Rio
1683	4TH WAVE TECHNOLOGIES, LLC	4230 North Buffalo Road ,Orchard Park
1684	4THOUGHT INC	2002 Clipper Park Rd # S-301 ,Baltimore
1686	4TRUST MORTGAGE, INC.	4200 South Hulen, Suite 410 ,Fort Worth
1690	4U2U BRANDS LLC	20 N.20th St - A ,Richmond
1694	4W SOLUTIONS INC	5330 Griggs Ste Sa116 ,Houston
1695	4WARD SCIENCES, INC.	12707 Superior Hollow Road ,Valley Center
1696	4WAVE, INC.	22660 Executive Dr Ste 101 ,Sterling
1699	4X FORENSIC ENGINEERING CO.	5262 Oceanus Drive ,Huntington Beach
1700	4X4 GROUPBUY.COM	1125 Center St. ,Auburn
1704	5 ALARM FIRE AND SAFETY EQUIPMENT, LLC	350 Austin Circle ,Delafield
1705	5 ALARM, LLC	9472 Winding Hill Way ,Lane Tree
1708	5 CORNERS TRUCK & AUTO, INC.	1266 Washington Avenue ,Cedarburg
1710	5 DAY BUSINESS FORMS MFG., INC.	2910 East La Cresta Avenue ,Anaheim
1714	5 ELEMENTS DRILLING, LLC	12650 Crossroads Park Drive ,Houston
1722	5 PENN PLAZA, LLC	5 Penn Plaza, 18th Floor ,New York
1724	5 POINT FINANCIAL GROUP, INC.	11830 NE 195th St. ,Bothell
1725	5 POINTS ANIMAL HOSPITAL	1103 Woodland Street ,Nashville
1726	5 PRIME, INC.	19300 Germantown ,Germatnwon
1727	5 PS, LLC	2140 South 7th Ave, Ste 100 ,Phoenix
1728	5 SONS LODGE, INC.	4442 Birch Forest Road ,Orr
1729	5 SPEED RUNNING, INC.	17301 Mayerling St. ,Granada Hills
1730	5 STAR ANIMAL HOSPITAL	14731 E. Penwood Pl ,Aurora
1732	5 STAR REFRIGERATION & AIR CONDITIONING, INC.	23091 Cortez Boulevard ,Brooksville
1733	5 STAR SERVICES OF VIRGINIA IN	557 South Birdneck Ste 109 ,Virginia Beach
1736	5 STAR TESTING, INC.	15801 NE 182nd Ave. ,Brush Prairie
1739	5 TATE, INC.	278 George Mitchell Parkway ,Bridgeport
1740	5 TOWN JEWISH TIMES, INC.	P.O. Box 690 ,Lawrence
1742	5.11, INC.	4300 Spyres Way ,Modesto
1743	50 EGGS, INC.	4770 Biscayne Blvd., Suite 1280 ,Miami
1747	50 STATE SECURITY SERVICE, INC.	915 NE 125th Street ,North Miami
1749	500 AUTOMOTIVE GROUP LLC	1700 E State Road 163 ,Clinton
1750	500 FESTIVAL INC.	500 Festival Bldg Ste 500 ,Indianapolis
1751	500 FILMS & MEDIA INC	12220 Stoney Creek Road ,Potomac
1752	5000 BROADWAY PRODUCTIONS, INC.	895 Broadway ,New York
1753	501 COMMONS	510 2nd Ave W ,Seattle
1754	501C INSURANCE PROGRAMS, INC.	10800 N. Wolfe Rd, Sw3, Suite 250 ,Cupertino
1755	501C TECH, INC	2001 S. Street Northwest ,Washington
1757	50-210 EMS INC.	52-Greenleaf Road ,Angier
1760	505 GAMES US, INC.	4360 Park Terrace Drive, Suite 140 ,Westlake Village
1763	509 ENTERPRISES INCORPORATED	Po Box 363 ,Wapato
1766	50TH STATE MANAGEMENT CORPORATION	Po Box 1247 ,Kailua
1767	50TH STATE POULTRY, INC.	P.O. Box 29490 ,Honolulu
1780	51ST STREET CHIROPRACTIC	5120 J Street, Suite C ,Sacramento
1783	52 LIMITED	330 SE Mlk Blvd. Suite 1B ,Portland
1788	526 SALON, INC	526 Selby Avenue ,St Paul
1789	5280 COMPUTERS, INC.	4380 S. Syracuse Street, Suite 301 ,Denver
1790	5280 DIGITAL,INC.	7032 S Revere Pkwy Ste 320 ,Centennial
1791	5280 DYNAMIC SOLUTIONS, LLC	8740 Lucent Blvd ,Highlands Ranch
1792	5280 ELEVATOR, INC.	7275 South Revere Parkway, #802 ,Centennial
1801	52ND STREET PROJECT INC	789 10th Ave ,New York
1803	530 MEDIA LAB, INC.	115 W. 4th Street Unit C-1 ,Long Beach
1806	539 CONSULTING INC.	1304 Shaw Place ,Seaford
1811	55 DEGREES	1210 Church Street ,St. Helena
1812	55 MINUTES INC.	741 Cerrito Street ,Albany
1814	55 PLACES, LLC	1525 West Homer Street ,Chicago
1816	550 CONSTRUCTION LLC	3 Office Park Circle, Suite 318 ,Mountain Brook
1819	5500TAX GROUP, INC.	101 Locke Drive ,Mauldin
1829	57 STARS LLC	616 H Street NW Suite 450 ,Washington
1830	5704 MOSHOLU AVENUE RESTAURANT	Corp James ,Bronx
1842	5AM SOLUTIONS, INC.	11710 Plaza America Drive ,Reston
1843	5AM VENTURE MANAGEMENT, LLC	2200 Sand Hill Rd, Suite 100 ,Menlo Park
1844	5B MANAGEMENT LLC	Po Box 1065 ,Sun Valley
1845	5BS, INCORPORATED	1000 5 Bs Drive ,Zanesville
1846	5D INNOVATIONS	150 Lucius Gordon Drive ,West Henrietta
1847	5-D SYSTEMS, INC.	1 Chisholm Trail, Suite 3200 ,Round Rock
1848	5F MECHANICAL	15705 Brenda Street ,Austin
1849	5G STUDIO COLLABORATIVE LLC	800 Jackson Street ,Dallas
1850	5H SHEET METAL FABRICATION, INC.	1826 W. Business Center Dr. ,Orange
1851	5IFTYONE AT TRADAN HEIGHTS APA	12150 E. 96th St. N. Ste #200 ,Owasso
1852	5J OILFIELD SERVICES LLC	4090 N Us Hwy 79 ,Palestine
1856	5K, LLC	104 South 6th Ave. ,Yakima
1861	5LINX ENTERPRISES, INC.	275 Kenneth Drive ,Rochester
1863	5ME, LLC	4270 Ivy Pointe Blvd Suite100 ,Cincinnati
1864	5N PLUS CORP	6474 Blanchars Crossing ,De Forest
1866	5NINES DATA, LLC	222 W Washington Ave, Suite 360 ,Madison
1867	5PS LLC	5176 S Lewiston Way ,Centennial
1868	5S COMPONENTS, INC.	630 Fifth Avenue ,East Mckeesport
1870	5-STAR FRAC SUPPORT SERVICES, LLC	37 Copper Valley Rd ,Creekside
1871	5T WEALTH MANAGEMENT LLC	595 Coombs Street ,Napa
1872	5TH AVE. DERMATOLOGY SURGERY AND LASER CENTER	1049 5th Avenue, Suite 2B ,New York
1873	5TH AVENUE INSURANCE INC	Po Box 600550 ,San Diego
1874	5TH CELL MEDIA LLC	1120 112Th Avenue Ne ,Bellevue
1875	5TH QUADRANT	201 Main Street Ste 600 ,Fort Worth
1879	5X TECHNOLOGY, LLC	4565 Ruffner Street Ste 208 ,San Diego
1883	6 DAY DENTAL & ORTHODONTICS	120 S. Denton Tap Rd. ,Coppell
1885	60 PLUS ASSOCIATION	515 King St Ste 315 ,Alexandria
1886	600 ATLANTIC FEDERAL CU	600 Atlantic Ave ,Boston
1888	600 LB GORILLAS INC	Po Box 343 ,Duxbury
1893	609 CONSULTING, LLC	2155 N Main St. ,Sheridan
1894	61ST STREET SERVICE CORPORATION	250 W. 57th Street ,New York
1896	620 CORPORATION	620 East Smith Road ,Medina
1899	638 BREWING	638 West 4th St ,Winston-Salem
1900	63RD STREET MULTICULTURAL ACAD	1141 N 63rd Street ,Philadelphia
1903	644 FIGUEROA RESTAURANT PART	644 South Figueroa ,Los Angeles
1907	660 CORPORATION	One Silber Way ,Boston
1912	6800 CAPITAL, LLC	One Palmer Square, Suite 530 ,Princeton
1914	Joes Italian Deli	685 E 187th St ,Bronx
1915	68WEST ENGINEERING, INC.	1860 Blake Street Suite 200 ,Denver
1917	6AM MARKETING, INC.	330 S Whitney Way Suite 300 ,Madison
1918	6CONNECT INC	266 Grand Ave Suite 250 ,Oakland
1919	6E TECHNOLOGIES, LLC	11001 W 120th Ave Ste 400 ,Broomfield
1920	6FUSION USA, INC.	1730 Varsity Drive ,Raleigh
1921	6H CONSULTING LLC	611 20th Avenue E ,Seattle
1923	6JS LIMITED	767 Powers St ,Eugene
1927	6STRINGMEDIA INC	400 Continental Blvd Ste 600 ,El Segundo
1928	6TH AVENUE ANIMAL CLINIC IN PARK SLOPE, P.C.	207 Sixth Avenue ,Brooklyn
1931	6TH STREET ADVISORS, LLC	7124 Stone Drive Ste B ,Daphne
1933	6WIND USA INC	2725 Riverside Blvd Ste 200 ,Sacramento
1936	7 CITY LEARNING, INC.	55 Broad Street ,New York
1937	7 CONSTRUCTION INC	1544 Nash Rd ,North Tonawanda
1938	7 CORE, INC.	21002 Pricewood Manor Ct ,Cypress
1939	7 DEGREES OF CHANGE FOUNDATION	4020 Meeting Way St ,High Point
1940	7 DELTA INC.	10490 Little Patuxent Pkwy ,Columbia
1941	7 DIAS TIRE CO. INC.	1325 S. Western Ave. ,Los Angeles
1944	7 LAYERS INC	15 Musik ,Irvine
1945	7 MILE ADVISORS LLC	201 S. College Street ,Charlotte
1946	7 MILE FAIR, INC.	P.O. Box 7 ,Caledonia
1947	7 MILE PUBLISHING & CREATIVE LLC	355 24th Street ,Avalon
1948	7 MILE SOLUTIONS INC.	7540 Caldwell Avenue ,Niles
1949	7 PEAKS PAVING, LLC	Po Box 2085 ,Bend
1951	7 SPOT GROUP LLC	14017 Riverside Ct ,Livonia
1952	7.30, INC. DBA WESTERN PIPEWAY	Po Box 2098 ,Breckenridge
1957	71 CONSTRUCTION	P.O. Box 4600 ,Casper
1960	720 STRATEGIES, LLC	1220 19th St. NW ,Washington
1963	721 LOGISTICS LLC	300 Stevens Dr Ste 105 ,Lester
1964	726 GROUP LLC	1672 Moorings Dr ,Reston
1965	72ANDSUNNY PARTNERS, LLC	6300 Arizona Circle ,Los Angeles
1967	72ND STREET MEDICAL ASSOCIATES P.C.	310 E 72nd St ,New York
1970	740 SOUND DESIGN, LLC	3471 Meier Street ,Los Angeles
1975	755 RESTAURANT CORPORATION	5101 Buffington Rd Ste 3466B ,Atlanta
1980	77 MAIN STREET PROPERTIES, LLC	77 Main Street ,Andover
1987	795 PHOTO, INC.	5760 West Adams Blvd. ,Los Angeles
1989	7AC TECHNOLOGIES, INC.	100 Cummings Center Ste 265 G ,Beverly
1992	7-D MARKETING, INC.	345 N. State Road ,Medina
1994	7-ELEVEN	1722 Routh Street ,Dallas
1995	7-ELEVEN STORES OF OKLAHOMA	2021 S. Macarthur Blvd. ,Oklahoma City
1997	7G NETWORK INC	4906 Via Cupertino ,Camarillo
1998	7GIFTS, LLC	3 Raven Rock Ct ,Richmond
2001	7TH ART REAL ESTATE LLC	120 Wooster Street 6th Fl ,New York
2005	8 LINE SUPPLY, LLC	1755 E Matthew Drive ,De Pere
2006	8 OVER 8 LLC	2800 Post Oak Blvd, Suite 4100 ,Houston
2007	8 VINI, INC.	2140 W. Winton Avenue ,Hayward
2008	8 X 8, INC.	2125 ONel Drive ,San Jose
2010	80/20, INC.	1701 South 400 East ,Columbia City
2014	800 RESPONSE MARKETING, LLC	200 Church Street ,Burlington
2015	800-JR CIGAR, INC.	301 Route 10 East ,Whippany
2019	808 INC	5712 Val Verde St Ste 150 ,Houston
2020	80STEES.COM, INC.	230 Westec Drive ,Mount Pleasant
2026	8118 MUSIC INC.	324 W. 43rd Street #3A ,New York
2030	82 WOLVERINE DISTRIBUTING INC.	12379 Sage View Road ,Poway
2032	826 VALENCIA	826 Valencia St ,San Francisco
2038	84 LUMBER CO.	1019 Route 519 ,Eighty Four
2040	850 PROPERTIES.COM, LLC	2050 W. County Highway 30A ,Santa Rosa Beach
2047	8760 INC.	250 West 26th Street ,New York
2049	877 SPIRITS, INC.	99 Powerhouse Road ,Roslyn Heights
2051	87AM HOLDINGS LLC	61 Broadway ,New York
2052	88 BOARD	200 St. Paul Street, Suite 2420 ,Baltimore
2056	88 TEES HAWAII, INC.	2168 Kalakaua Avenue ,Honolulu
2060	888 DIGITAL, INC.	1416 East Linden Ave ,Linden
2061	888 EXTRAMONEY.COM, LLC	8910 University Center Lane Ste 520 ,San Diego
2065	89 DEGREES, INC.	25 Burlington Mall Road, Suite 610 ,Burlington
2068	899 CHARLESTON DBA MOLDAW FAMILY RESIDENCES	899 East Charleston ,Palo Alto
2070	8D WORLD	500 West Cummings Park, #6400 ,Woburn
2073	8MINUTENERGY RENEWABLES	5455 Wilshire Blvd Ste 2010 ,Los Angeles
2075	8THBRIDGE INC	110 N 5th St ,Minneapolis
2078	9 LINE, LLC	500 N Westshore Blvd. ,Tampa
2080	9 SQUARED, INC.	8200 NW 41st Street ,Doral
2082	9.8 GROUP INC.	55 Broad Street ,New York
2083	90 DEGREES WEST	1634 Park Avenue ,Saint Louis
2086	90 MINUTE COURIER INC	6883 NE 3rd Ave ,Miami
2091	90210 SURGERY MEDICAL CENTER	450 N Roxbury ,Beverly Hills
2093	908 DEVICES, INC.	27 Drydock Ave 8th Floor ,Boston
2097	911 DATAMASTER	7500 College Blvd Ste 500 ,Overland Park
2098	911 MAPPING SYSTEMS INC	11 Spiral Dr Ste 18 ,Florence
2099	911 SAFETY EQUIPMENT, LLC	329 E. Main Street ,Norristown
2105	9200 TRANSIT RD. INC. DBA CARUBBA COLLISION	9200 Transit Rd ,East Amherst
2108	93 FINANCIAL GROUP	600 Unicorn Park Dr ,Woburn
2111	932 HOPE ST. SALON LLC	932 Hope St ,Stamford
2112	936493-01 ST. ANDREWS GOLF & COUNTRY CLUB	2241 Route 59 ,West Chicago
2116	95 PERCENT SHARE MARKETING, INC.	4281 Lange Road ,St Henry
2117	95 WEST BROADWAY REALTY, LLC DBA COSMOPOLITAN HOTEL, LLC	1271 Ave Of The Americas, Floor 39 ,New York
2118	95TH STREET DENTAL	1373 Forest Park Circle Ste. 103 ,Lafayette
2119	96 AGRI SALES, INC.	10400 N 247th St W ,Mt Hope
2125	98 BAR-B-QUE	Address 5008 Us Hwy 98 W Unit 1 ,Santa Rosa Beach
2128	985 COLLISION CENTER LLC	4619 Smithson Blvd ,Oakwood
2129	99 CENTS ONLY STORES	4000 Union Pacific Ave ,City Of Commerce
2132	99999 CONSULTING LLC	8280 Willow Oaks Corporate Dr ,Fairfax
2133	99DESIGNS INC	447 Battery Street, 3rd Floor ,San Francisco
2134	9GAUGE PARTNERS LLC	815 A Brazos St ,Austin
2135	9MMEDIA, LLC	627 Broadway, 9th Floor ,New York
2139	9WOOD, INC.	999 South A Street ,Springfield
2142	A - Z COMMUNICATIONS	161 Lincoln Avenue ,Lexington
2143	A & A ANIMAL HOSPITAL, P.C.	20 Depot Square ,Tuckahoe
2148	A & A COMMUNICATION RESOURCES, INC.	9678 Cincinnati-Columbus Rd. ,Cincinnati
2151	A & A CONSTRUCTION SERVICES, INC.	8132 Tall Timber Drive ,Gainesville
2152	A & A CONSTRUCTION, INC.	Po Box 995 ,Minden
2156	A & A DECORATIVE DESIGN & SUPPLIES INC	1000 Mt Rock Road ,Shippensburg
2159	A & A ELECTRIC, INC	4794 Palmer ,Dearborn
2160	A & A ELECTRIC, INC.	4794 Palmer ,Dearborn
2162	A & A EXPRESS	1015 N. 9th Avenue ,Brandon
2163	A & A EYE ASSOCIATES PC	1470 Martin Street ,State College
2164	A & A FABRICATION AND POLISHIN	12031 Philadelphia St ,Whittier
2166	A & A FENCE COMPANY, INC.	579 E. Lincoln Street ,Banning
2168	A & A GLOBAL INDUSTRIES INC.	17 Stenersen Lane ,Cockeysville
2169	A & A GLOVE AND SAFETY COMPANY	20 Richey Avenue ,Collingswood
2175	A & A HOMECARE, INC.	211 N. Hwy 71 ,Wewahitchka
2176	A & A INDUSTRIAL PIPE	6 Gardner Road ,Fairfield
2177	A & A JEWELRY TOOLS AND FINDINGS	650 S. Hill Street, M-20 ,Los Angeles
2178	A & A LEGAL SERVICE, INC.	1541 Bayshore Hwy ,Burlingame
2179	A & A LTD.	Union Square Office Centre ,New Bedford
2180	A & A LUMBER SUPPLY COMPANY	P.O. Box 6 ,Hockessin
2181	A & A MACHINE & FABRICATION, LLC	3101 Texas Avenue ,La Marque
2182	A & A MACHINE SHOP	Po Box 13195 ,Longview
2183	A & A MACHINERY MOVING INC	201 Dean Sievers Pl ,Morrisville
2184	A & A MAINTENANCE ENTERPRISE, INC.	965 Midland Ave ,Yonkers
2185	A & A MECHANICAL INC.	7318 Skylark Court ,Oklahoma City
2186	A & A MECHANICAL, INC.	1111 Ulrich Avenue ,Louisville
2187	A & A METAL PRODUCTS, INC.	2125 Bergdolt Road ,Evansville
2191	A & A PROPERTIES, INC.	8200 Greensboro Drive ,Mclean
2192	A & A QUALITY APPLIANCE, INC.	6005 E Evans Avenue ,Denver
2193	A & A READY MIXED CONCRETE, INC.	134 W Redondo Beach Bl ,Gardena
2195	A & A ROOFING COMPANY, INC.	Post Office Box 70314 ,Fairbanks
2196	A & A SAFETY, INC.	1126 Ferris Road ,Amelia
2198	A & A SR OF FREEMASONRY VALLEY OF GUTHRIE	Po Box 70 ,Guthrie
2200	A & A SUPPLY CO., INC.	2000 SW 71st Terrace ,Ft. Lauderdale
2201	A & A SURPLUS, INC.	389 Marion Ave ,Plantsville
2202	A & A TANK TRUCK CO.	Po Box 722588 ,Norman
2203	A & A TELECOM GROUP, INC	3737 Executive Center Drive ,Austin
2205	A & A TRANSFER & STORAGE, INC.	P.O. Box 2317 ,Ft. Walton Beach
2206	A & A TRANSMISSIONS, INC.	953 Broadway ,Thornwood
2207	A & A TREE EXPERTS, INC.	7081 Milford Industrial Road ,Pikesville
2208	A & A TRUCKING SERVICES INC	1376 Laurelwood Ct ,Lawrenceville
2218	A & B CARPET ONE	P.O. Box 1170 ,Kitty Hawk
2219	A & B CASTINGS, INC.	23 Cyrus Lane ,Gilford
2221	A & B CONSTRUCTION CO., INC.	5091 Wilfong Road ,Memphis
2222	A & B CONSTRUCTION, INC.	2000 5th Street ,Berkeley
2224	A & B DEBURRING CO.	525 Carr Street ,Cincinnati
2227	A & B DISTRIBUTORS, INC.	3901 Tull Avenue ,Muskogee
2228	A & B ELECTRIC CO., INC.	1020 D Street ,Meridian
2231	A & B ELECTRIC COMPANY INC	91-607 Malakole Rd ,Kapolei
2232	A & B ELECTRIC INC.	625 63rd Ave Sw ,Cedar Rapids
2233	A & B ELECTRICAL CONTRACTORS, INC.	14919 Hooper Road ,Baton Rouge
2237	A & B HEATING & AIR CONDITIONING, INC.	5632 Commercial Drive ,Burlington
2238	A & B HOME CARE SOLUTIONS, LLC	446A Blake St Fl 3 ,New Haven
2239	A & B HOME HEALTH CARE, INC.	555 Ih 35 S ,New Braunfels
2240	A & B HVAC SERVICES, INC.	26 Worlds Fair Drive ,Somerset
2241	A & B IMPROVEMENTS LTD	1612 7th Ave N ,Fargo
2242	A & B INDUSTRIAL CERAMICS, LLC	1971 Cedar Grove Road ,Leesville
2243	A & B INVESTMENTS, INC.	Po Box 4997 ,Scottsdale
2244	A & B IRON AND METAL CO., INC.	Po Box 123 ,Alpha
2245	A & B KITCHENS INC	1616 17th Street Suite 383 ,Denver
2246	A & B LUMBER COMPANY, LLC	129 Sheep Davis Road ,Pembroke
2247	A & B MACHINE AND HYDRAULICS INC.	809 Market Street ,Aberdeen
2249	A & B MACHINING, INC.	335 North Griffin Street ,Grand Haven
2250	A & B MARKETING, INC.	6500 Bowden Rd Ste 220 ,Jacksonville
2251	A & B MECHANICAL CONTRACTORS, INC.	272 West 3620 South ,Salt Lake City
2253	A & B PRECISION METALS, INC.	13715 Mount Anderson ,Reno
2254	A & B RV SALES, INC.	350 Soscol Avenue ,Napa
2255	A & B SECURITY GROUP, INC.	3201 West Sahara ,Las Vegas
2256	A & B STAINLESS VALVE & FITTIN	520 Route 513 ,Califon
2259	A & B TRUCK REPAIR, INC.	959 South 9th Street ,Modesto
2260	A & B VENDING CO INC	26 Hall Road ,Canterbury
2261	A & B WIPER SUPPLY, INC.	5601 Paschall Ave. ,Philadelphia
2266	A & C FARM SERVICE, INC.	412 Bridge Street ,Paynesville
2269	A & C INC.	6255 Webster Street ,Dayton
2271	A & C MANAGEMENT GROUP, LTD.	40 Cuttermill Road ,Great Neck
2272	A & C METALS-SAWING INC.	9170 Davenport St Ne ,Blaine
2273	A & C MOLD COMPANY, INC.	3870 Swenson Ave ,St Charles
2274	A & C PLASTIC PRODUCTS, INC.	6135 Northdale ,Houston
2280	A & CO. MANAGEMENT, INC.	702 Oberlin Rd Ste 400 ,Raleigh
2281	A & D AUTO BODY	16040 N 75th Ave ,Peoria
2283	A & D COLD STORAGE	512 Southbridge St ,Worcester
2284	A & D DISTRIBUTORS, INC.	2460 Eastside Park Drive ,Evansville
2285	A & D ELECTRIC, INC.	8507 Southwest Wakkila Terrace ,Beaverton
2289	A & D FIRE PROTECTION, INC.	11465 Woodside Avenue ,Santee
2290	A & D FISHER, INC.	2414 Hwy 121 #2207 ,Bedford
2291	A & D GLASS, INC.	1903 W. Vista Way ,Vista
2297	A & D PAINTING, INC.	2016 Tucker Industrial Road ,Tucker
2299	A & D PLASTICS, INC.	1255 South Mill Street ,Plymouth
2309	A & D TECHNICAL SUPPLY CO.	4320 S 89th St ,Omaha
2310	A & D TECHNOLOGY, INC.	4622 Runway Blvd ,Ann Arbor
2311	A & D VENDING INC.	14341 Windigo Lane ,Orlando
2313	A & E ARCHITECTS, P.C.	608 North 29th Street ,Billings
2315	A & E COMMERCIAL FLOORS INC	349 Drew Court ,Birdsboro
2316	A & E CONSTRUCTION SUPPLY, INC.	Box 337 ,Truman
2318	A & E CUSTOM MANUFACTURING TECHNOLOGIES, INC.	3150 Chrysler Rd ,Kansas City
2319	A & E DIAMONDS & GOLD INC	Rte 101A Pennichuck Sq ,Merrimack
2320	A & E ELECTRICAL COMPANY, INC.	751 Laurel Street ,San Carlos
2321	A & E ENGINEERING, INC.	P.O. Box 1367 ,Greer
2322	A & E FIRE PROTECTION INC.	280 Milton Street ,Dedham
2323	A & E FORMS, INC.	32 General Holway Road ,South Yarmouth
2324	A & E GARCIA, PA	2121 Ponce De Leon Boulevard ,Coral Gables
2325	A & E INCORPORATED	C/O 555 Main Street Suite 300 ,Racine
2326	A & E MACHINE SHOP, INC.	920 Industrial Blvd ,Lone Star
2328	A & E MANAGEMENT, INC.	375 Industrial Drive Po Box 218 ,Harrison
2329	A & E MANUFACTURING CO., INC.	2110 Hartel Street ,Levittown
2330	A & E MECHANICAL	5-7 Delaware Drive ,Salem
2331	A & E OB-GYN, P.C.	747 Montauk Highway ,West Islip
2332	A & E PLASTICS, INC.	1620 Cambridge Drive ,Elgin
2333	A & E PRINTING INC	517 King St ,Charleston
2336	A & E TAX SERVICE, INC.	610 SW Alder St., Ste 410 ,Portland
2337	A & E TIRE, INC	3855 East 52nd Avenue ,Denver
2338	A & E TOWING INC	5640 Lincoln Ave ,Cypress
2339	A & F ELECTRIC, INC.	2128 4th Ave. W. ,Williston
2341	A & F ELEVATOR, INC	620 Easy Street ,Garland
2342	A & F ENGINEERING CO. LLC	8365 Keystone Crossing Ste 201 ,Indianapolis
2343	A & F ENGINEERING GROUP, INC.	9333 Baseline, Ste 100 ,Rancho Cucamonga
2345	A & F FIRE PROTECTION COMPANY, INC.	30 East Chestnut Street ,Massapequa
2346	A & F IMPORTED PARTS, INC.	4000 Telegraph Avenue ,Oakland
2356	A & G HEALTHCARE SERVICES, LLC	5048 Tennyson Parkway ,Plano
2358	A & G MACHINE, INC.	1231 37th St, NW ,Auburn
2359	A & G PHARMACEUTICAL	9130 Red Branch Rd Ste U ,Columbia
2360	A & G PHARMACEUTICALS INC	Po Box 365 ,Clarksburg
2361	A & G REALTY PARTNERS, LLC	445 Broad Hollow Road, Ste. 410 ,Melville
2362	A & G RESEARCH, INC.	10 Paragon Avenue ,Montvale
2365	A & H ASSOCIATES, INC.	164 Quincy Shore Dr ,Quincy
2367	A & H CARTAGE, INC.	3275 Mike Collins Dr ,Eagan
2368	A & H ELECTRIC	3401 Beall Lane ,Galveston
2369	A & H ELECTRIC CO., LLC	3505 North Loop, 336 West ,Conroe
2370	A & H ELECTRIC, INC.	19705 190th Street ,Richmond
2372	A & H EQUIPMENT COMPANY, INC.	1124 Mclaughlin Run Road ,Bridgeville
2373	A & H EXPEDITING SERVICE, INC.	140 Mushroom Boulevard ,Rochester
2374	A & H FINISHING PRODUCTS, INC.	2650 W. 3rd Ave., Unit 1 ,Denver
2375	A & H INDUSTRIES, INC.	837 S. Railroad St. ,Myerstown
2376	A & H INTERMEDIARIES, LLC	1730 Plymouth Road ,Minnetonka
2377	A & H LITHOPRINT, INC.	2540 S 27th Ave ,Broadview
2382	A & H SALES, INC.	5010 Old Ellis Point ,Roswell
2383	A & H SECURITY INC	Po Box 464 ,Jenks
2389	A & H WIRE EDM INC	474 W Arrow Highway Suite K ,San Dimas
2390	A & H, INC.	Atsb, Po Box 938 ,Dubuque
2391	A & I BENEFIT PLAN ADMINISTRATORS, INC.	1220 SW Morrison Street ,Portland
2392	A & I CORPORATION	1004 8th Avenue North Extension ,Myrtle Beach
2393	A & I FASTENER & SUPPLY COMPANY, INC.	922 Houston Blvd ,South Houston
2395	A & I MARKETING, INC.	21425 - 94th Pl. S. ,Kent
2396	A & I MECHANICAL SERVICES INC	37 Commercial Street ,Freeport
2397	A & I PRODUCTS, INC.	One John Deere Place ,Moline
2401	A & I, INC.	8301 B Pulaski Highway ,Baltimore
2404	A & J ASSEMBLY INC	380 Piercy Road ,San Jose
2405	A & J AUTOMATION INC	21356 Carlo Drive ,Clinton Township
2406	A & J BOAT CO INC	840 Point Rd ,Marion
2408	A & J CIANCIULLI, INC.	105 Saw Mill River Road ,Yonkers
2409	A & J CONSTRUCTION OF CENTRAL IL, LLC	28478 Il Route 125 ,Ashland
2412	A & J DEVELOPMENT CORP	Po Box 44129 ,Madison
2419	A & J MANUFACTURING COMPANY	14831 Franklin Avenue ,Tustin
2420	A & J MECHANICAL, INC.	11805 Gregory Road ,Anchorage
2422	A & J MGMT, INC	373 Orange Road ,Montclair
2427	A & J REFRIGERATION, INC.	5 Industrial Road ,Fairfield
2432	A & J TRANSPORTATION	P.O. 25046 ,San Mateo
2433	A & J USA, INC.	161 Ponderosa Drive ,Fayetteville
2434	A & J VANS, INC.	333 Washington Street ,Valders
2440	A & K DEVELOPMENT COMPANY	410 Chambers Street ,Eugene
2442	A & K ELECTRIC, INC.	813 Westview Drive ,Rock Valley
2443	A & K ENERGY CONSERVATION, INC.	15552 Us 301 ,Dade City
2445	A & K FEED AND GRAIN COMPANY, INC.	P.O. Box 158 ,Lime Springs
2446	A & K FINISHING, INC.	P.O. Box 888150 ,Grand Rapids
2448	A & K MARKETING, INC.	5243 North 129th Street ,Omaha
2450	A & K RAILROAD MATERIALS, INC.	1505 South Redwood Road ,Salt Lake City
2454	A & L DOORS AND SPECIALTIES INC.	336-346 Poplar Street ,Columbia
2456	A & L FOODS, INC.	4200 Amos Avenue ,Baltimore
2458	A & L HEATING COOLING INSULATI	Insulation Inc ,Canton
2459	A & L LABORATORIES, INC.	1001 Glenwood Ave ,Minneapolis
2460	A & L MOTOR SALES	3780 William Penn Highway ,Monroeville
2461	A & L PLAINS AGRICULTURAL LABORATORIES, INC.	P. O. Box 1590 ,Lubbock
2464	A & L SERVICES INC	36445 County Road 31 ,Davis
2465	A & L SHEET METAL	3413 Royalty Row ,Irving
2466	A & L SHEET METAL FABRICATIONS CORP.	1243 Oakpoint Avenue ,Bronx
2467	A & L SYSTEMS, INC.	25415 Glendale ,Redford
2468	A & L VALVE AND FITTING, L.P.	8550 Hansen Road, Suite A ,Houston
2469	A & L WESTERN AGRICULTURAL LABORATORIES, INC.	1311 Woodland Ave Ste 1 ,Modesto
2470	A & L WOOD, INC.	3418 Redbank Road ,Mt. Pleasant Mills
2471	A & L, INC.	22 Ofallon Sq ,O Fallon
2472	A & M AQUATICS INC	16260 National Pkwy ,Lansing
2474	A & M BERK TAX SERVICE, INC.	157 Emerald Lake Drive ,Long Pond
2476	A & M BUILDERS, INC.	P.O. Box 744 ,Burson
2478	A & M COMPRESSED AIR PRODUCTS, INC.	40 Industrial Drive ,Uxbridge
2481	A & M DISTRIBUTORS	6240 Perimeter Dr ,Chattanooga
2482	A & M ENGINEERING	10010 E. 16th ,Tulsa
2484	A & M FARM CENTER, INC.	300 South State Road 49 ,Valparaiso
2485	A & M FLOWER GROWERS, INC	13663 W Telegraph Rd ,Santa Paula
2486	A & M GARAGE DOORS LLC	1304 Powers Drive ,New Kensington
2490	A & M LABS DBA MILE HIGH ORTHOTICS LAB, INC.	4970 Monaco Street Unit A. ,Commerce City
2492	A & M MOTOR SUPPLY INC	16165 Los Gatos Blvd ,Los Gatos
2493	A & M PAINT & WALLPAPER CORP.	579 Sagamore Avenue, Unit 16 ,Portsmouth
2494	A & M PRINTING	3589 Nevada St Ste A ,Pleasanton
2495	A & M PRODUCTS COMPANY	575 Elm Place ,Princeton
2497	A & M ROOFING SERVICES, LLC	123 Tewksbury Street ,Andover
2500	A & M SECURITY SYSTEMS, INC.	12101 North Point Lane Apt 1 ,Holland
2501	A & M SUPPLY CO INC	10762 Waterfall Court ,South Lyon
2502	A & M SUPPLY HOLDINGS, INC.	6701 90th Ave ,Pinellas Park
2506	A & M TOOL MOLDING DIVISION, INC.	P.O. Box 1259 ,Arden
2508	A & M TRANSPORT, INC.	6521 Glen Road, Po Box 310 ,Glendale
2510	A & M WHOLESALE HARDWARE CO	37W. Cherry Street ,Rahway
2511	A & M WOOD PRODUCTS, INC.	9900 South Madison ,Burr Ridge
2514	A & N ELECTRIC, INC.	108 Texas St ,Crossett
2519	A & P AG STRUCTURES, INC.	11266 Avenue 264 ,Visalia
2520	A & P ALLOYS, INC.	400 West Street ,West Bridgewater
2522	A & P CALIBRATIONS INC	6920 Koll Center Pkwy Ste 223 ,Pleasanton
2523	A & P CONSTRUCTION INC	211 N Jackson ,Papillion
2524	A & P DEVELOPMENT & CONSTRUCTION, INC.	3555 Voyager Street, Suite B ,Torrance
2530	A & P PHARMACY, INC.	600 Byron Nelson Blvd. Suite 101 ,Roanoke
2531	A & P POWER SYSTEMS, LTD.	111 Hekili St A-177 ,Kailua
2533	A & P TECHNOLOGY, INC.	4595 East Tech Drive ,Cincinnati
2534	A & R ALLIED ENTERPRISES INC	600 Grand Ave ,Ridgefield
2535	A & R ASSOCIATES LTD	6379 Little River Tpke ,Alexandria
2536	A & R ASTA, LTD.	1152 Second Avenue ,New York
2537	A & R AVIATION SERVICES, INC.	7915 Old Hwy. 99 S.E. ,Tumwater
2538	A & R BULK-PAK, INC.	8 Engelhard Avenue ,Avenel
2544	A & R ELECTRIC	31 Miles Street ,Bridgeport
2545	A & R ENGINEERING CO., INC.	1053 East Bedmar Street ,Carson
2546	A & R ENTERPRISES, INC.	11068 Baltimore Boulevard ,Beltsville
2549	A & R ENVIRONMENTAL, LLC	228 Long Hill Road ,Andover
2550	A & R FLATWORK	8262 E. Hoxie Road ,Cedar
2551	A & R FLOOR COVERING ACCESSORIES & SUPPLIES, INC.	23011 Moulton Pkwy, Suite C-5 ,Laguna Hills
2557	A & R OPTICAL MACHINERY, INC.	155 S. Executive Dr., Suite 210 ,Brookfield
2561	A & R SPADA FARMS, LLC	P O Box 157 ,St. Paul
2563	A & R TELECOM, INC.	9066 Rosecrans Ave ,Bellflower
2567	A & S CONSTRUCTION, INC.	133 Commerce Street Suite 101 ,Lodi
2568	A & S DESIGN, INC.	66 Smith Ave. ,White Plains
2570	A & S DRUGS	101 West Main ,Pipestone
2572	A & S ELECTRICAL SERVICES, INC.	42 Ozick Dr Ste 1 ,Durham
2574	A & S ENGINEERS, INC	10377 Stella Link Road ,Houston
2577	A & S GLASS FABRICS CO., INC.	724 E. 60th Street ,Los Angeles
2581	A & S MACHINE INC	38363 Western Pkwy Unit 1 ,Willoughby
2582	A & S MARKETING, INC.	1120 SE Morrison Street ,Portland
2584	A & S MOTORCYCLE PARTS INC	1125 Orlando Ave ,Roseville
2585	A & S PRODUCTION	Rt 666 Yellow Hammer Rd ,Endeavor
2587	A & S SERVICES GROUP, LLC	883 East Tolna Road ,New Freedom
2589	A & S WINDOW ASSOCIATES INC	88 - 19 76th Avenue ,Glendale
2590	A & S, INC.	443 N Frederick Ave ,Gaithersburg
2591	A & SW CONSULTANTS	55 Inlet Harbor Road ,Ponce Inlet
2593	A & T CHEVROLET INC	801 Bethlehem Pike ,Sellersville
2595	A & T HEALTHCARE, L.L.C.	339 N Main St ,New City
2598	A & V COMPANY OF THE TRIAD, INC.	4238 Piedmont Parkway ,Greensboro
2601	A & V ROOFING CO., LLC	3512 West Buddy Owens Boulevard ,Mcallen
2604	A & W CONTRACTORS, INC.	530 Woodlake Circle ,Chesapeake
2605	A & W ELECTRIC INC	6685 Santa Barbara ,Elkridge
2606	A & W PRODUCTS CO., INC.	14 Gardner St. ,Port Jervis
2607	A & W TIRE LLC	375 Farnum Pike ,Smithfield
2610	A & Z TRUCKING INC.	44110 28th Street West ,Lancaster
2611	A &P TOOL, INC	801 Industrial Drive ,Hicksville
2612	A &W IRON METAL, INC	7588 Otten Drive ,Kewaskum
2613	A .J. PACE AND CO., INC.	276 Southdown Road ,Lloyd Harbor
2615	A 1 MACHINE, INC	799 Sandstone Ave ,Farmington
2617	A 1 PRECISION INC	8014 NE 19th Court ,Vancouver
2618	A 1 RESIDENTIAL MORTGAGE	367 NW 81st Pl ,Portland
2619	A 123 CREDIT COUNSELORS, INC	6161 Blue Lagoon Drive 255A ,Miami
2620	A 2 ONE CONTRACTING	90 Bryson Street Unit B ,Buffalo
2622	A A AND ASSOCIATES INC	2222 Kansas Ave Ste K ,Riverside
2625	A A HAMMERSMITH INSURANCE, INC	210 Erie Street North ,Massillon
2626	A A IRON AND METAL CO., LLC	2006 40th Street ,North Bergen
2628	A AA A AMERICAN MOBILE GLASS	35 Oak Ridge Rd ,Newfoundland
2634	A ABLE ADVOCATES	8877 Southwest 131 Street ,Miami
2635	A ACE HAULING, INC	200 Ellington Drive ,Fredericksburg
2637	A ACTION APPLIANCE REPAIR LLC	78 Eastern Blvd ,Glastonbury
2639	A ADVANCED TICKET WAREHOUSE, INC.	2385 Rt. 70 W. ,Cherry Hill
2640	A ADVANCEMENTS IN DENTAL CARE, P.C	9224 Broadway ,Brookfield
2642	A ADVANTAGE HEATING & AIR CONDITIONING	8501-102 Bucyrus Court ,Manassas
2644	A ALVA ROSALES & ASSOC LTD	642 W Schubert Ave # A ,Chicago
2646	A AMERICAN HIGH-TECH TRANSCRIPTION & REPORTING, INC.	2600 East Bay Drive, Ste 215 ,Largo
2647	A AND A SERVICES, INC.	P.O. Box 771 ,Waukegan
2648	A AND A TRANSPORTATION	P.O. Box 1387 ,Los Banos
2649	A AND B SUPPLY COMPANY, INC.	2609 Dearborn Ave. ,Easton
2653	A AND H GLASS COMPANY, INC.	2005 Thomas Road ,Memphis
2655	A AND I FINANCIAL SERVICES, LLC.	9800 Mt Pyramid Ct No. 450 ,Englewood
2656	A AND I FLOOR COVERING, INC.	3088 West 10275 South ,South Jordan
2657	A AND M CARPET	3845 N. Blackstone Avenue ,Fresno
2662	A AND R ELECTRIC	15150 Middllebrooke Dr. ,Houston
2666	A AND S SUPPLY, INC.	3140 Crescent Avenue ,Erlanger
2668	A AUTIELLO CONSTRUCTION CO INC	125 Carlsbad Street ,Cranston
2670	A B & W CREDIT UNION INC	6201 Richmond Hwy ,Alexandria
2671	A B B INC	3503 Rochester Road ,Royal Oak
2673	A B C FAMILY DENTAL SERVICES	613 Center Drive ,Luxemburg
2674	A B C KNIFE GRINDING CORP	28 Rosanne Drive ,Laurel Hollow
2675	A B C MANAGEMENT CORP.	152 West 57th Street, 12Th Floor ,New York
2676	A B CAPITAL CORPORATION	212 W 29th St ,New York
2677	A B CONSULTANTS	9450 Annapolis Rd ,Lanham
2678	A B CPR AND FIRST AID TRAINING	3717 Camino Del Rio South ,San Diego
2680	A B FEDERAL CREDIT UNION	871 30th St ,Altoona
2681	A B PLUMBING INC	31917 Decker Industrial Circle ,Pinehurst
2682	A B RISK SPECIALISTS, INC.	931 Tullis Road ,Lawrenceville
2684	A BALANCED BODY INC.	612 Pleasant Valley Drive ,Boerne
2691	A BAYOU CHIROPRACTIC CENTER PA	1012 E Strong St ,Pensacola
2692	A BAYUS INC. DBA BAYUS DESIGN WORKS	13050 Magisterial Dr Ste 102 ,Louisville
2694	A BEKA BOOK, INC.	250 Brent Lane ,Pensacola
2695	A BELL EXTERMINATING CO., INC.	100 Dobbs Lane Suite 100 ,Cherry Hill
2697	A BEST FINANCIAL CORPORATION	42180 Ford Road ,Canton
2699	A- BEST WINDOW, INC.	1199 Broadway ,South Portland
2701	A BETTER ANSWER	1410 G Avenue ,Plano
2702	A BETTER BALANCE	80 Maiden Lane Suite 606 ,New York
2704	A BETTER BLUEPRINT & COPY CENTER	919 North Dixie Highway ,West Palm Beach
2705	A BETTER CHANCE	253 West 35th Street, 6th Floor ,New York
2706	A BETTER CHANCE FOR OUR CHILDREN INC	2610 Northgate Road ,Wilmington
2707	A BETTER CHOICE MEDICAL SUPPLY	8174 Cooley Lake Rd ,White Lake
2708	A BETTER CITY	33 Broad Street ,Boston
2709	A BETTER CONNECTION	1203 Kings Highway N ,Cherry Hill
2710	A BETTER GUTTER CLEANING INC	5075 Roswell Rd Ste C ,Atlanta
2711	A BETTER LEDGER COMPANY, INC.	P.O. Box 232 ,Crestview
2714	A BETTER SMILE FAMILY DENTISTRY, PC	P.O. Box 2360 ,Wilton
2715	A BETTER SMILE, P.C.	1201 East 42nd Place ,Sand Springs
2717	A BETTER VUE EYE PHYSICIANS	4089 Tamiami Trail N. Ste. A103 ,Naples
2719	A BETTER WEIGH INC	1931 W 95th St ,Chicago
2720	A BETTER WEIGH, LLC	12 Hay Pasture Ct. ,Catonsville
2723	A BIT BETTER, LLC	P. O. Box 1376 ,Evanston
2728	A BOTTINI ENTERPRISES INC	8871 Muraoka Dr Ste 1 ,Gilroy
2730	A BRANOVAN COMPANY, LLC	6505 W Calument Rd ,Milwaukee
2731	A BRIDGE TO RECOVERY	361 Towne Center Pl ,Ridgeland
2732	A BRIGGS PASSPORT AND VISA EXPED	1921 Sunderland Pl NW ,Washington
2733	A BRIGHT FUTURE INC	6941 Hilburn Drive ,Raleigh
2735	A BRIGHTER COMMUNITY INC	1613 N. Marion Street ,Tampa
2736	A BRITE COMPANY	3217 Wood Drive ,Garland
2737	A BRONX WOMENS MEDICAL PAVILION	560 Southern Boulevard ,Bronx
2739	A BUSINESS BROKERAGE INC.	15902 Lakewood Drive ,Sale Creek
2740	A BYTE OF DESIGN, INC.	10 Brynhurst Lane ,Durham
2743	A C CONTRACTORS INC	1495 Keo Way ,Des Moines
2746	A C F INTERNATIONAL INC	50 Congress St Ste L6 ,Boston
2747	A C GRACE CO., LLC	111 East Gilmer Street ,Big Sandy
2752	A C PRODUCTS COMPANY	79 W Monroe St Suite 1119 ,Chicago
2756	A CAL ASSOCIATED CALIBRATION, INC.	4583 E. Eisenhower Circle ,Anaheim
2757	A CAL PEST CONTROL SERVICES, INC.	1523 Potrero Ave ,South El Monte
2758	A CALDWELL LIST CO INC	3295 River Exchange Dr Ste 280 ,Norcross
2759	A CARING DENTIST P C	9703 101st Ave ,Ozone Park
2760	A CARING HAND MEDICAL ADULT DA	606 Hammonds Lane ,Baltimore
2761	A CAT DOCTOR, INC.	4545 Riva De Romanza St ,Las Vegas
2762	A CATS PLACE VETERINARY HOSPIT	738 Route 9 Ste 15 ,Fishkill
2764	A CELL INC	6640 Eli Whitney Dr Ste 200 ,Columbia
2765	A CENTER FOR CHILDREN & FAMILY LAW	1111 W. Chapman Ave ,Orange
2767	A CENTER FOR FOOT & ANKLE SURGERY,	835 Main Street ,Hackensack
2768	A CENTER FOR VISIONCARE	4418 Vineland Ave. #106 ,North Hollywood
2769	A CERTIFIED SCREEN SERVICE INC	560 S Yonge St ,Ormond Beach
2771	A CHAPPA CONSTRUCTION LLC	443 N Main ,Sheboygan Falls
2772	A CHILDRENS DENTIST, LLP	8710 W. Charelston Blvd. ,Las Vegas
2773	A CHILDS PLACE SCHOOL LLC	1409 W Front St ,Lincroft
2774	A CHILDS PLACE, INC.	5252 Lyngate Ct Ste 201 ,Burke
2776	A CHILDS WORLD DEVELOPMENT	2147 S. Eagle Road ,Newtown
2777	A CHOSEN CHILD, INC.	1516 E. Colonial Dr. ,Orlando
2778	A CLAS BUILDERS & DESIGN, INC.	23679 Calabasas Road, #976 ,Calabasas
2779	A CLEAN LOOK LLC	934 Carter Circle ,Hudson
2780	A CLINIC FOR WOMEN, PLC	500 South University Suite 319 ,Little Rock
2784	A COMMON GOAL INCORPORATED	5502 Brandon Park Dr ,Maryville
2785	A COMMON THREAD INC	4081 Redwood Avenue ,Los Angeles
2788	A COMPANY INC.	P.O. Box 5702 ,Boise
2792	A CONE ZONE, INC.	120 N Joy St ,Corona
2793	A CONFIDENT SMILE, INC.	303 W Hansell St ,Thomasville
2794	A CONTACT ELECTRIC RENTALS, LP	2217 Aldine-Bender ,Houston
2795	A COPPOLA ASSOCIATES INC	50 Hopatchung Rd ,Hopatcong
2799	A CUBED CORPORATION, CONCAST METAL PRODUCTS COMPANY	Mars-Evan City Road ,Mars
2802	A CUSTOM CO	Po Box 111 ,Bellingham
2803	A CUT ABOVE EXTERIORS, INC.	12985 NW Cornell, Ste 300 ,Portland
2807	A D GRIFFITH, INC.	2974 Colerain Avenue ,Cincinnati
2808	A D HARPER ENTERPRISES INC.	773 King Beach Drive ,Howard
2809	A D MARTIN LUMBER COMPANY, INC.	P.O. Box 1729 ,Riverton
2810	A D MICHEL CO INC	2505 Metro Blvd Ste C ,Maryland Heights
2813	A D S CONTRACTING CO INC	499 York Rd ,Warminster
2814	A D SINGLETON & CO CPA INC	2244 Carmel Valley Rd Suite B ,Del Mar
2816	A D WOODSON INC	3311 Peters Creek Rd ,Roanoke
2817	A DANCERS DREAM, INC.	32 Cloutmans Lane ,Marblehead
2819	A DAVID YOUNG	3816 E State St ,Hermitage
2820	A DEMARINIS INC	7 Narcissus Lane ,Northport
2821	A DENTAL CENTER, P.C. - DOWNRIVER	17128 Fort St ,Riverview
2822	A DENTON RV STORAGE PLACE, INC.	6256 Green Valley Circle ,Aubrey
2823	A DONALD ANGELETTI MD	603 Bloomfield Ave ,West Caldwell
2824	A DUCHINI, INC	2550 Mckinley Ave ,Erie
2825	A E BRAGGER CONSTRUCTION CO INC	110 Brownlee Blvd ,Warwick
2826	A E CARTER PLUMBING & HEATING	132 Massasoit St ,Waltham
2827	A E DOOR SALES & SERVICE, INC.	1260 West Sharon Road ,Cincinnati
2828	A E ELECTRIC CO.	P.O. Box 2744 ,Whitehouse
2829	A E FINLEY & ASSOCIATES OF TENNESSE	P O Box 22640 ,Knoxville
2832	A E X COMMUNICATIONS, INC.	4445 West 77th Street ,Edina
2833	A F ASSOCIATES FAMILY MEDICINE PC	2849 Michigan St Ne ,Grand Rapids
2836	A F I CONSULTANTS, INC.	4021 Via Pima ,Palos Verdes Estates
2838	A F STERLING HOMEBUILDERS, LTD.	6340 N Campbell Ave Ste 100 ,Tucson
2839	A F VENTOLIERI PLUMBING AND HE	519 Albany St, Suite 103 ,Boston
2840	A FAMILY FOOT CENTER	945 West 7th Street ,Oxnard
2841	A FAMILY OF LEARNING, INC.	18119 Heron Walk Drive ,Tampa
2842	A FAMILY PRACTICE & WELLNESS CENTER LLC	309 East Main Street ,Cartersville
2845	A FARAH INVESTMENTS LLC	2985 Voyager Drive ,Green Bay
2846	A FARE EXTRAORDINAIRE, INC.	2035 Marshall St. ,Houston
2850	A FIFTH AVENUE OBSTETRICS &	36 East 70th Street ,New York
2854	A FITTING EXPERIENCE MASTECTOMY	1605 N State Road 7 ,Margate
2855	A FIVE ELECTRIC & SECURITY LLC	303 Kimball Street ,Woodbridge
2856	A FOOT ABOVE PODIATRY, INC.	C/O Milberg Consulting Llc ,Blue Bell
2857	A FORBES COMPANY	P.O. Box 2430 ,Lenoir
2858	A FRIEND OF THE FAMILY, INC.	P.O. Box 5051 ,Wilmington
2859	A FURRY TAIL COME TRUE	26 Main St ,Hellertown
2860	A G ASSANTI & ASSOCIATE PC	33 Brookline ,Aliso Viejo
2862	A G DAVIS GAGE & ENGINEERING CO	6533 Sims ,Sterling Hgts
2863	A G EQUIPMENT COMPANY	3401 West Albany ,Broken Arrow
2865	A G HEATING AIR CONDITIONING	2009 Eubank Ne ,Abluquerque
2866	A G INDUSTRIES INC	2963 Interstate Pkwy ,Brunswick
2868	A G MAURO COMPANY OF FLORIDA	1105 Sand Pond Rd ,Lake Mary
2872	A GARRETT BERLEY JR DDS LTD	1 S 132 Summit ,Oakbrook Terrace
2873	A GENTAL DENTAL FAMILY PRACTICE, PC	Atsb, Box 938 ,Dubuque
2875	A GENTLE DENTAL CENTER, P.A.	5705 Evergreen Lane North ,Plymouth
2876	A GEORGE MASON JR PSC	103 Wind Haven Drive, Suite 201 ,Nicholasville
2877	A GIFT FOR TEACHING, INC	6501 Magic Way Ste 400C ,Orlando
2878	A GIFTED EDUCATION, INC.	6835 Trinidad Drive ,San Jose
2879	A GLASS AND TINT SHOP KC INC	9928 W. 62nd Terrace ,Merriam
2880	A GLASSCO, LLC	323 Hookela Place ,Honolulu
2881	A GLIMMER OF HOPE FOUNDATION	3600 N Capital Of Texas Hwy St ,Austin
2887	A GOODNIGHT SLEEPSTORE INC.	6502 Market Street ,Wilmington
2888	A GRACE PLACE ADULT CARE CENTER	8030 Staples Mill Rd ,Richmond
2891	A GREAT OFFICE SUPPLY COMPANY	Po Box 18704 ,Tampa
2893	A H MARTY COMPANY	6900 Union Ave ,Cleveland
2895	A H T INC	Po Box 69 ,Jordan
2902	A HEAD FOR PROFITS LLC	909 Divison Street ,Nashville
2903	A HELPING HAND, INC.	5600 20th Ave NW ,Seattle
2904	A HOME IMPROVEMENT, INC.	4882 Mcgrath Street, Suite 190 ,Ventura
2905	A HOPE CENTER PREGNANCY & RELATIONSHIP RESOURCES	3630 Hobson Road ,Fort Wayne
2906	A HUNDRED MONKEYS, INC.	332 Miller Avenue ,Mill Valley
2908	A I. FRIEDMAN, L.P.	44 W 18th Street 4th Floor ,New York
2909	A IS FOR APPLE, INC.	401 Alberto Way ,Los Gatos
2911	A J DOHMANN CHEVROLET CADILLAC, INC.	800 Robinson Rd ,Berwick
2912	A J FACTS INC	110 West 34th Street ,New York
2918	A J L ELECTRIC INC	165 Prairie Lake Rd Unit C ,East Dundee
2919	A J LESTER & ASSOC INC	9898 Bissonnet Suite 678 ,Houston
2922	A J PROPERTY MANAGEMENT INC	8373 Piney Orchard Pkwy ,Odenton
2925	A J T SYSTEMS INC	4901 NW 17th Way Ste 601 ,Fort Lauderdale
2926	A J TRANSPORT	2100 Philpott Road ,South Boston
2927	A J. DWOSKIN & ASSOCIATES, INC.	3201 Jermantown Road ,Fairfax
2928	A JANITORS CLOSET, INC.	4183 E. Hillsborough Ave. ,Tampa
2930	A JEWISH VOICE FOR PEACE INC	1611 Telegraph Ave Ste 550 ,Oakland
2931	A JOE WINTER INVESTIGATIONS CO	3814 Nasa Parkway ,Seabrook
2932	A JOURNEY FOR 911	322 Route 46W, Ste 270 ,Parsippany
2934	A K A PEST CONTROL INC	121 W 27th St Ste 502 ,New York
2935	A K ALLEN CO INC	255 E 2nd St ,Mineola
2938	A K K ASSOCIATES INC	535 Cumberland Road ,Glendale
2943	A KID AGAIN, INC.	777-G Dearborn Park Lane ,Columbus
2944	A KIDS PLACE TAMPA BAY INC	1715 Lithia Pinecrest Rd ,Brandon
2948	A L FINISHING CO., INC.	925 Schwab Rd ,Hatfield
2950	A L INDUSTRIES, INC.	1641 E. St. Gertrude Place ,Santa Ana
2951	A L JACOBSEN FUNERAL HOME INC	1380 New York Avenue ,Huntington Station
2954	A LA MODE TECHNOLOGIES, INC. DBA A LA MODE, INC.	2210 Vanderbilt Beach Rd, Ste. 1205 ,Naples
2957	A LARRY MILLER MD LTD	311-H Maple Ave W ,Vienna
2958	A LAURA WALDO CPA INC	75-5706 Hanama Pl Ste 101 ,Kailua Kona
2959	A LAW FIRM OF SCHMITT, CAMBRON & REYNOLDS, P.L	1330 SE Federal Highway ,Stuart
2964	A LITTLE VETERINARY CLINIC PA	6902 Milford Harrington Hwy ,Harrington
2965	A LOCAL VAN MOVING & STORAGE	2710 Holloway Rd Ste 2 ,Louisville
2966	A LOHMEYER CONTRACTORS LLC	124 Pleasant Hill Rd ,Owings Mills
2968	A LYONS & CO, INC	40 Beach Street ,Manchester
2969	A M BUSA CONSTRUCTION INC	3 Ridgewood Lane ,Bedford
2972	A M ENGINEERING, INC.	8340 Consumer Court ,Sarasota
2973	A M KING CONSTRUCTION CO LLC	1610 E Morehead St Ste 200 ,Charlotte
2975	A M NEWSOM AGENCY INC	Po Box 309 ,Littleton
2976	A M O INDUSTRIES, INC	1808 West Carson St ,Pittsburgh
2977	A M PRECISION MACHINERY INC	170 S Lively Blvd ,Elk Grove Village
2978	A M SALON EQUIPMENT CO	3841 Wilmington ,St Louis
2982	A M X-RAY SERVICE INC	Po Box 561506 ,Miami
2983	A MAAS CONSTRUCTION INC	14551 Judicial Rd Ste 100 ,Burnsville
2984	A MAHLER & ASSOCIATES, PA	2 Ridgedale Ave Ste 350 ,Cedar Knolls
2985	A MAJOR DIFFERENCE, INC.	3045 South Ponte Vedra Blvd. ,Ponte Vedra Beach
2988	A MCKIBBIN & CO	7529 Draper Ave Ste D ,La Jolla
2989	A MED MANAGEMENT, INC	8901 E.F. Lowry Expwy ,Texas City
2990	A MEDIOCRE CORPORATION	3200 Belmeade Dr Suite 100 ,Carrollton
2991	A MILLER INC	925 Crestmoor Dr. ,Oxford
2992	A MINI STORAGE	12200 SW 117th Avenue ,Miami
2996	A MORGAN GLASS, LLC	1149-C College Park Road ,Summerville
2997	A MORGAN SERVICES CORPORATION	1537 Washington St ,Newton
2998	A MOTORTOYS LIMOUSINE SERVICE INC.	4612 Interstate Dr. ,Westchester
2999	A MYERS DAVIS DEVELOPMENT CO INC	2828 East Hills Dr ,Lexington
3000	A N DESIGNS, INC.	111 Putter Lane ,Torrington
3001	A N TOOL & DIE, INC	9930 Research Drive Suite 100 ,Irvine
3002	A NAIMOLI FREIGHT FORWARDING I	10508 93rd St ,Ozone Park
3003	A NEIGHBORHOD MANAGEMENT GROUP, INC.	221 E. Walnut St., Ste 224 ,Pasadena
3006	A NEW DAIRY CO. INC.	1234 West Randolph ,Chicago
3010	A NEW LEAF FLORAL INC	2500 N May Ave ,Oklahoma City
3011	A NEW LEAF LANDSCAPE RENOVATION INC.	1645 Las Palomas Drive ,La Habra Heights
3014	A NEW TEAM ADVENTURE LLC	27 Kingston Ave ,Yonkers
3015	A NEW YOU PHYSICIANS WELLNESS PROGRAM, INC.	9055 SW 87th Avenue ,Miami
3016	A NOTCH ABOVE INC.	12930 Capital St ,Oak Park
3018	A NURSES REGISTRY, INC.	1411 North Flagler Drive, Suite 3 ,West Palm Beach
3019	A O K TIRE MART	1215 S French Ave ,Sanford
3020	A O K TIRE MART II INC	200 W Main St ,Apopka
3021	A O MANAGEMENT, INC.	270 Lafayette St., Suite 1002 ,New York
3022	A O ORTHOPEDICS, INC.	101 Good Drive ,Lancaster
3023	A O SMITH CORPORATION	11270 W. Park Place ,Milwaukee
3024	A ONE DEALER SUPPLY INC	Adsco Marketing ,Cincinnati
3028	A P ENGINEERING CONSULTANT, INC	2964 Lbj Freeway, Suite 430 ,Dallas
3029	A P ESTEVE SALES INC	1920 Tienda Drive Bldg C Suite 201 ,Lodi
3030	A P GRAPH INC	9605 Girard Avenue South ,Bloomington
3032	A P I INC	616 Powers Street ,Eugene
3033	A P MACHINE & TOOL INC	1301 Elm St ,Terre Haute
3038	A PALLET COMPANY INC	1305 Bedford Street ,Indianapolis
3039	A PARTNERSHIP, INC	307 Fifth Avenue ,New York
3041	A PASS EDUCATIONAL GROUP, LLC	32985 Hamilton Court ,Farmington Hills
3046	A PERFECT SMILE	230 N. Fairgrounds Road ,Price
3050	A PLACE AT THE BEACH WINDY HILL	4525 South Ocean Blvd ,North Myrtle Beach
3053	A PLACE FOR US-ACWC	1201 New Rd Ste 240 ,Linwood
3054	A PLACE TO GROW, INC.	235 Sudbury Road ,Concord
3055	A PLUS AIR CONDITIONING AND HEATING	P O Box 247 ,Bryans Road
3056	A PLUS ALARMS LLC	Po Box 420 ,Moultonborough
3058	A PLUS BENEFITS, INC.	395 West 600 North ,Lindon
3059	A PLUS CABINETS INC	3465 La Campana Way Ste 2 ,Palm Springs
3060	A PLUS CASH ADVANCE, INC.	P.O. Box 275 ,Blue Springs
3062	A PLUS COMPUTERS, INC.	4730 Parnell Ave. ,Fort Wayne
3063	A PLUS CONFERENCING, LTD.	3600 S. Gessner ,Houston
3064	A PLUS CONSULTING	400 Andrews Street ,Rochester
3065	A PLUS CORPORATE BUILDING SERVICES	11325 Tanton Road ,Dallas
3066	A PLUS CREDIT UNION	525 W Sunnyside Road ,Idaho Falls
3068	A PLUS E GROUP, INC	140 Maffet Street ,Wilkes Barre
3069	A PLUS FAMILY FOOT & ANKLE	1221 S Water St Ste A ,Kent
3070	A PLUS FEDERAL CREDIT UNION	6420 Us Hwy 290 East ,Austin
3071	A PLUS FIREPLACES, GRANITE AND MARBLE, INC.	8133 Ridge Road ,Port Richey
3073	A PLUS HEALTH CARE INC	1310 S Main ,Kalispell
3074	A PLUS IN HOME CARE	5150 N. Sixth, #111 ,Fresno
3076	A PLUS INTERNATIONAL, INC	5138 Eucalyptus Avenue ,Chino
3079	A PLUS MEDICAL	Po Box 37296 ,Rock Hill
3081	A PLUS MORTGAGE LLC	300 Centerville Rd Ste 101S ,Warwick
3082	A PLUS MORTGAGE SERVICES, INC.	W188 S7820 Racine Avenue Suite 500 ,Muskego
3083	A PLUS PHYSICIANS BILLING SERV	4250 N Marine Dr Ste 236 ,Chicago
3085	A PLUS POWDER COATERS, INC.	1384 Kauffman Avenue ,Columbiana
3086	A PLUS POWERWASH, INC.	15 South Keyser Ave. ,Taylor
3088	A PLUS SCHOOLS	1901 Centre Ave Ste 302A ,Pittsburgh
3090	A PLUS TECHNOLOGY SOLUTIONS, INC.	1490 North Clinton Avenue ,Bay Shore
3092	A PLUS TOWING	1309 E Walnut St ,Sioux Falls
3093	A PLUS WAREHOUSE EQUIPMENT	76 Sanderson Avenue ,Lynn
3094	A P-O-GEE INDUSTRIES INC	827 Lincoln Ave B6 ,West Chester
3097	A PRECIOUS PET RESORT L L C	1062 Old Concord Road ,Henniker
3101	A PRO ROOTER COM INC	24 South St ,Holbrook
3102	A PROFESSIONAL FIRE SYSTEMS CO.	17273 S. Steiner Road ,Beavercreek
3104	A Q JOHNSON AND ASSOCIATES, INC.	7855 Ivanhoe Avenue Suite 210 ,La Jolla
3105	A QC CORPORATION	200 Park Central Blvd S Ste 5 ,Pompano Beach
3108	A QUALITY HEATING AND AIR CONDITIONING, INC.	1584 Deer Park Road ,Finksburg
3109	A QUALITY PLUMBING & HEATING, INC	8315 S. 700 W. ,Midvale
3112	A R D PAPER COMPANY	7816 Dundee Lane ,Delray Beach
3114	A R KROPP LLC	1515-B Fifth Industrial Court ,Bay Shore
3115	A R M INSURANCE AGENCY INC	Po Box 127 ,Bogalusa
3116	A R MEDICOM INC	295 Fire Tower Dr ,Tonawanda
3117	A R METALCRAFTERS, LLC	655 Wambold Road ,Souderton
3118	A R PERRY CORPORATION	Po Box 206 ,Henderson
3119	A R PIERREPONT CO, INC	154 Berkeley St ,Rochester
3121	A R REPAIRS BAKERS KNEADS	26352 Lawrence ,Center Line
3123	A R SYSTEMS, INC.	14160 Peaceful Place ,Mechanicsville
3124	A RANDALL CAMACHO PLLC	1300 Glade Road ,Colleyville
3125	A RAYMOND TINNERMAN MANUFACTURING INC.	1060 W. 130th Street ,Brunswick
3126	A READINESS LEARNING ACADEMY INC.	131 1st Street East Unit 101 ,Tierra Verde
3127	A REASON TO SURVIVE	200 E 12Th St ,National City
3128	A REDDIX AND ASSOCIATES, INC.	237 Hanbury Road East ,Chesapeake
3131	A RICCIOTTI INSURANCE ASSOC LLC	1140 Reservoir Ave ,Cranston
3133	A RICHARD WIELGOS DDS	2671 Sheridan Road ,Zion
3134	A RIFKIN CO	1400 Sans Souci Parkway ,Wilkes Barre
3137	A ROYAL BUILDER	166 Maple Rd. ,West Milford
3142	A S C-AMERICAN SERVICE CORPORA	100 Arrondale Blvd Suite 100 ,Exton
3143	A S HOSPITALITY, INC.	3493 Lamar Ave. ,Memphis
3144	A S I SYSTEM INTEGRATION INC	48 West 37th Street ,New York
3147	A S MEDICAL CENTER	194 Hospital Road ,Blairsville
3148	A S MILL PRODUCTS INC	230 Half Mile Rd Ste 2 ,Red Bank
3149	A S N LAUNDRY GROUP INC	1731 W Farms Rd ,Bronx
3151	A SAFE HAPPY LEARNING PLACE	610 East Dunne Avenue ,Morgan Hill
3152	A SALMON FIRM LLC	2415 Beaver Ruin Road ,Norcross
3153	A SALON INC.	2440 E. Main St. ,Columbus
3156	A SAYED DDS PC	6405 Telegraph Rd. ,Bloomfield Hills
3157	A SCHOENEMAN & CO INC	3306 W Peterson Ave. ,Chicago
3158	A SCOTT GRIVAS III DDS INC	2 Scripps Drive Suite 202 ,Sacramento
3159	A SECOND CHANCE, INC.	1104 Kenilworth Drive, 300 ,Towson
3162	A SECOND OPINION INC	220 West Parkway ,Pompton Plains
3165	A SERVANTS HEART HOSPICE LLC	5111 N Scottsdale Rd., Suite 155 ,Scottsdale
3167	A SHARP PAINTER, LLC	5006 NW B Avenue ,Pendleton
3170	A SMILE BY DR. DEVESE	105 B Commerce Park Dr. ,Westerville
3171	A SNAILS PACE, INC.	8840 Warner Ave., #205 ,Fountain Valley
3172	A SOLUTION INC	1604 Spring Hill Road ,Vienna
3176	A SQUARE GROUP LLC	6237 Executive Boulevard ,Rockville
3177	A SQUARE SYSTEMS, INC.	11923 Borman Drive ,Creve Coeur
3178	A SQUARED DESIGN GROUP INC	529 5th Ave ,New York
3179	A SQUARED PRODUCTIONS GROUP, INC.	435 N Vista St ,Los Angeles
3181	A STARTING PLACE, INC.	664 Orangeburg Road ,Pearl River
3185	A STEP AHEAD INC	290 Pleasant St Unit 112 ,Watertown
3187	A STEP BEYOND, INC.	6400 Frankford Ave. Unit 26 ,Baltimore
3188	A STEP UP CAREER ACADEMY CENTE	2745 Bernice Rd ,Lansing
3189	A STEP UP PODIATRY LLC	215 Gordons Corner Rd Ste 2A ,Manalapan
3190	A STREET SCRAP METALS CORP.	29 A Street ,South Boston
3191	A STUDENT STAFFING	4807 West Lovers Lane ,Dallas
3193	A SUPERIOR LINEN SERVICE, INC.	5625 Military Road ,Detroit
3194	A SURE WING, LLC	12400 Olive Blvd, Suite 204 ,St. Louis
3196	A T & S, INC.	1883 Fox Avenue ,Fairbanks
3197	A T ALLEN & COMPANY, LLP	2245 Gateway Access Point ,Raleigh
3199	A T MEROVICH AND ASSOCIATES IN	1950 Addison St Ste 205 ,Berkeley
3200	A T MITCHELL ENTERPRISE INC	24625 Manor Dr ,Shorewood
3202	A T S CONSULTANTS INC	10 Church Lane ,Baltimore
3203	A TASTE OF CLASS, INC.	3415 Glenmore Ave ,Cincinnati
3204	A TASTE OF EXCELLENCE	16888 Pearl Road ,Strongsville
3205	A TAX & ACCOUNTING SERVICE, INC.	9174 Remington Drive ,New Port Richey
3206	A TECH AUTHORITY, INC	13745 Stockton Ave ,Chino
3207	A TECH, INC	10401 Hickman Road ,Urbandale
3208	A TECHNOLOGICAL ADVANTAGE, INC.	10108 Linn Station Road, Suite A200 ,Louisville
3209	A TEEM ELECTRICAL ENGINEERING INC	3841 North Freeway Boulevard ,Sacramento
3210	A TENDER DENTAL CARE II, L.L.C.	2487 South Gilbert Road ,Gilbert
3211	A TENDER LOVE AND CARE, INC	1665 E. 4th Street #108 ,Santa Ana
3212	A THOME HOME, INC	8208 S. Hangman Valley Rd. ,Spokane
3214	A THRU Z CONSULTING & DISTRIBUTING, INC.	8620 E. Old Vail Rd. ,Tucson
3218	A TO B HOME LOANS, INC.	1500 E. Hamilton Avenue, Ste. 105 ,Campbell
3220	A TO Z AUTO SHIPPING, INC.	31230 Cedar Valley Drive, Suite 202 ,Westlake Village
3221	A TO Z BOHEMIAN GLASS INC	12 Rewe St ,Brooklyn
3222	A TO Z CHILDRENS DENTAL	805 E High St ,Grants
3223	A TO Z CIRCUIT BREAKERS, INC.	1170 Gene Autry Way ,Anaheim
3224	A TO Z COMMUNICATIONS INC	960 Penn Ave 9th Floor ,Pittsburgh
3225	A TO Z DENTAL	3677 Sauk Trail, Ste. 1 ,Richton Park
3226	A TO Z DERMATOLOGY	1821 N Trekell Rd ,Casa Grande
3228	A TO Z EQUIPMENT RENTAL & SALES	1313 East Baseline Road ,Gilbert
3229	A TO Z EQUIPMENT RENTALS OF NORTH CAROLINA, INC.	5556 Carolina Beach Road ,Wilmington
3230	A TO Z GLASS AND MIRROR	5821 East Beverly Boulevard ,Los Angeles
3232	A TO Z INSURANCE, INC.	1209 E. Shaw Ave. ,Fresno
3234	A TO Z LOCK & SAFE, INC.	124 A Mary Esther Blvd ,Mary Esther
3235	A TO Z MACHINE CO., INC.	2701 E. Winslow Ave. ,Appleton
3237	A TO Z PEDIATRICS, LLC	1230 George E Chance Parkway ,Caseyville
3241	A TO Z RENTALL & SALES, INC.	2209 South Stoughton Rd ,Madison
3242	A TO Z RENTALS & SALES INC.	10903 E Sprague Ave ,Spokane
3243	A TO Z SALES, INC.	2460 Wisconsin Avenue ,Downers Grove
3244	A TO Z STATEWIDE PLUMBING	2215 SW 58th Terrace ,West Park
3245	A TO Z THERAPY MANAGEMENT, LLC	9728 Prairie Ct. ,Keller
3246	A TO Z TIRE & BATTERY, INC.	Po Box 9138 ,Amarillo
3248	A TO Z TRUCK BROKERS	P.O. Box 4586 ,Rio Rico
3249	A TO Z VENDING & FOOD SERVICE, INC.	560 N. Rolling Meadows Drive ,N. Fond Du Lac
3250	A TO Z, INC.	8230 Cody Drive ,Lincoln
3254	A TOW, INC.	180 Harriet Street ,Atlanta
3255	A TRAPPRO INC	2129 Baldwin Ave ,Crofton
3260	A V S, INC.	60 Fitchburg Rd ,Ayer
3262	A VALERIANO & SONS INC	Po Box 4370 ,Utica
3267	A VICTORY AGENCY, INC.	1703 N. Causeway Blvd., Suite C ,Mandeville
3269	A W CONTRACTING LLC	12 Old Orchard Rd ,Riverside
3271	A W DIRECT, INC.	1682 Novato Boulevard, Suite 151 ,Novato
3273	A W KUETTEL & SONS INC.	1225 Port Terminal Drive ,Duluth
3274	A W SMITH FINANCIAL GROUP INC	3954 Springfield Rd ,Glen Allen
3275	A W WELT AMBRISCO INSURANCE, INC.	24 Westside Drive ,Iowa City
3278	A WAY OF LIFE HEALTH AND NUTRITION CENTER	9357-59 Milwaukee Avenue ,Niles
3281	A WILD SMILE, P.C.	2975 Roslyn Street, Suite 160 ,Denver
3284	A WINNING SMILE	140 Monroe Turnpike ,Trumbull
3286	A WOMAN S PLACE	Po Box 299 ,Doylestown
3288	A WOMANS CENTER FOR REPRODUCTIVE MEDICINE, LLC	500 Rue De La Vie, Suite 510 ,Baton Rouge
3290	A WOMANS PLACE IN FAYETTEVILLE, PLLC	P.O. Box 87306 ,Fayetteville
3291	A WOMANS PLACE LLC	215 S Power Road, Suite 218 ,Mesa
3293	A WOMANS PLACE, LLC	34 Sycamore Avenue, Unit 2A ,Little Silver
3294	A WOMANS VIEW PA	915 Tate Blvd SE Ste 170 ,Hickory
3295	A WORK OF HEART, INC.	3 Green Hills Rd. ,South Huntington
3296	A WORKSAFE SERVICE, INC.	1696 Capitol St Ne ,Salem
3297	A WORLD FOR CHILDREN	1516 E Palm Valley Blvd C ,Round Rock
3299	A YANKEE LINE INC	370 W 1st St ,South Boston
3301	A Z MANUFACTURING, INC.	200 Briggs Ave. ,Costa Mesa
3302	A Z MEDICAL INSURANCE BILLING	4020 W Florida Ave ,Hemet
3303	A&A ASPHALT, INC.	Po Box 1323 ,Broken Arrow
3304	A&A BOLT AND SCREW CO., INC.	1110 Batavia Farm Road ,Baltimore
3308	A&A FLOOORING, INC	8885 Rio San Diego Drive 215 ,San Diego
3309	A&A GLOBAL INDUSTRIES HOLDING COMPANY	17 Stenersen Lane ,Cockeysville
3310	A&A HEARING GROUP PS	10564 5th Ave NE, Suite 203 ,Seattle
3311	A&A MARKETING, INC	1411 Mchenry Road ,Buffalo Grove
3312	A&A MEDICAL SUPPLY, LLC	8221 E. Washington Street ,Chagrin Falls
3313	A&A MIDWEST REBUILDERS SUPPLIERS, INC.	2580 N Commerce St ,N Las Vegas
3314	A&A OFFICE SYSTEMS, INC.	909 Middle Street ,Middletown
3316	A&A TRADING, INC.	141 W Jackson Blvd Ste 1210 ,Chicago
3317	A&A VETERINARY HOSPITAL, INC.	414 Franklin Avenue ,Franklin Square
3319	A&B BUSINESS INC.	1600 N A Avenue ,Sioux Falls
3320	A&B HARRIS CONSULTING INC	116 Washington Ave. ,Point Richmond
3324	A&B PROCESS SYSTEMS CORP	201 S Wisconsin Ave ,Stratford
3325	A&B PRODUCE, INC.	299 Lawrence Ave. ,South San Francisco
3328	A&B VALVE AND PIPING SYSTEMS, LLC	212 Thruway Park Road ,Broussard
3330	A&C AUTO PARTS AND WRECKING COMPANY, INC.	3805 Ridge Road ,Cleveland
3333	A&D HOME HEALTH CARE, INC.	3150 Enterprise Dr ,Saginaw
3335	A&D PROPERTY SERVICES INC	7346 S Exchange Ave ,Chicago
3337	A&E CONSTRUCTION CO.	152 Garrett Road ,Upper Darby
3339	A&E MOVING & STORAGE INC.	3489 Westminster Avenue ,Norfolk
3340	A&E NATIONAL INC	1812 N 203rd St ,Elkhorn
3341	A&E STORES, INC.	1000 Huyler Street ,Teterboro
3342	A&E TELEVISION NETWORKS, LLC.	235 East 45th Street ,New York
3345	A&G PIPING, INC.	3124 Wichita Court ,Fort Worth
3347	A&H STORES, INC.	610 W Meeker St., Ste 201 ,Kent
3349	A&I ENTERPRISE SYSTEMS, INC.	117101 Plaza America Drive ,Reston
3351	A&I OLIVIERI, LLC	616 Atlantic Avenue ,Santa Cruz
3353	A&J FASTENER CORPORATION	312 Diana Drive ,Mckees Rocks
3354	A&J INDUSTRIES INC	945 E Central Ave ,Miamisburg
3356	A&K GLOBAL HEALTH US CORP.	68 T.W. Alexander Drive ,Durham
3361	A&L SHEET METAL INC.	4230 Fox Street ,Denver
3364	A&M BIOMEDICAL, INC.	23042 Alcalde Drive Suite A ,Laguna Hillls
3366	A&M CONSTRUCTION SERVICES, INC.	P.O. Box 4277 ,Asheboro
3367	A&M CORSON LLC	2980 North 73rd Street ,Scottsdale
3371	A&M ICE SERVICES, INC.	4137 Lampton Court ,Roanoke
3374	A&M SUPPLY CORPORATION	6701 90th Avenue North ,Pinellas Park
3375	A&N CONSTRUCTION, INC.	15-505 County Rd K ,Napoleon
3377	A&O LOGISTICS, LLC	9340 Cabot Dr. Ste G ,San Diego
3381	A&R DEVELOPMENT CORPORATION	1040 Park Avenue ,Baltimore
3382	A&R ENGINEERING, INC.	2160 Kingston Court Southeast Ste O ,Marietta
3384	A&R LOGISTICS, INC.	8440 S. Tabler Road ,Morris
3390	A&S MOLD & DIE CORP	9705 Eton Ave ,Chatsworth
3392	A&S TRUCKING SERVICE, INC.	883 East Tolna Road ,New Freedom
3394	A&T IRON WORKS, INC	 ,
3395	A&T SYSTEMS, INC.	12200 Tech Road ,Silver Spring
3397	A&U ADVERTISING INC	67 W Chippewa St Ste 100 ,Buffalo
3399	A&V CARRIERS, INC.	120 Washington Street ,Worcester
3400	A&W AMERICAN STAFFING, LLC	9898 Bissonnet St Ste 605 ,Houston
3402	A&W FURNITURE, INC	1501 East Bridge Street ,Redwood Falls
3404	A&W RESTAURANTS, INC	1648 Mcgrathiana Pkwy ,Lexington
3405	A&Z HOME HEALTH CARE, INC.	3043 Ridge Road, Suite 201 ,Lansing
3406	A. & M. ASSOCIATES, LTD.	540 Kenneth Welch Drive ,Lakeville
3407	A. A. & BOB ALLEN, INC.	2904 Beyer Lane ,Stockton
3412	A. A. OFFICE EQUIPMENT COMPANY I	2140 American Ave ,Hayward
3418	A. AIUDI & SONS, LLC	P. O. Box 279 ,Plainville
3422	A. ALLEN WOODS & ASSOCIATES, INC.	2515 Clearbrook Drive ,Arlington Heights
3426	A. ANTHONY & SONS, INC.	1450 West 21st Street ,Erie
3427	A. APRIL PRINTING COMPANY, INC.	1201 Broadway, 403 ,New York
3434	A. B. CARTER, INC.	P. O. Box 518 ,Gastonia
3435	A. B. COMPUTER SYSTEMS, INC.	200 Broadhollow Road, Suite 207 ,Melville
3436	A. B. HELLER, INC.	1235 Holden Avenue, P.O. Box 640 ,Milford
3438	A. B. SUPPLY COMPANY, INC.	3 Noyes Lane ,Atkinson
3439	A. B. SYSTEMS, INC.	209 Woodlake Drive Southeast ,Rochester
3440	A. BAMFORD INC.	1600 SW Parkwood Drive ,Portland
3447	A. BOILARD SONS, INC.	P.O. Box 51065 ,Indian Orchard
3448	A. BOMMARITO WINES, INC.	2827 South Brentwood Blvd. ,St. Louis
3452	A. BRENT CONLEY PC	2353 E Baseline Rd ,Gilbert
3454	A. BRIAN PHILLIPS, P.A.	912 Highland Avenue ,Orlando
3456	A. BROOKE BENZ, MD	1960 NW 167th Place, Suite 205 ,Beaverton
3457	A. BROOKS CONSTRUCTION INC	712 Poplar Street ,Langhorne
3458	A. BROOKS ROOFING, INC.	701 West 5th Street ,Palmyra
3459	A. BROWN & SONS NURSERY, INC.	P.O. Box 427 ,Phillipsburg
3462	A. BRUGGER & SONS	1595 W. 38th Street ,Erie
3466	A. C. HOWELL CORP.	P. O. Box 143 ,Howells
3467	A. C. LISTER & CO.	8992 Cotter Street ,Lewis Center
3470	A. C. VROMAN, INC.	695 E. Colorado Blvd. ,Pasadena
3474	A. CATTANI & SON	5100 California Avenue #234 ,Bakersfield
3477	A. CLAIRE WILSON, D.D.S.	2420 Penny Road ,High Point
3480	A. COOPER MECHANICAL, INC.	171 Leroy Road ,Williston
3482	A. CRANO EXCAVATING, INC.	1505 Industrial Parkway ,Akron
3484	A. CRIVELLI CHEVROLET, INC.	768 Allegheny Blvd ,Franklin
3485	A. CRIVELLI FORD, INC.	797 Allegheny Blvd ,Franklin
3490	A. D. MOYER LUMBER, INC.	1202 East Philadelphia Avenue ,Gilbertsville
3493	A. D. WINSTON SERVICE, INC.	43-15 36th Street ,Long Island City
3494	A. DAIGGER & COMPANY, INC.	620 Lakeview Parkway ,Vernon Hills
3495	A. DANIEL WOSKA & ASSOCIATES, P. C.	200 Broadway, #262 ,Edmond
3496	A. DASHEN & ASSOCIATES	8430 NE 17th Place ,Clyde Hill
3497	A. DAVID FLUG, M.D., P.C.	106-15 Queens Blvd. ,Forest Hills
3500	A. DEAN CHELTON	6720 Big Creek Pkwy. ,Cleveland
3501	A. DELUCA & SONS, INC.	57 Cognewaugh Road ,Cos Cob
3502	A. DENIS BRITTO, DDS, PC	4080 Lafayette Center Drive ,Chantilly
3503	A. DIAMOND & ASSOCIATES, P.A.	2835 Smith Avenue ,Baltimore
3506	A. DIREDA PLUMBING & HEATING	3 Highridge Road ,Shrewsbury
3513	A. DUDA & SONS, INC.	P.O. Box 620257 ,Oviedo
3514	A. DUIE PYLE, INC.	650 Westtown Rd ,West Chester
3519	A. E. DRILLING SERVICES, LLC	2 United Way ,Greenville
3521	A. E. LITHO OFFSET PRINTERS, INC.	450 Broad St. ,Beverly
3523	A. E. RANDLES COMPANY, INC.	4617 South Third Avenue ,Tucson
3527	A. E. WEASE, INC.	420 North Main Street ,De Soto
3530	A. ENRIQUE WHITTWELL, M.D., P.A.	6705 Red Road, Suite 416 ,Coral Gables
3532	A. F. AMORELLO & SONS, INC.	115 Southwest Cutoff ,Worcester
3534	A. F. DANIEL TECHNOLOGY GROUP INC	40 South High Street ,West Chester
3536	A. F. INDUSTRIES, INC.	P. O. Box 91731 ,Lafayette
3538	A. F. STERLING HOME BUILDERS, LTD.	C/O 6340 N. Campbell Ave., Ste. 100 ,Tucson
3539	A. F. STERLING MARKETING, LLC	6340 N. Campbell, Suite 240 ,Tucson
3540	A. F. WENDLING, INC.	100 Wendling Plaza ,Buckhannon
3541	A. FAGAN & ASSOCIATES, INC.	P.O. Box 600 ,Briarcliff Manor
3542	A. FINKL & SONS CO.	1355 E. 93rd Street ,Chicago
3544	A. FISCHER BUILDERS, INC.	814 Ohio St ,Quincy
3545	A. FISHER CO., INC.	P. O. Box 277 ,Bridgewater
3546	A. FLOHR CO., INC.	150 East 58th Street ,New York
3547	A. FOLINO CONSTRUCTION, INC.	109 Dark Hollow Road ,Oakmont
3548	A. FORM ARCHITECTURE, P.C.	99 Bank Street, #7L ,New York
3549	A. FOX PHYSICAL THERAPY, PC	12297 Pennsylvania St. Ste 3 ,Thornton
3550	A. FRED SOLOMON, DMD, PA	1971 N. Main Street ,Summerville
3551	A. G. ADJUSTMENTS, LTD.	740 Walt Whitman Road ,Melville
3553	A. G. BISSET & CO., INC.	71 Rowayton Ave. ,Rowayton
3554	A. G. FERRARI FOODS	14234 Catalina Street ,San Leandro
3559	A. G. VAN METRE SERVICES, INC.	9900 Main Street, Suite 500 ,Fairfax
3560	A. G. WASSENAAR, INC.	2180 S. Ivanhoe, Suite 5 ,Denver
3561	A. GARRETT GOULDIN DDS MS PC	1497 Lily Loch Way ,Great Falls
3564	A. GARY SHILLING AND COMPANY, INC.	500 Morris Avenue ,Springfield
3577	A. GUARINO FUNERAL SERVICE LLC	584 Gramatan Avenue ,Mount Vernon
3578	A. H. BELO CORPORATION	508 Young Street ,Dallas
3579	A. H. DAVIS & SON, INC.	P.O. Box 385 ,Pocopson
3580	A. H. GROVER, INC.	P.O. Box 307 ,Cumberland
3582	A. H. HARRIS & SONS, INC.	433 South Main St., Suite 202 ,West Hartford
3583	A. H. LUNDBERG ASSOCIATES, INC.	P.O. Box 597 ,Bellevue
3585	A. H. NEWMAN, INC.	14713 2nd St Se ,Clifford
3586	A. H. PRODUCTS, INC.	24165 Ih-10 W., Ste. 217-632 ,San Antonio
3587	A. H. SYSTEMS, INC.	9710 Cozycroft Avenue ,Chatsworth
3593	A. HOHMANN & CO., INC.	1146 Dorchester Avenue ,Dorchester
3596	A. HUMPHREYS INSECT AND RODENT CONTROL, INC.	267 Main Avenue, Po Box 96 ,Stirling
3597	A. I. S., INC.	89 North Water Street ,New Bedford
3598	A. IZENBERG, INC.	205 Main Street ,Chatham
3599	A. J. & W. INCORPORATED	221 Kalihi St ,Honolulu
3600	A. J. BART, INC.	4130 Lindbergh Drive ,Addison
3602	A. J. BLOSENSKI, INC.	289 Lippitt Road ,Honey Brook
3603	A. J. DANBOISE SON, INC.	31015 Grand River Ave. ,Farmington Hills
3606	A. J. FLETCHER FOUNDATION	220 Fayetteville Street, Suite 300 ,Raleigh
3608	A. J. HOLLY & SONS, LTD.	526 S. Main Street, P.O. Box 254 ,Waupaca
3611	A. J. JOHNSON CONSULTING SERVICES, INC.	3521 Frances Berkeley ,Williamsburg
3612	A. J. JURICH, INC.	4500 Concord Road ,Aston
3613	A. J. KIRKWOOD & ASSOCIATES, INC.	2752 Walnut Avenue ,Tustin
3619	A. J. ONEAL & ASSOCIATES INC	109 N Falkenburg Rd ,Tampa
3620	A. J. PROIA & SON ASPHALT PAVING	301 Concord Road ,Billerica
3622	A. J. ROSE FLOORING, INC.	9 Bedford Street ,Burlington
3623	A. J. ROSE MANUFACTURING CO.	38000 Chester Rd. ,Avon
3625	A. J. SACKETT & SONS COMPANY	1701 South Highland Ave. ,Baltimore
3627	A. J. SLOANE & COMPANY, LLC	623 Fifth Avenue, 28th Floor ,New York
3628	A. J. SMITH, D.D.S.	3980 South 700 East, Suite 21 ,Murray
3630	A. J. TOMON & SONS FUNERAL HOME	7327 Pearl Road ,Middleburg Heights
3637	A. JAY CITRIN, D.D.S.	5601 North Oracle Road ,Tucson
3640	A. JOEL GLUCK, DDS, MS	803 Timber Lane ,Nashville
3643	A. JOHN VANDER ZEE, M.D. P.C.	411 10th Street Se ,Cedar Rapids
3653	A. KIRCHHEIMER COMPANY	5750 Old Orchard Road, Suite 370 ,Skokie
3655	A. KUEHNERT & CO., INC.	1019 Route 17M ,Monroe
3656	A. L. BLADES & SONS, INC.	Po Box 590 ,Hornell
3659	A. L. GRADING CONTRACTORS, INC.	110 Peachtree Industrial Blvd ,Sugar Hill
3662	A. L. KAYAFAS AGENCIES, INC.	P.O. Box 115 ,Wampum
3663	A. L. LEE CORPORATION	2075 Lester Highway ,Lester
3664	A. L. PATTERSON, INC.	300 Ben Fairless Drive ,Fairless Hills
3665	A. L. PICKENS CO., INC.	2500 Data Drive ,Louisville
3666	A. L. PRIME ENERGY CONSULTANT, INC.	18 Lark Avenue ,Saugus
3673	A. LARRY ROSS & ASSOCIATES, INC.	4300 Marsh Ridge ,Carrollton
3675	A. LAVELLE COUNSULTING SERVICES, LLC	203 N. Lasalle Street ,Chicago
3679	A. LEE NEUENSCHWANDER, D.D.S.	515 East Micheltorena St., Suite F ,Santa Barbara
3682	A. LINDBERG & SONS, INC.	599 Washington St. ,Ishpeming
3683	A. LINDSAY & OLIVE B OCONNOR FOUNDATION	Po Box D ,Hobart
3684	A. LINDSAY MORRISON, M.D., INC.	2720 N. Harbor Blvd ,Fullerton
3687	A. LOUIS JIMENEZ, D.P.M, P.C	2175 North Road ,Snellville
3690	A. LOUIS SUPPLY COMPANY	5610 Main Avenue ,Ashtabula
3691	A. LOWERY LIMITED	4105 N Frankford ,Lubbock
3692	A. LUCAS & SONS, INC.	1328 SW Washington St. ,Peoria
3693	A. LYSA SIMON	Po Box 33035 ,Granada Hills
3695	A. M. BEST COMPANY, INC.	Ambest Road ,Oldwick
3698	A. M. CONCRETE, INC.	P.O. Box 921388 ,Sylmar
3699	A. M. MARCA, INC.	361 Newbridge Road ,East Meadow
3701	A. M. PAPPAS & ASSOCIATES, LLC	2520 Meridian Parkway ,Durham
3703	A. M. PIZZA, INC.	15 Bassin Ln. ,Scituate
3707	A. M. SHINE ELECTRIC, INC.	5910 Nevada Avenue ,Woodland Hills
3708	A. M. SUTTON ASSOCIATES, INC.	278 North Country Road ,Miller Place
3709	A. M. TUCK, INC.	Po Box 486 ,Greenwood
3710	A. MARINELLI AND SONS, INC.	405 N. Walnut Street ,West Chester
3711	A. MARTIN LERNER, M.D., P.C.	32804 Pierce Road ,Beverly Hills
3712	A. MARTINI & COMPANY, INC.	320 Grant Street ,Verona
3713	A. MASTROCCO JR. MOVING AND STORAGE, INC.	1060 Louis Drive ,Warminster
3714	A. MAZZONE CO.	136 Myrtle Street ,Ashland
3715	A. MCCRAY JONES, III, DDS, PA	103 West Main Street ,Washington
3716	A. MERANTE CONTRACTING, INC.	4740 Streets Run Road ,Pittsburgh
3717	A. MICHAEL MOHEIMANI, MD, INC.	8 Catania ,Newport Beach
3720	A. MILLER CONSULTING SERVICES, INC.	2540 King Arthur Blvd Ste 219B ,Lewisville
3721	A. MONTANO, INC.	571 Route 212 ,Saugerties
3722	A. MONTILLI PLUMBING & HEATING CORP	205 Irving Place ,Woodmere
3724	A. MOUREK MANAGEMENT, INC.	156 Lawton Road ,Riverside
3725	A. N. LYNCH COMPANY, INC.	122 Finkbiner Rd ,Spring City
3728	A. O. SMITH CORPORATION	11270 West Park Place ,Milwaukee
3729	A. P. DAILEY CUSTOM LAMINATING CORP.	6 Ledge Road ,Windham
3731	A. P. FISCHER, INC.	1601 Caspian Avenue ,Long Beach
3734	A. P. LUBRANO & COMPANY, INC.	559 W. Uwchlan Avenue, Suite 210 ,Lionville
3735	A. P.WHITAKER & SONS, INC.	652 West Center Street ,West Bridgewater
3737	A. PANZA & SONS, LTD.	141 Fieldcrest Avenue ,Edison
3738	A. PAPISH, INC.	21 Taylor Street ,Danbury
3739	A. PAPPAJOHN COMPANY	66 Fort Point St ,Norwalk
3740	A. PARIKH. DDS, INC.	1490 El Camino Real ,San Bruno
3743	A. PAUL SERRANO, D.D.S., P.C.	800 W. Chandler Blvd., Suite 5 ,Chandler
3747	A. PICKETT CONSTRUCTION, INC.	128 West Vaughn Street ,Kingston
3749	A. POLETTO & ASSOCIATES, INC.	829 Lincoln Avenue ,West Chester
3750	A. PORCEL TRADING CORP.	286 Rider Avenue ,Bronx
3751	A. PRETE CONSTRUCTION COMPANY, INC.	156 Fulton Street ,New Haven
3756	A. R. HENDRICKSEN, DDS, INC.	4901 Mountain Laurel Drive ,Lynchburg
3758	A. R. SCHOPPS SONS, INC.	14536 Oyster Road ,Alliance
3760	A. R. T. INSTITUTE OF WASHINGTON, INC.	3 Regent Street, Suite 301 ,Livingston
3762	A. R. WILFLEY & SONS, INC.	7350 E Progress Pl Ste 200 ,Greenwood Village
3763	A. RAFANELLI WINERY AND VINEYARDS LP	4685 West Dry Creek Road ,Healdsburg
3764	A. RAIMONDO, INC.	450 Mt. Thor Road ,Greensburg
3765	A. RAINS, INC.	218 E. Ojai Avenue ,Ojai
3766	A. RAMSEY ENTERPRISES, INC.	307 W. Eastbank St. ,Gonzales
3768	A. RANDYS ELECTRIC, INC.	3798 131st. Avenue, N. ,Clearwater
3770	A. RAY NUNNERY, D.D.S., INC.	3050 Citrus Circle, Suite 220 ,Walnut Creek
3771	A. RAYMOND CORPORATE NORTH AMERICA	2350 Austin Avenue ,Rochester Hills
3779	A. RICHARD KACIN, INC.	3875 Old William Penn Hwy ,Murrysville
3780	A. RICHARD POLINO, D.C., P.C.	3001 Bridgeboro Rd ,Delran
3782	A. RIPEPI & SONS FUNERAL HOMES, INC.	18149 Bagley Road ,Middleburg Heights
3788	A. ROSS CORPORATION	P.O. Box 2555 ,Wilmington
3789	A. RUDIN, INC.	6062 Alcoa Avenue ,Los Angeles
3790	A. RUIZ CONSTRUCTION CO. & ASSOC., INC.	1601 Cortland Ave. ,San Francisco
3791	A. RUSSELL SMITH, ESQ.	159 South Main Street, Suite 503 ,Akron
3793	A. RUSSO WRECKING, INC.	67 East Avenue ,Lawrence
3794	A. S. ARBURY & SONS, INC.	115 Jerome St. ,Midland
3795	A. S. AUSTIN COMPANY	1211 N Westshore Blvd Ste 700 ,Tampa
3796	A. S. JONES & CO., INC.	7 Hastings St. ,Mendon
3802	A. SANTINI STORAGE CO. OF NJ, INC.	One Steel Court ,Roseland
3803	A. SCHNELLER SONS, INC.	36-31 38th Street ,Long Island City
3805	A. SCHULMAN, INC.	3550 W. Market Street ,Akron
3806	A. SCIOLTO & SON, INC.	541 Dyer Avenue ,Cranston
3809	A. SCOTT ENTERPRISES, INC.	238 Route 115 ,Saylorsburg
3810	A. SECONDINO & SON, INC.	Po Box 622 ,Branford
3811	A. SERVIDONE, INC./ B. ANTHONY CONSTRUCTION COP., JOINT VENTURE	3170 Bordentown Avenue ,Old Bridge
3814	A. SIDNEY LYONS, D.M.D.	416 West Broad Street ,Quakertown
3817	A. SMITH & CO. PRODUCTIONS LP	4130 Cahuenga Blvd Suite 128 ,Toluca Lake
3818	A. SOMMER TEXTILES CO., INC.	1379 Old County Road ,San Carlos
3819	A. SPENCER MCMANES, JR. P.C.	1015 Powers Place ,Alparetta
3823	A. STEVEN SINGH, D.D.S, P.C.	434 South First Avenue ,Hillsboro
3825	A. STUCKI COMPANY	900 Commerce Drive, Suite 906 ,Moon Township
3826	A. SULLIVAN & COMPANY	266 Mobil Ave Ste 106 ,Camarillo
3829	A. T. CONSTRUCTION MANAGEMENT, INC.	2271 Garrett Road ,Drexel Hill
3832	A. T. KLEMENS & SON, INC.	814 12Th St. N ,Great Falls
3833	A. T. LOCKE, PC	68 Pointe Circle ,Greenville
3834	A. T. PRODUCTS CORP.	W226 N1509 North Ave ,Waukesha
3835	A. T. PROUDIAN, INC.	736 Main Street ,New Rochelle
3836	A. T. REDDER & COMPANY, INC.	244 Pedretti Ave. ,Cincinnati
3837	A. T. S. STORE FIXTURES EQUIPMENT	1760 Britannia Drive, Unit 4 ,Elgin
3838	A. T. TAMBOLI, MD INC.	2814 Pennsylvania Avenue ,Weirton
3839	A. TASKER INC.	615 S. Stonestreet Avenue ,Rockville
3841	A. TENENBAUM CO. INC.	P.O. Box 15128 Gmf ,North Little Rock
3842	A. TERREL WILLIAMS, MD	3000 Old Canton Rd, Ste 305 ,Jackson
3843	A. THOMAS CORREIA, D.D.S., INC.	2441 Pawtucket Ave ,East Providence
3845	A. THOMAS, INC.	536 Meeting Street ,West Columbia
3846	A. TODD SMITH, DDS, P.A.	1601 South Hawthorne Road ,Winston Salem
3849	A. UZAIR WYNE, M.D., P.C.	2900 Lamb Circle ,Christianburg
3851	A. V. HUNTER TRUST, INC.	650 S. Cherry Street, Suite 535 ,Glendale
3852	A. V. LAKE CONSTRUCTION CO.	3427 Venice Road ,Sandusky
3853	A. V. PULMONARY CARE, INC.	340 West Milling Street ,Lancaster
3854	A. VENIERO & SONS, INC.	1 Wallace St ,Belleville
3858	A. VERNON ALLEN BUILDER, INC.	1175 First Avenue South ,Naples
3860	A. W. COOK CEMENT PRODUCTS, INC.	242 Amy Industrial Lane ,Hoschton
3861	A. W. CORPORATION	901 44th Street Se ,Grand Rapids
3862	A. W. HASTINGS & CO., LLC	2 Pearson Way ,Enfield
3863	A. W. LOOKUP CORPORATION	500 Fayette Street ,Conshohocken
3864	A. W. PERKINS	36 Curtis Ave, P O Box 637 ,Rutland
3866	A. W. THERRIEN CO., INC.	199 Hayward Street ,Manchester
3869	A. WALECKA AND SON INC.	2375 Cranberry Highway ,West Wareham
3870	A. WALSH IMAGING, INC.	55 Cannonball Road ,Pompton Lakes
3871	A. WASH & ASSOCIATES, INC.	603 48th Street N.E. ,Washington
3872	A. WAYNE FRANZ, DDS, PC	400 S Mccaslin Blvd ,Louisville
3873	A. WEITZENKORNS AND SONS, INC	145 E High Street ,Pottstown
3874	A. WELDORS SUPPLY COMPANY, INC.	3204 Southwest 131st Street ,Oklahoma City
3878	A. WILLIAM ROBERTS, JR. & ASSOCIATES, INC.	234 Seven Farms Drive, Suite 210 ,Charleston
3879	A. WOLFE & SON, INC.	12003 Wikel Rd ,Milan
3881	A. ZEREGAS SONS, INCORPORATED	P.O. Box 241 ,Fair Lawn
3882	A.A. ANDERSON & CO., INC.	21365 Gateway Court, Suite 300 ,Brookfield
3883	A.A. ASBESTOS	1307 Hartford Avenue ,Johnston
3885	A.A. CASEY COMPANY OF DAYTONA	1100 N Nova Rd ,Daytona Beach
3886	A.A. CONTE	31 West 007 North Avenue ,West Chicago
3890	A.A. SAYIA & CO., INC.	One Newark Street ,Hoboken
3891	A.A. WILL CORP.	145 Island Street ,Stoughton
3892	A.A. WILL MATERIALS CORPORATION	201 County Road ,East Freetown
3895	A.A.A. TENT AND AWNING COMPANY	3125 South State Street ,Salt Lake City
3896	A.A.ANDERSON, INC.	Po Box 7190 ,Shawnee Mission
3900	A.A.M. BUILDERS, INC.	225 SE 5th Avenue ,Boynton Beach
3902	A.A.R. TESTING LABORATORIES, INC.	P. O. Box 2523 ,Redmond
3903	A.B. ALIGNAY DDS PA	1224 Eastern Blvd. ,Baltimore
3906	A.B. DATA, LTD.	600 A B Data Drive ,Milwaukee
3907	A.B. DICK PRODUCTS CO. OF TUCSON	3450 S Broadmont Dr Ste 100 ,Tucson
3909	A.B. ENGINEERING, INC.	2211 Illion Street ,San Diego
3911	A.B. GILE, INC.	377 North Main Street ,West Lebanon
3912	A.B. GOODRICH CONTRACTING, LLC	3717 National Drive ,Raleigh
3913	A.B. HELLER, INC.	1235 Holden Avenue ,Milford
3914	A.B. ISACSON ASSOCIATES, INC.	29 Broadway Rm 1300 ,New York
3915	A.B. MASSA PAPER CORP.	6 Thorndal Circle ,Darien
3916	A.B. MAY	2017 W. 104th Street ,Leawood
3917	A.B. POWELL CO.	5409 Enterprise Boulevard ,Bethel Park
3918	A.B. SCHMITZ AGENCY, INC	2906 Roosevelt Road ,Kenosha
3919	A.B. SEA SALES AND RENTALS, INC.	53 Le Brun Court ,Galveston
3920	A.B. TOOLS, INC.	1051 Aviation Blvd. ,Lincoln
3923	A.B.C. REFRIGERATION & AIR CONDI	6619 Joy Road ,East Syracuse
3925	A.B.I./V.I.P, ATTORNEY SERVICES, INC.	2015 W. Park Ave. Ste 13 ,Redlands
3926	A.B.L.E CHIROPRACTIC	13335 Palomino Drive Suite 101 ,Apple Valley
3927	A.B.L.E., INC.	1700 Lancer Blvd. ,La Crescent
3929	A.B.S.C.O LTD. CORPORATION	119 Littleton Road ,Parsippany
3930	A.C . CRANE & SIGN SERVICE, INC.	16912 Norbrook Drive ,Olney
3933	A.C. & SONS, INC.	585 Wall Street ,Beaumont
3934	A.C. ADVISORY, INC	150 N. Wacker Drive ,Chicago
3935	A.C. ASSOCIATES, INC.	124 Park Avenue ,Lyndhurst
3937	A.C. COLLINS FORD, INC.	4242 E Sam Houston Pkwy, South ,Pasadena
3939	A.C. DELLOVADE, INC.	108 Cavasina Drive ,Canonsburg
3941	A.C. DESK CO., INC.	249 Elm Place ,Mineola
3943	A.C. DISTRIBUTION, INC.	5838 Bear Lane ,Corpus Christi
3944	A.C. ELECTRIC CORP.	120 Merrow Rd. ,Auburn
3945	A.C. ELECTRICAL CONTRACTORS, INC.	7837 Lanac ,Lansing
3948	A.C. GRACE, CO.	1100 Fm 2911 ,Big Sandy
3950	A.C. HOUSTON LUMBER COMPANY	5555 Arville Street ,Las Vegas
3951	A.C. IMPORTS INC.	1410 W Northwest Highway ,Palatine
3953	A.C. LEASING COMPANY INCORPORATED	3023 East Kemper Road ,Cincinnati
3955	A.C. LION INTERNATIONAL INC	253 West 35th Street ,New York
3956	A.C. MACHINING CO., INC.	3730 S. San Gabriel River Parkway ,Pico Rivera
3957	A.C. MELLOH, D.D.S., P.C.	7101 Southeastern Avenue ,Indianapolis
3958	A.C. MILLER CONCRETE PRODUCTS, INC.	31 East Bridge Street ,Spring City
3959	A.C. MOORE ARTS AND CRAFTS, INC	130 A.C. Moore Drive ,Berlin
3960	A.C. MOORE, INC.	130 Ac Moore Drive ,Berlin
3962	A.C. ROMAN & ASSOC.	300 Merrick Road ,Lynbrook
3963	A.C. SCHOMMER & SONS, INC.	6421 NE Colwood Way ,Portland
3964	A.C. TOOL AND MACHINE CO.	W185 N11424 Whitney Drive ,Germantown
3965	A.C. TRUCKING, INC	405 S. Vanconcellos ,Manteca
3966	A.C. WHITE TRANSFER & STORAGE COMPANY, INC.	1775 Founders Parkway ,Alpharetta
3970	A.C.A. MECHANICAL/INDUSTRIAL, LLC	Po Drawer 6176 ,Alexandria
3971	A.C.C.E.S.S., INC.	P.O. Box 3757 ,Gettysburg
3973	A.C.E. BUILDING SERVICE, INC.	107 W Main Street ,Little Chute
3974	A.C.E. INTERNATIONAL COMPANY, INC.	85 Independence Drive ,Taunton
3978	A.C.G. ASSOCIATES, INC.	234 Main Street ,New Hartford
3981	A.C.MCCARTNEY FARM EQUIPMENT COMPANY	14934 Freeport Road ,Durand
3983	A.C.T USA INTERNATIONAL LLC	1672 W. Hibiscus Blvd ,Melbourne
3984	A.C.T, INC.	11 Technical Park Drive ,Holbrook
3985	A.C.T. 898 PRODUCTS, INC.	14309 Proctor Ave. ,La Puente
3988	A.C.T. HOME HEALTH, INC.	4401 North I-35, Suite 208 ,Denton
3989	A.C.T. LIGHTING, INC.	5308 Derry Avenue ,Agoura Hills
3990	A.C.T. LOGISTICS, LLC	15409 146th Ave ,Jamaica
3991	A.C.T., INC.	6409 Land O Lakes Blvd ,Land O Lakes
3992	A.C.X. PACIFIC NORTHWEST, INC.	2600 G Street ,Bakersfield
3994	A.D. CONSTRUCTION COMPANY	1436 West 8040 South ,West Jordan
3997	A.D. FARROW, LLC	7754 Sr 37 E ,Sunbury
3998	A.D. HUESING CORPORATION	Po Box 6880 ,Rock Island
4000	A.D. LINES - EUROGROUP, INC.	200 Main Street, Unit 2E-F ,Monroe
4001	A.D. MAKEPEACE COMPANY	158 Tihonet Rd. ,Wareham
4002	A.D. MARBLE & CO., INC.	375 E Elm St Ste 200 ,Conshohocken
4004	A.D. OWENS CONSTRUCTION CORP	600 Wilkinson St. Suite 200 ,Orlando
4009	A.D. STOWE, INC.	P.O. Box 7247 ,Portsmouth
4011	A.D. TRANSPORT EXPRESS, INC.	5601 Belleville Road ,Canton
4013	A.D. WHITTAKER CONSTRUCTION, INC	Po Box 6190 ,Ashland
4016	A.D. WYNNE COMPANY INC.	710 Barrone St ,New Orleans
4017	A.D.A. ENGINEERING, INC.	8550 NW 33 Street, Suite 202 ,Doral
4019	A.D.A.M., INC.	10 Tenth Street, NE Suite 500 ,Atlanta
4021	A.D.E.,INC.	8635 Brookville Road ,Indianapolis
4026	A.E. BARNES & COMPANY INSURANCE AGENCY, INC.	141 Pleasant St ,South Weymouth
4028	A.E. BRUGGEMANN & CO., INC.	Po Box 1122 ,Southport
4029	A.E. CARTER & SONS, INC	2550 South 2570 West ,Salt Lake City
4032	A.E. FINLEY FOUNDATION INC.	1151 Newton Rd ,Raleigh
4034	A.E. GREYSON & COMPANY, INC.	45 Main Street ,Brooklyn
4036	A.E. JEWELERS, INC.	971 South Green Bay Road ,Neenah
4037	A.E. M. GROUP, LLC	111 Harrison Ave ,Oklahoma City
4038	A.E. MOURAD AGENCY, INC.	28277 Dequindre ,Madison Heights
4040	A.E. PETSCHE CO., INC.	2112 West Division ,Arlington
4042	A.E. SCHLUETER PIPE ORGAN SALES AND SERVICE INC.	2843 S Stone Mtn-Lithonia Road ,Lithonia
4044	A.E. STONE, INC.	1435 Doughty Road ,Egg Harbor Township
4045	A.E.B. INTERNATIONAL, INC	654 Madison Ave ,New York
4046	A.E.I. ENGINEERING, LLC	616 Fm 1960, Ste. 250 ,Houston
4047	A.E.T. SERVICES INC.	225 Prado Road Suite C ,San Luis Obispo
4049	A.F. BROWN ELECTRICAL CONTRACTORS,	2635-A Manhattan Beach Blvd ,Redondo Beach
4051	A.F. CONSULTANTS	1857 Galleon Drive ,Naples
4052	A.F. CRISSIE & CO.	1700 Higgins Road, Suite 320 ,Des Plaines
4056	A.F. HAUSER, INC.	4401 East U.S. 30 ,Valparaiso
4058	A.F. LUSI CONSTRUCTION, INC	39 Cedar Swamp Road ,Smithfield
4059	A.F. MACEDO INSURANCE AGENCY, INC.	646 Broadway ,Raynham
4063	A.F.K. CORPORATION	300 Pacific Street ,Ripon
4067	A.G. & G., INC.	21 Mill Street ,Johnston
4068	A.G. & R. ALLIANCE CORPORATION	18121 Gloria Circle ,Villa Park
4070	A.G. ASSOCIATES, INC.	1033 Kelley Avenue ,Akron
4073	A.G. BISSET ASSOCIATES, LLC	40 Richards Ave. ,Norwalk
4076	A.G. FRANZ ASSOCIATES, LLC	5 Stanton Ct. ,Plainsboro
4077	A.G. HEINS CO., INC.	116 Heins Street ,Knoxville
4079	A.G. HOLDINGS, LLC	9340 East Central, Ste. A ,Wichita
4081	A.G. LAYNE, INC	4578 Brazil Street ,Los Angeles
4082	A.G. MACHINE, INC.	903 Dogwood Avenue ,Grottoes
4083	A.G. MARTIN, INC.	P.O. Box 37167 ,Tucson
4085	A.G. OBRIEN PLUMBING AND HEATING COMPANY	4907 Lightning Drive ,Hermantown
4086	A.G. PARROTT COMPANY	6421 Loudon Avenue ,Elkridge
4088	A.G. QUINTAL INVESTMENT CO.,INC.	2177 Acushnet Ave ,New Bedford
4089	A.G. RUSSELL KNIVES, INC.	2900 S. 26 Street ,Rogers
4090	A.G. SALESWORKS, INC.	661A Pleasant Street ,Norwood
4091	A.G. SIMPSON USA INC	675 Progress Avenue ,Scarborough
4092	A.G. TECHNOLOGIES, INC.	1254 Okeechobee Rd ,West Palm Beach
4094	A.G.A., INC.	7605 Westfield Dr. ,Fort Wayne
4095	A.G.H. TRIMSOURCE, INC.	252 West 37th Street, 3rd Floor ,New York
4097	A.G.I.A., INC.	1155 Eugenia Place ,Carpinteria
4098	A.G.N. DENTAL ASSOCIATES, P.C.	133 Mountain Road ,Suffield
4099	A.G.QUINTAL INVESTMENT CO.,INC.	2177 Acushnet Ave ,New Bedford
4100	A.G.S., INC.	11234 Air Park Road ,Ashland
4102	A.H. BECK FOUNDATION CO., INC	5123 Blanco Road ,San Antonio
4103	A.H. BENNETT COMPANY	333 Washington Ave. N. Suite 300 ,Minneapolis
4104	A.H. COMPUTER CONSULTING INC	2301 Research Blvd ,Rockville
4105	A.H. CORNELL & SON, INC.	Po Box 311 ,Jamison
4111	A.H. JAMRA COMPANY, INC.	201 South St. Clair St. ,Toledo
4112	A.H. MANAGEMENT GROUP, INC.	1151 Rohlwing Road ,Rolling Meadows
4113	A.H. MEYERS & COMPANY	1 West Main Street ,Marlton
4114	A.H. NEAL SALES, INC.	7317 E. Greenway Rd. ,Scottsdale
4115	A.H. RIISE GIFT SHOP, INC.	P.O. Box 6280 ,St. Thomas
4116	A.H. SCHREIBER CO., INC.	460 W 34th Street ,New York
4118	A.H. STOCK MANUFACTURING CORPORATIO CORPORATION	8402 Center Rd ,Newton
4120	A.H.D.C., INC.	3128 Willow, Suite 101 ,Clovis
4121	A.I. ADVANCE IMAGING OF TULSA	6757 S Yale Ave ,Tulsa
4123	A.I. FRIEDMAN, L.P.	44 West 18th Street ,New York
4126	A.I. SOLUTIONS, INC.	10001 Derekwood Lane, Suite 215 ,Lanham
4128	A.I.A. ENGINEERS, LTD.	15310 Park Row ,Houston
4129	A.I.A.D.A.	500 Montgomery Street, Suite 800 ,Alexandria
4132	A.I.M. CORPORATION	19200 Middletown Rd ,Parkton
4135	A.I.M. TOOL & DIE, INC.	1840 142nd Avenue ,Dorr
4136	A.J. ABRAMS CO., INC.	21 Manomet Rd. ,Sharon
4137	A.J. ALLEN MECHANICAL CONTRACTORS, INC.	320 SE 6th St ,Des Moines
4138	A.J. AMER AGENCY, INC	3700 Embassy Parkway ,Akron
4139	A.J. ANTICO IRRIGATION SYSTEMS, INC	72 Jefferson Street ,Marlborough
4140	A.J. ANTUNES & CO.	180 Kehoe Blvd ,Carol Stream
4142	A.J. AUTO CENTER, INC.	Route 435 ,Moscow
4144	A.J. BEKAVAC FUNERAL HOME	555 Fifth Street ,Clairton
4146	A.J. BILLIG & CO., LLC	6500 Falls Road ,Baltimore
4147	A.J. BROWN, INC.	635 Trade Center ,Chesterfield
4149	A.J. CELIANO, INC.	460 Ludlow Avenue ,Cranford
4150	A.J. CLARKE REAL ESTATE CORP.	1881 Broadway ,New York
4151	A.J. COLON CONSULTING, LLC	5271 Golden Sky Ct ,Columbia
4152	A.J. DECKER CONSTRUCTION COMPANY	23724 N. Central Avenue ,Phoenix
4155	A.J. ETHEREDGE COMPANY	430 Highway 6 South, Suite 150 ,Houston
4156	A.J. EXTERIORS INC	17343 S Parker Rd ,Homer Glen
4161	A.J. GOULDER ELECTRIC, INC.	4307 Hamann Parkway ,Willoughby
4163	A.J. LANE DEVELOPMENT CORP.	1500 Worcester Road ,Framingham
4164	A.J. LEBLANC HEATING, INC.	45 South River Road ,Bedford
4165	A.J. LEVIN COMPANY, INC.	3108 Valhalla Drive ,Burbank
4166	A.J. MANUFACTURING, INC.	1217 Oak Street ,Bloomer
4168	A.J. NOWAC LANDSCAPING, INC.	7900 Eagle Rd. ,Kirtland
4171	A.J. ONEAL & ASSOCIATES, INC.	109 Falkenburg Rd. ,Tampa
4174	A.J. PERRI INC.	1138 Pine Brook Road ,Tinton Falls
4175	A.J. RILEY, INC.	151 Akron Road Sr 18 ,Norwalk
4177	A.J. SCHRAFEL PAPER CORPORATION	248-32 Jericho Turnpike ,Floral Park
4179	A.J. SHIRVAN, D.D.S.	5635 Stratford Circle, Suite C-36 ,Stockton
4180	A.J. SILBERMAN & COMPANY	267 Blue Run Road ,Indianoloa
4182	A.J. SMITH FEDERAL SAVINGS BANK	14757 South Cicero Avenue ,Midlothian
4183	A.J. SPORTS, INC.	2821 Sharer Road ,Tallahassee
4184	A.J. TOOL CO., INC.	3026 Beachwood Industrial Ct. ,Hubertus
4186	A.J. TRUNZO, INC.	8013 Bethlehem - Bath Pike ,Bath
4187	A.J. VATER & COMPANY, INC .	201 Munson Ave ,Mc Kees Rocks
4188	A.J. VENTURES, INC.	34918 North 12Th Street ,Phoenix
4189	A.J. VICINO & SONS, INC.	259 New Britain Avenue ,Rocky Hill
4192	A.J. WELLER CORPORATION	P.O. Box 17566 ,Shreveport
4193	A.J. WISSING, PSC	206 Breckinridge Lane ,Louisville
4195	A.J.D. HOLDING COMPANY	2181 Enterprise Parkway ,Twinsburg
4198	A.J.S. PROJECT MANAGEMENT, INC.	149 5th Ave. , 11th Floor ,New York
4201	A.K. BOBBY MALLIK D.M.D., P.A.	3719-B University Drive ,Durham
4204	A.K. METAL FABRICATORS, INC.	4401 Wheeler Avenue ,Alexandria
4206	A.K. SERVICES, INC.	347 Third Street ,Everett
4212	A.K.A. SAUNDERS, INC.	2700 Rydin Road, Unit D ,Richmond
4213	A.K.J., LTD.	1051 Perimeter Drive #1125 ,Schaumburg
4214	A.K.S. INTERNATIONAL INC.	37-04 19th Avenue, Suite 100 ,Astoria
4216	A.L. BAUMGARTNER CONSTRUCTION, INC.	13779 Walton Verona Road Po Box 54 ,Walton
4217	A.L. BELROSE COMPANY, INC.	4350 Roger B Chaffee Mem Dr Se ,Grand Rapids
4218	A.L. EASTMOND AND SONS, INC.	1200 Oakpoint Avenue ,Bronx
4219	A.L. FIRE PROTECTION, LLC	45 Cherry St ,East Hartford
4227	A.L. MILTON CONSTRUCTION, INC.	2701 S.E. Maricamp Road ,Ocala
4228	A.L. NELLA & COMPANY, LLP	1390 Market Street, Suite 1004 ,San Francisco
4229	A.L. SCHUTZMAN COMPANY	N21 W23560 Ridgeview Parkway West ,Waukesha
4230	A.L. SMITH TRUCKING, INC.	8984 Murphy Road ,Versailles
4232	A.L.B.A. ENTERPRISES, INC.	10260 Indiana Court ,Rancho Cucamonga
4233	A.L.L. CONSTRUCTION, INC.	P.O. Box 92 ,Mt Storm
4234	A.L.L. MASONRY CONSTRUCTION COMPANY	1414 W. Willow Street ,Chicago
4235	A.L.L. ROOFING MATERIALS OF SAN JOSE, LLC	2066 S. 10th Street ,San Jose
4237	A.L.M. INC	1750 K Street, NW ,Washington
4239	A.M. & S. TRANSPORTATION CO.	1700 24th Street ,Oakland
4240	A.M. BICKFORD, INC.	12318 Big Tree Rd. ,Wales Center
4243	A.M. CABINETS, INC.	239 E Gardena Ave ,Gardena
4244	A.M. COHRON & SON, INC.	62180 Great River Road ,Atlantic
4245	A.M. COLLECTIONS, LTD.	584 Broadway, Suite 201 ,New York
4251	A.M. FOGARTY AND ASSOCIATES, INC.	175 Derby Street, Suite 5 ,Hingham
4253	A.M. JANNSEN WELL DRILLING CO., INC.	21075 SW Tualatin Valley Hwy ,Aloha
4257	A.M. LEONARD,INC.	Po Box 816 ,Piqua
4259	A.M. MAILING SERVICES, LLC	100 Interstate Blvd. ,Edgerton
4260	A.M. METAL FINISHING, INC.	7594 Chancellor Dr. ,Orlando
4263	A.M. PAYNE & ASSOCIATES, INC.	1610 Westchester Drive ,High Point
4264	A.M. PECK & CO., INC.	414 Walnut Street, Suite 1000 ,Cincinnati
4265	A.M. PEISCH & COMPANY, LLP	57 Farmvu Drive ,White River Junction
4266	A.M. PLAYER, INC.	12338 Lower Azusa ,Arcadia
4267	A.M. SERVICES, INC.	3460 East Ellsworth Road, Suite 200 ,Ann Arbor
4270	A.M. SWISS SCREW MACHINE PRODUCTS, INC.	345 Industrial Drive ,South Elgin
4272	A.M. TRANSPORTATION SERVICES, INC.	20 Central Avenue ,Ayer
4274	A.M. VIDEO PRODUCTIONS, INC.	13027 Messina Circle ,Fishers
4282	A.M.C.S.	Po Box 1302 ,Johns Island
4283	A.M.E. ELECTRIC, INC.	3621 Arthur Street ,Caldwell
4286	A.M.I. AIR CONDITIONING AND REFRIGERATION, INC.	4044 N. 30th Avenue ,Hollywood
4287	A.M.M., LTD.	7045 Veterans Blvd., Suite A1 ,Burr Ridge
4291	A.M.Y. MOHAWK TRANSFER, INC.	426 Sand Shore Road ,Hackettstown
4292	A.N. ABELL AUCTION CO.	2613 Yates Avenue ,Commerce
4293	A.N. CULBERTSON & COMPANY, INC.	One BoarS Head Pointe Ste 101 ,Charlottesville
4294	A.N. DERINGER, INC.	64 North Main Street ,St. Albans
4296	A.N. NUNES, INC.	549 Hope Street ,Bristol
4298	A.N.C.O. FASTENER SALES	2130 W 6th Ave ,Eugene
4299	A.N.D. CONTRACTORS, INC.	43808 Beaver Meadows Road ,Sterling
4300	A.N.D. TECHNOLOGIES, INC.	4104 24th Street, 627 ,San Francisco
4301	A.O. HARDEE & SON	55 Park Street Ext ,Little River
4302	A.O. INC.	1841 Monetary Lane ,Carrollton
4305	A.O. TEXTILES, INC	149 West 36th Street ,New York
4307	A.OLIVERI AND SONS INC	4401 Dell Ave ,North Bergen
4308	A.P. CAMPAIGNS, INC.	1245 Independence Avenue, Se ,Washington
4309	A.P. CONSTRUCTION, INC.	C/O P.O. Box 819 ,Blue Bell
4310	A.P. CROLL & SON, INC.	22997 Lewes-Georgetown Highway ,Georgetown
4311	A.P. DEAUVILLE	594 Jersey Avenue ,New Brunswick
4312	A.P. EXPRESS, LLC	8500 Rex Road ,Pico Rivera
4315	A.P. NONWEILER COMPANY, INC.	3321 North Shore Drive ,Oshkosh
4316	A.P. OHORO CO., INC.	3130 Belmont Ave. ,Youngstown
4317	A.P. PHARMA, INC.	123 Saginaw Drive ,Redwood City
4321	A.P. SOLUTIONS INC.	4500 Lee Road, Suite 127 ,Cleveland
4322	A.P. SUPPLY CO., INC.	632 Dayton Street ,Akron
4323	A.P. SUPPLY COMPANY	1400 Oats ,Texarkana
4324	A.P. WILLIAMS INC.	2325 Paxton Church Rd ,Harrisburg
4325	A.P.A. SALES CORP	303 5th Ave Rm 1803 ,New York
4328	A.P.I. CONSTRUCTION CORPORATION	P. O. Box 191 ,Laotto
4329	A.P.I. SOLUTIONS, INC.	Po Box 730 ,Loxley
4330	A.P.W. KNOX-SEEMAN WAREHOUSE, INC.	1073 E. Artesia Blvd., ,Carson
4331	A.Q.L. DECORATING CO INC.	215 Bergen Boulevard ,Fairview
4332	A.Q.M. INC.	15 E. Uwchlan Avenue ,Exton
4334	A.R. ARENA PRODUCTS, INC.	2101 Mt Read Blvd ,Rochester
4339	A.R. BUILDING CO.	310 Seven Fields Blvd. ,Seven Fields
4340	A.R. CHAMBERS AND SON, INC.	156 N Washington Rd ,Apollo
4341	A.R. CHESSON CONSTRUCTION COMP	Po Box 1147 ,Williamston
4342	A.R. DESIGN STUDIO ARCHITECT P.C.	87A Main Street #3S ,South Hampton
4346	A.R. KOOPAH, D.D.S. & A. KOOPAH, D.D.S., A.P.C.	166 Geary Street, 8th Floor ,San Francisco
4347	A.R. KRONSTADT REALTY INVESTORS, INC.	11820 Parklawn Drive, Suite 404 ,Rockville
4348	A.R. MACHINING, INC	632 West Front Street ,Hutto
4349	A.R. MARANI, INC.	7500 Harford Road ,Baltimore
4350	A.R. MAYS CONSTRUCTION, INC.	C/O 555 Main Street, Suite 300 ,Racine
4352	A.R. MILLER ENGINEERING, INC.	1516 Hillcrest St ,Orlando
4353	A.R. NORTH AMERICA, INC.	140 81st Ave Ne ,Fridley
4356	A.R. SANDRI, INC.	400 Chapman Street ,Greenfield
4357	A.R. SAVAGE & SON, LLC	202 South Rome Avenue, Suite 200 ,Tampa
4358	A.R. SCHMEIDLER & CO.,INC	500 Fifth Avenue ,New York
4363	A.R.C. RECRUITING SOLUTIONS	4625 Alexander Dr, Ste 160 ,Alpharetta
4365	A.R.I. INDUSTRIES, INC.	17018 Edwards Rd. ,Cerritos
4366	A.R.K. RAMOS FOUNDRY & MANUFACTURING COMPANY	1321 South Walker ,Oklahoma City
4368	A.R.M. INC.	3333 S. Pennsylvania Ave. Suite 100 ,Lansing
4369	A.R.M. US, INC.	1506 Fernwood Road ,Wintersville
4371	A.R.S. ENGINEERS, INC.	12801 N. Central Expressway Suite 1 ,Dallas
4373	A.R.T. ADVISORS, L.L.C.	500 Park Avenue ,New York
4375	A.S. BELL ENGINEERING PC	5895 Johnston Road ,Slingerlands
4378	A.S. HORNER, INC	P.O. Box 9105 ,Albuquerque
4380	A.S. LOMBARDO, P.A.	111-A Executive Circle ,Daytona Beach
4381	A.S. MANAGEMENT, INC.	103 Billins Gate ,Moresville
4382	A.S. NEUROLOGY, PC	210 Old Canpion Rd. ,New Hartford
4384	A.S. PINDEL CORP.	2505 S. 170th Street ,New Berlin
4385	A.S. RADOS, INC	P.O. Box 15184 ,Santa Ana
4388	A.S.A.P. LINEN, INC.	36-38 Iowa Avenue ,Paterson
4394	A.S.E. SUPPLY, INC.	Po Box 30599 ,Portland
4397	A.S.G. STAFFING, INC.	231 W. Grand Ave., Suite 102 ,Bensenville
4398	A.S.I. HASTINGS, INC.	4870 Viewridge Avenue, Suite 200 ,San Diego
4399	A.S.K. CONSTRUCTION INC.	48-51 36St Street ,Long Island City
4400	A.S.K. FINANCIAL, INC.	18653 Ventura Blvd, Box 361 ,Tarzana
4403	A.S.T. INCORPORATED	4150 Grange Hall Road ,Holly
4404	A.S.T.H.M.A., INC.	C/O 2840 Northup Way, Suite 210 ,Bellevue
4407	A.T. CHADWICK COMPANY, INC	100 Dunksferry Rd ,Bensalem
4408	A.T. CROSS COMPANY	1 Albion Road ,Lincoln
4410	A.T. DISTRIBUTION, INC	10610 Metromont Pkwy Ste#100 ,Charlotte
4412	A.T. KEARNEY, INC.	A.T. Kearney, Inc. ,Chicago
4414	A.T. RENCZARSKI & CO., INC.	1500 D N.W. Vivion Road ,Kansas City
4415	A.T. REYNOLDS AND SONS, INC.	P.O. Box 168 ,Kiamesha Lake
4416	A.T. STILL UNIVERSITY OF HEALTH SCIENCES	800 West Jefferson Street ,Kirksville
4419	A.T.C.N.E.	77 Warren Street ,Brighton
4423	A.T.S ELECTRIC COMPANY, INC.	34522 N Scottsdale Road #447 ,Scottsdale
4424	A.T.S. MANAGEMENT, LLC	537 Main Street ,Loch Arbor
4425	A.T.S. MECHANICAL, INC.	6616 W. State Ave ,Glendale
4429	A.V. ARIAS ACCOUNTANCY CORPORATION	450 B Street, Suite 1480 ,San Diego
4431	A.V. COMMUNICATIONS, INC.	812 Goshen Road, Apt. A22 ,West Chester
4433	A.V. LAUTTAMUS COMMUNICATIONS, INC.	1344 Cove Road ,Weirton
4434	A.V. OLSSON TRADING COMPANY, INC.	2001 W Main St ,Stamford
4435	A.V. REILLY INTERNATIONAL, LTD	1555 N. Michael Drive ,Wood Dale
4437	A.V. TUCHY BUILDERS, INC.	1 Mcclintock Street ,Norwalk
4438	A.V. WEBER CO., INC.	101 Elm Avenue ,North Wales
4440	A.V.M. COMPANY, INC.	62 Marway Circle ,Rochester
4441	A.V.P., INC.	3450 S. Camellia Place #1 ,Chandler
4443	A.V.S. CATERING, INC.	2045 N. Fayetteville St. ,Asheboro
4444	A.V.S. CORPORATION	Po Box 12037 ,San Juan
4445	A.W. & SONS ENTERPRISES	309 East Beaver Ave ,State College
4447	A.W. AYRES AGENCY, INC.	P.O. Box 699 ,Schoolcraft
4449	A.W. BRAVIS AGENCY, LLC	1305 S.E. 8th Street, Suite 101 ,Bentonville
4450	A.W. BROWN FELLOWSHIP CHARTER SCHOOL	3810 W. Red Bird Lane ,Dallas
4452	A.W. FABER-CASTELL USA, INC.	9450 Allen Drive ,Cleveland
4454	A.W. GOLDEN, INC.	801 Lancaster Avenue ,Reading
4455	A.W. HAMEL STAIR MFG., INC.	3111 Amsterdam Rd., Rt. 5 ,Scotia
4458	A.W. MARSHALL CO., A UTAH CORPORATION	437 North 500 West ,Salt Lake City
4459	A.W. MEYER CO., INC.	509 Broad Avenue ,Ridgefield
4460	A.W. MILLER TECHNICAL SALES	P.O. Box #16 ,East Aurora
4461	A.W. OAKES & SON, INC.	2000 Oakes Road ,Racine
4463	A.W. TROUTMAN CO.	640 State St. ,Millersburg
4464	A.W. WENDELL & SONS, INC.	1121 Warren Ave ,Downers Grove
4465	A.W. WILLIAMS INSPECTION CO., INC	Po Box 2527 ,Mobile
4467	A.W.C.R.I. MEDICAL GROUP, INC.	42 Park Place ,Pawtucket
4470	A.Y. MCDONALD INDUSTRIES, INC.	4800 Chavenelle Rd ,Dubuque
4471	A.Y. MCDONALD MFG. CO.	4800 Chavenelle Rd ,Dubuque
4472	A.Y. NURSERY, INC.	P.O. Box 4115 ,Riverside
4473	A.Y. SHUKLA, M.D., P.A.	1601 Main Street, Suite 201 ,Richmond
4475	A.Y.M., INC.	4800 Chavenelle Rd ,Dubuque
4476	A.Z. SHMINA, INC.	11711 Grand River Rd. ,Brighton
4477	A/B TECHNOLOGIES INTERNATIONAL, INC.	402 Shelly St. ,Springfield
4478	A/C CONTRACTORS, INC.	3830 Gilmer Road ,Longview
4480	A/C ELECTRIC SERVICE OF SOUTHWEST FLORIDA, INC.	5815 Washington Street, 103 ,Naples
4481	A/C SALES CORPORATION	6649 H Peachtree Industrial Blvd. ,Norcross
4482	A/C SERVICE AND REPAIR, INC.	5166 Commerce Drive ,York
4483	A/C SUPPLY, INC.	1305 Edwards Avenue ,Harahan
4484	A/C TECHNICAL SERVICES, LTD	15425 Highway ,Castroville
4485	A/C WAREHOUSE, INC.	710 60th Street Ct. East ,Bradenton
4486	A/COE COMMUNICATIONS, INC.	18 Windjammer Lane ,Mt. Arlington
4487	A/E BUSINESS, INC.	444 South Flower Street ,Los Angeles
4488	A/E DATA INTEGRATION, INC.	15907 Cranberry Court ,Dumfries
4489	A/E GRAPHICS, INC.	4075 North 124th Street ,Brookfield
4491	A/E/C SOLUTIONS, INC.	125 Summer Street ,Boston
4492	A/P RECOVERY INC	975 Johnnie Dodds Blvd ,Mount Pleasant
4494	A/R PACKAGING CORP.	W222 N744 Cheaney Road ,Waukesha
4495	A/R PORT-A-STOR	5314 Maumee Road ,Fort Wayne
4496	A/R SNF SOLUTIONS LLC	10506 - 420th Ave. S.E. ,North Bend
4498	A/Z CORPORATION	P.O. Box 370 ,North Stonington
4500	A-1 ACTION NURSING CARE, INC.	3508 Greencastle Road ,Burtonsville
4502	A-1 ADVANTAGE ASPHALT INC	6496 Florin Perkins Rd ,Sacramento
4504	A1 AIR	601 E. Corporate Dr. ,Lewisville
4505	A-1 AIR COMPRESSER CORPORATION	679 Winthrop Avenue ,Addison
4506	A-1 AIR CONDITIONING, INC.	720 Brantford Dr ,Port Allen
4508	A-1 A-LECTRICIAN, INC.	2849 Kaihikapu Street ,Honolulu
4511	A-1 ASPHALT SEALING & REPAIR, INC.	4634 Division ,Wayland
4512	A1 AUTO BODY WORKS OF NEW MILFORD, INC.	26 Bridge St ,New Milford
4513	A-1 AUTO SERVICE, INC.	50 Amity Road ,New Haven
4515	A-1 AUTOMOTIVE REPAIR & SERVICE LLC	128 Third St ,Picayune
4516	A-1 AUTOMOTIVE SERVICE	182 Pond Street Route 126 ,Ashland
4518	A1 BODY AND GLASS, LLC	4400 N. Powerline Road ,Deerfield Beach
4520	A-1 BONDING, INC.	550 Halekauwila Street ,Honolulu
4521	A-1 BRACKET GROUP, INC.	145 W. Philadelphia Ave. ,Morrisville
4523	A-1 BROOKLYN BROKERAGE, INC.	2535 Mcdonald Avenue ,Brooklyn
4524	A-1 BUDGET PLUMBING INC	131 Hekili Street ,Kailua
4525	A1 CARE	31 North 2nd Street Suite 100 ,San Jose
4527	A-1 CELLULAR, INC.	1950 Mister Joe White Avenue ,Myrtle Beach
4528	A-1 CHIPSEAL CO.	2001 West 64th Lane ,Denver
4530	A-1 COAST RENTALS, INC.	24000 Crenshaw Boulevard ,Torrance
4532	A1 COLLISION INC	297 Littleton Rd ,Chelmsford
4533	A-1 COMFORT SYSTEMS, INC.	P. O. Box 13066 ,Florence
4536	A-1 CONSTRUCTION SPECIALTY, INC.	769 W. Main Street ,Collegeville
4537	A-1 CONTRACT STAFFING GROUP LLC	3829 Coconut Palm Drive ,Tampa
4538	A-1 CONTRACT STAFFING, INC.	3829 Coconut Palm Drive ,Tampa
4539	A-1 CONTRACTORS, LLC	201 Cherry St ,Beaver Dam
4542	A-1 DELIVERY CO.	19805 E Business Parkway ,Walnut
4544	A-1 DENTAL	8101 Fondren Rd. ,Houston
4545	A-1 DOOR SPECIALTIES, INC.	2216 Wayne Haven ,New Haven
4547	A-1 DRY CLEANERS	6223 Montgomery Rd ,Cincinnati
4548	A1 ELECTRIC	4661 E. Greenstreet Cir. ,Wasilla
4549	A-1 ELECTRIC	861 E. Glendale Avenue ,Sparks
4550	A-1 ELECTRIC COMPANY, INC.	4204 S. Sepulveda Blvd. ,Culver City
4552	A-1 ENGRAVING COMPANY, INC.	8225 Phlox St ,Downey
4553	A-1 ENTERPRISES	735 Clark Avenue ,Yuba City
4554	A-1 ENTERPRISES, INC.	2831 E. La Cresta Ave. ,Anaheim
4556	A-1 EQUIPMENT SERVICE & REPAIR INC.	518 Browns Lane ,Croydon
4557	A-1 EXCAVATING, INC.	Po Box 90 ,Bloomer
4558	A1 EXPERT SERVICE, INC.	151 W Industry Court ,Deer Park
4559	A-1 EXPRESS DELIVERY SERVICES, I	1231 Collier Road ,Atlanta
4560	A-1 EXTERMINATORS INC	183 Shepard Street ,Lynn
4561	A-1 FABRICATION, INC.	17245 East Ten Mile Rd. ,East Pointe
4563	A-1 FARGO VAN & STORAGE INC.	7700 SW 100 Street ,Miami
4564	A-1 FASTENERS & TOOLS, INC.	4200 North Graham Street ,Charlotte
4566	A-1 FIRE EQUIPMENT CO., INC.	12711 East Freeway ,Houston
4567	A-1 FIRE EQUIPMENT, INC. C/O CINTAS CORPORATION	6800 Cintas Boulevard ,Cincinnati
4568	A1 FIRST CLASS - VIKING MOVING & STORAGE, INC.	156 Hinsdale Street ,Brooklyn
4569	A-1 FLORIDA SOD, INC.	450 Deen Still Road ,Davenport
4570	A-1 FREEMAN MOVING AND STORAGE COMPANY	11517 Broadway Extension ,Oklahoma City
4571	A-1 FUEL	1739 Ridgeway Avenue ,Rochester
4572	A-1 GLASS COMPANY, INC.	7278 Centreville Road ,Manassas
4573	A-1 GLASS SERVICES, INC.	1247 N. Collins Blvd. ,Covington
4574	A-1 GLASS, INC.	286 Millard Farmer Ind Blvd ,Newnan
4578	A-1 HEATING & AIR CONDITIONING	327 N Linder ,Meridian
4579	A-1 HOMECARE CONSULTING & STAFFING	12276 Landers Ct. ,Plymouth
4580	A-1 HYDRAULIC SERVICES INC	7540 15th Street East ,Sarasota
4583	A-1 IRRIGATION	28511 Cole Grade Road ,Valley Center
4584	A-1 LAPPING & MACHINE COMPANY, INC.	539 Grable Street ,Rockford
4585	A-1 LAWN SERVICE INC.	3983 S. Farm Road 205 ,Rogersville
4586	A-1 LEASING, INC.	2217 East Washington Street ,Phoenix
4587	A-1 LIMOUSINE, INC.	2 Emmons Drive ,Princeton
4589	A-1 LOGGING, INC.	135 N Maple St ,Yamhill
4591	A-1 MACHINE, INC.	Po Box 106 ,Frederic
4592	A-1 MACHINING COMPANY	235 John Downey Drive ,New Britain
4594	A-1 METALS	2655 Elkhorn Blvd. ,Rio Linda
4595	A-1 MILMAC INC	460 Cabot Road ,South San Francisco
4597	A-1 MOBILE HOMES, INC.	Hwy Ss South, P.O. Box 348 ,Rice Lake
4598	A-1 MORTGAGE CORP.	2820 Hartford Avenue ,Johnston
4599	A-1 MORTGAGE SERVICES, INC.	136 Stewart Road Se ,Pacific
4600	A1 MOTORS, INC.	545 West Loudon Street ,Chambersburg
4601	A1 ORANGE CLEANING SERVICE COMPANY, INC	P.O. Box 555704 ,Orlando
4602	A-1 OUTDOOR POWER INC	7630 Commerce St ,Corcoran
4603	A-1 OVER THE ROAD PERMITS, INC.	P.O. Box 104193 ,Jefferson City
4604	A1 PAWN BROKERS, INC.	2131 Coney Island Ave. ,Brooklyn
4606	A-1 PIANO SALES & RENTALS, INC.	7020 Greenwood Ave N ,Seattle
4607	A-1 PLUMBING INC	2540 19th St Se ,Salem
4608	A1 POLISHING & FINISHING, INC.	1320 Milwaukee Drive ,New Holstein
4609	A1 POOL PARTS	1507 W Alton 1st Floor ,Santa Ana
4610	A-1 POOLS & SPAS CORP	199 Quaker Farms Rd ,Oxford
4611	A-1 PORTABLE BUILDINGS, INC.	801 Enterprise Dr ,Lexington
4612	A1- PRESTO ROOFING	8089 NW 67th Street ,Miami
4614	A-1 PUMP, INC.	P.O. Box 4289 ,Bryan
4620	A-1 RENTALS INC	14891 E 40 Highway ,Kansas City
4621	A-1 RESTAURANT SUPPLY CO.	732 N. 16th Street ,Allentown
4622	A-1 ROLL, CO.	301 Church St ,Mount Clemens
4625	A-1 ROOFING, INC.	Po Box 2257 ,Olympia
4627	A-1 SECURITY & FIRE EQUIPMENT CO., INC.	6701 Imperial Dr ,Waco
4628	A-1 SECURITY BARS, INC	411 N Centennial St ,Zeeland
4629	A-1 SEPTIC TANK SERVICE, INC.	1111 Industrial Parkway West ,Hayward
4630	A-1 SERVICE INC	555 Colidge St ,Jefferson
4631	A-1 SEWER AND DRAIN PLUMBING	516 S Military Hwy ,Virginia Beach
4632	A1 SHARKLET TECHNOLOGIES, INC.	13859 Progress Blvd ,Alachua
4634	A-1 SHELTERS	1406 S.E. 46th Lane, Suite 4 ,Cape Coral
4635	A-1 SIGN ENGRAVERS, INC.	1200 Garden City Hwy ,Midland
4636	A1 SIGNS, INC.	7808 Hana Road ,Edison
4637	A-1 SIGNS, INC.	3950 Metropolitan Street ,New Orleans
4639	A-1 SILICON, INC.	12970 Branford Street, Unit P ,Arleta
4642	A-1 SOUTHERN PLUMBING	6820 Old Decubellis Court ,New Port Richey
4643	A-1 SPRINKLER CO. INC.	2383 Northpointe Dr. ,Miamisburg
4644	A1 STEEL, INC.	1805 West Yampa Street ,Colorado Springs
4645	A-1 STRIPING &PAVING COMPANY	6108 Brittmoore Road ,Houston
4646	A-1 SUPERSEAL, INC.	3035 Churchville Rd ,Churchville
4648	A-1 TECHNOLOGIES INC	16000 Ventura Blvd Suite 440 ,Encino
4649	A-1 TELEPHONE ANSWERING SERVICE,	2209 6th Street S W ,Canton
4650	A1 TERMITE & PEST CONTROL, INC.	2686 Morganton Blvd. Sw ,Lenoir
4654	A-1 TRUCK & AUTO INC	1260 N Truman Blvd ,Crystal City
4660	A10 CAPITAL LLC	800 W. Main Street, Ste 1100 ,Boise
4662	A11 SERVICES CORPORATION	134 Fountain Green Lane ,Gaithersburg
4664	A123 SYSTEMS, INC.	200 West Street ,Waltham
4665	A123 SYSTEMS, LLC	39000 Seven Mile ,Livonia
4668	A-1-A STEEL, LLC	210 Airport Way ,Hyannis
4669	A1A WEALTH MANAGEMENT, INC.	1010 Atlantic Avenue, Suite E ,Fernandina Beach
4672	A1C PARTNERS, LLC	917 Elsie Barber Court ,Davidsonville
4675	A2 DESIGN, INC.	6740 Old Mclean Village Dr ,Mclean
4678	A2 PRODUCT DEVELOPMENT	245 West 29th Street ,New York
4679	A2 PRODUCTIONS, INC.	17133 Albers Street ,Encino
4680	A2 SYSTEMS ENGINEERING, INC.	360 N. Sepulveda Blvd ,Ei Segundo
4681	A2B ENGINEERING, LLC	11218 Pocket Brook Dr ,Tampa
4682	A2B MARKETING	9702 Gayton Road, #302 ,Richmond
4683	A2IA CORPORATION	24 W. 40th Street ,New York
4684	A2INTEGRATION	5161 Soquel Dr Ste E ,Soquel
4687	A2MG, INC.	8601 E Us Highway 40 ,Kansas City
4691	A2Z FIELD SERVICES LLC	7450 Industrial Parkway ,Plain City
4694	A2Z, INC	10320 Little Patuxent Parkway ,Columbia
4696	A2ZLOGIX, INC.	26 Mayfield Avenue ,Edison
4699	A3 IT SOLUTIONS, LLC	338 N Elm St Ste 410 ,Greensboro
4700	A3 SOLUTIONS INC	440 Grand Ave Ste 425 ,Oakland
4701	A3 TECHNOLOGY, INC	327 West White Horse Pike ,Absecon
4705	A4 PROMOTIONS & INCENTIVES, INC.	3260 Ramos Circle ,Sacramento
4708	A-5 COMMUNICATIONS INC	8503 South Oak Park Ave ,Burbank
4709	A5 INC.	Po Box 870289 ,Wasilla
4710	A588 & A572 STEEL COMPANY	133 Sebago Lake Drive ,Sewickley
4712	A9.COM, INC.	130 Lytton Avenue, Suite 300 ,Palo Alto
4715	AA ALL AMERICAN FAMILY HEALTH CARE, PLLC	P.O. Box 87738 ,Fayetteville
4716	AA ASPHALTING, INC.	14720 Puyallup St. ,Sumner
4718	AA AUTOMOTIVE, INC.	3500 Gov. Printz Blvd. ,Wilmington
4720	AA BLUEPRINT CO INC	2757 Gilchrist Rd ,Akron
4721	AA CASEY COMPANY	5124 N Nebraska Ave ,Tampa
4722	AA CLEANING CO INC	50H Brigham St ,Marlborough
4725	AA DENTAL CARE, P.C.	407 S 48th St ,Quincy
4727	AA DENTAL STAFFING	4169 Virginia Beach Blvd ,Virginia Beach
4728	AA DEPENDABLE APPLIANCE SERVIC	12387 Waldorf Business Square ,Waldorf
4730	AA ELECTRIC, LTD.	500 Alakawa St Rm 100 ,Honolulu
4731	AA EQUIPMENT COMPANY	2212 Minnehaha Ave. ,Minneapolis
4732	AA GEAR MFG., INC	1045 Durant Dr ,Howell
4735	AA INTERNATIONAL, INC.	2828A Metropolitan Pl. ,Pomona
4736	AA JEWEL BOX, INC.	17300 East 17th Street, Suite E ,Tustin
4739	AA OB/GYN, PLLC	12200 Renfert Way Ste 100 ,Austin
4741	AA PORTABLE POWER CORPORATION	825 S 19th Street ,Richmond
4742	AA PRECISION MACHINE COMPANY, INC.	300 Currant Rd ,Fall River
4744	AA ROOFTOPS, INC.	2104B N. Yellowood Avenue ,Broken Arrow
4745	AA SERVICE COMPANY	550 Anthony Trail ,Northbrook
4748	AA THREAD SEAL TAPE INC	1275 Kyle Court ,Wauconda
4751	AA WHEEL & TRUCK SUPPLY INC.	717 East 16th Avenue ,Kansas City
4752	AA WINDOW AND GUTTER CLEANING	8826 122nd Ave Ne ,Kirkland
4753	AA WINDWARD DENTAL GROUP, LLC	45-1144 Kamehameha Hwy, Suite 401 ,Kaneohe
4755	AA/ACME LOCKSMITHS, INC.	1922 Republic Avenue ,San Leandro
4757	AAA ABSOLUTE AUTOMATION AND ELECTRICAL SERVICES	55 Alcovy Crossing Dr ,Covington
4758	AAA AFFORDABLE DRILLING & SAWING, LLC	1371 State Highway 38 ,Hainesport
4759	AAA AIR SUPPORT	13723 Harvard Place ,Gardena
4760	AAA AJAX PUMPING SERVICE, INC.	2433 South 7th Avenue ,Phoenix
4762	AAA ALLIED GROUP, INC. FKA AAA HARTFORD/CINCINNATI, INC.	15 West Central Parkway ,Cincinnati
4763	AAA APPRAISAL SERVICES INC	9838 El Granito Avenue ,La Mesa
4764	AAA ARIZONA, INC.	2375 E. Camelback Road, Suite 500 ,Phoenix
4766	AAA AUGER HOLDINGS, INC.	450 Pinn Road ,San Antonio
4767	AAA AUTO CLUB SOUTH, INC.	1 Auto Club Drive ,Dearborn
4768	AAA AUTO TINT INC	9528 South 500 West ,Sandy
4769	AAA BOX COMPANY, INC.	2530 Fairway Park Drive ,Houston
4771	AAA BUSINESS SUPPLIES AND INTERIORS	325 Mendell Street ,San Francisco
4773	AAA CAPITAL MANAGEMENT ADVISORS, LTD.	1300 Post Oak Blvd Ste 350 ,Houston
4774	AAA CAROLINAS	6600 Aaa Drive ,Charlotte
4776	AAA CENTRAL PENN AUTOMOBILE CLUB	2301 Paxton Church Rd., 2nd Floor ,Harrisburg
4779	AAA COLORADO INC	4100 E Arkansas Ave ,Denver
4781	AAA CONCRETE PRODUCTS CORPORATION	1224 E. Broad Avenue ,Albany
4783	AAA COOK COUNTY CONSOLIDATION, INC.	318 W. Adams Street, 4th Floor ,Chicago
4785	AAA COOPER TRANSPORTATION	P.O. Box 6827 ,Dothan
4787	AAA DEVELOPMENT, INC.	1592 Anacapa Dr. ,Camarillo
4789	AAA EAST CENTRAL	5900 Baum Boulevard ,Pittsburgh
4790	AAA EAST PENN	P.O. Box 1910 ,Allentown
4791	AAA ELECTRIC	P.O. Box 31029 ,Amarillo
4792	AAA ELECTRICAL & COMMUNICATIONS, INC.	25007 Anza Dr ,Valencia
4793	AAA ELECTRICAL CONTRACTORS, INC.	6636 Industrial Avenue ,Port Richey
4794	AAA ELECTRICAL SUPPLY, INC.	1014 S Montebello Blvd ,Montebello
4795	AAA EMERGENCY SUPPLY CO., INC.	635 North Broadway ,White Plains
4796	AAA ENERGY SERVICE CO	P.O. Box 908 ,Scarborough
4797	AAA ENTERPRISES, INC.	3223 S Taft Hill Road ,Ft. Collins
4798	AAA ENVIRONMENTAL, INC	6679 Moore Rd ,Syracuse
4799	AAA EXTERMINATING INC	4412 Conner St ,Noblesville
4800	AAA FAIR CREDIT FOUNDATION	230 West 200 South, Suite 3104 ,Salt Lake City
4802	AAA FEDERAL CREDIT UNION	1112 N Bendix Dr ,South Bend
4803	AAA FENCE COMPANY, INC.	2746 Scott Blvd. ,Santa Clara
4805	AAA FIRE & SAFETY, INC.	3013 3rd Avenue North ,Seattle
4807	AAA FLORIDA CONSTRUCTION	509 Largovista Dr. ,Oakland
4808	AAA FOUNDATION FOR TRAFFIC SAFETY	607 14th St NW Ste 201 ,Washington
4809	AAA FULL LINE POOL SERVICE INC	149 Wheeling Rd ,Wheeling
4810	AAA GLASS AND MIRROR OF OKLAHOMA	348 E 2nd St ,Sand Springs
4811	AAA GLASS CO INC	930 Robeson Street ,Fayetteville
4812	AAA GUN & AMMO, INC	1105 Goldfinch Dr ,Plant City
4813	AAA HEARING SERVICES, INC.	P.O. Box 81 ,Moorpark
4814	AAA HEATING & AIR	Po Box 708488 ,Sandy
4816	AAA HEATING SERVICE, INC.	10507 Pendleton Pike ,Indianapolis
4818	AAA IMAGING	7351 Hazard Ave ,Westminster
4819	AAA INDUSTRIES INC.	3141 Ambrose Ave. ,Nashville
4820	AAA INDUSTRIES, INC.	625 Mills Road ,Joliet
4821	AAA INSTA MOVE INC	3830 Caboose Place ,Sanford
4823	AAA INTERSTATE TRANSPORTATION	720 Kipling St ,Lakewood
4824	AAA KEY LOCK CO., INC.	44 W. 46th Street ,New York
4825	AAA LIFE INSURANCE COMPANY	17900 N. Laurel Park Drive ,Livonia
4829	AAA MEDICAL GASES, INC	350 Jfk Drive ,Bloomfield
4830	AAA MERRIMACK VALLEY, INC.	49 Orchard Hill Road ,North Andover
4831	AAA MIAMI VALLEY	825 South Ludlow Street ,Dayton
4833	AAA MINNEAPOLIS	5400 Auto Club Way ,Minneapolis
4834	AAA MOBILE HOMES, INC.	296 North State Route 2 ,New Martinsville
4836	AAA MOTOR SALES & SERVICE, INC.	1346 Venice Blvd ,Los Angeles
4837	AAA MOUNTAINWEST, INC.	2100 11th Avenue ,Helena
4840	AAA NORTH PENN	1035 N. Washington Avenue ,Scranton
4841	AAA NORTHAMPTON COUNTY	3914 Hecktown Rd ,Easton
4844	AAA NORTHWAY, INC.	433 State St Suite 300 ,Schenectady
4845	AAA NORTHWEST OHIO	7150 West Central Avenue ,Toledo
4846	AAA OFFICE & MAIL SOLUTIONS IN	5719 Raleigh Lagrange #1 ,Memphis
4847	AAA OREGON/IDAHO	600 SW Market St ,Portland
4848	AAA OUTBOARD MOTOR REPAIR, INC.	1420 S.E. Highway 19 ,Crystal River
4849	AAA PAVING	3330 N Locust Ave ,Rialto
4851	AAA PIPELINE INSPECTION INC	8311 Oakwood Hills Circle ,Citrus Heights
4852	AAA PLATING & INSPECTION, INC.	424 Dixon Street ,Compton
4853	AAA POOL & SPA SERVICE INC	878 Kurtz Rd Ste 104 ,Marietta
4855	AAA PRECISION TOOL & CUTTER GRINDING, INC.	P. O. Box 747 ,Orofino
4856	AAA PRESS INTERNATIONAL, INC.	3160 North Kennicott Avenue ,Arlington Heights
4857	AAA PRINTING AND GRAPHICS, INC	1405 132nd Avenue Northwest ,Bellevue
4858	AAA PRODUCTS INTERNATIONAL, INC.	7114 Harry Hines Blvd ,Dallas
4859	AAA PROPERTIES	330 W 5th Street ,Chico
4860	AAA QUALITY SERVICES, INC.	Po Box 535 ,Farmersville
4865	AAA RESTAURANT FIRE CONTROL, INC.	115 Chestnut Street ,Warwick
4871	AAA SALES AND SERVICE INC	830 3rd Ave ,New York
4872	AAA SCREEN CO., INC.	826 Avon Avenue Sw ,Atlanta
4873	AAA SIGN COMPANY, INC.	Po Box 211410 ,Martinez
4874	AAA SIGNS AND SAFETY PRODUCTS, INC.	7810 North Main Street ,Jonesboro
4876	AAA SOLAR ELECTRIC, INC.	1182 N Knollwood Circle ,Anaheim
4877	AAA SOUTH JERSEY	700 Laurel Oak Road ,Voorhees
4880	AAA SOUTHERN PENNSYLVANIA	2840 Eastern Blvd ,York
4882	AAA SUPPLY CORPORATION	608 Route 41 ,Schererville
4883	AAA SUPPLY, INC.	203 Haywood Road ,Greenville
4886	AAA TOOL & DIE CO., INC	3601 W. Mcgill St ,South Bend
4887	AAA TOOL & MACHINE CO., INC.	230 Obernuefemann Road ,Ofallon
4889	AAA TRAILER SERVICES INC	4605 Crossroads Industrial Drive ,St Louis
4890	AAA TRANSFER & STORAGE, INC.	P.O. Box 2317 ,Ft. Walton Beach
4891	AAA TRANSITIONS ADOPTION AGENCY, INC.	355 W. Lancaster Avenue ,Haverford
4894	AAA TRUCK REPAIRS INC	4702 Apache ,Tulsa
4895	AAA WASHINGTON	1745 114th Ave Se ,Bellevue
4897	AAA WATERPROOFING, INC.	750 West 48th Avenue ,Denver
4898	AAA WESTERN & CENTRAL NEW YORK,	100 International Drive ,Williamsville
4899	AAA WESTERN AND CENTRAL NEW YORK, INC	100 International Drive ,Williamsville
4900	AAA WINDOW CLEANING, INC.	13203 Baker Mills Rd ,Pineville
4901	AAA WIRE ROPE & SPLICING, INC.	12650 Sibley Road ,Riverview
4902	AAA-1 MASONRY & TUCKPOINTING, INC.	5001 W. Fullerton Avenue ,Chicago
4905	AAAA SPECIALTIES, INC.	3030 Huron Street ,Denver
4907	AAAASF, INC.	5101 Washington St Ste 2F ,Gurnee
4909	AAABSOLUTE GUTTERS INC	4505 N. Twin City Hwy ,Nederland
4912	AAATIX, LLC	430 Emery Drive ,Hoover
4913	AAAW GUARANTY PEST ELIMINATION	209 Mechanic St ,Danielson
4914	AAB ENGINEERING	17 E 2nd Street ,Sand Springs
4916	AABACO PLASTICS, INC.	9520 Midwest Ave ,Garfield Heights
4917	AABAKUS, INC.	750 Old Hickory Blvd., 1-275 ,Brentwood
4918	AABAL HEATING SERVICES SUPPLY IN	8518 S. Ashland Avenue ,Chicago
4919	A-ABC APPLIANCE & HEATING, INC.	4000 Winnetka Avenue North ,New Hope
4922	AABEL FAMILY OF SERVICES, INC.	440 Congress Park Drive ,Dayton
4923	AABERGS TOOL AND EQUIPMENT RENTAL & SALES, INC.	1424 Puyallup Avenue ,Tacoma
4924	A-ABIDING CARE, INC.	233 N. Northwest Highway ,Park Ridge
4926	AABR, INC.	15-08 College Point Boulevard ,College Point
4928	A-ABSOLUTE COMFORT HEATING & COOLING, INC.	15886 Park Place Ct ,Oregon City
4929	AAC BUILDERS, INC.	1902 Wilbur Avenue ,Vero Beach
4931	AAC INC.	8470 Tyco Road ,Vienna
4932	AAC INSTITUTE	1401 Forbes Avenue Suite 303 ,Pittsburgh
4934	AAC SERVICES INC	4501 Gaston Street ,Chantilly
4935	AAC UNITED FIRE & SAFETY EQUIPMENT, INC	305 W 15th Ave ,Pompano Beach
4936	AAC UTILITY PARTNERS LLC	4840 Forest Drive, Suite 374 ,Columbia
4937	AACC INTERNATIONAL, INC.	3340 Pilot Knob Rd ,Saint Paul
4939	AACE INTERNATIONAL INC	1265 Suncrest Town Centre Dr ,Morgantown
4940	AACER FLOORING, LLC	P.O. Box 151 ,Peshtigo
4941	AACO GOLF CARTS & PARTS LLC	5716 E Morgan Ave. ,Evansville
4942	AACOA, INC.	2551 Cr 10 W ,Elkhart
4944	AACRON, INC.	2705 Cheshire Lane ,Minneapolis
4946	A-ACTION JANITORIAL SERVICES	6607 Tribble Street ,Lithonia
4947	AACTRON, INC.	29306 Stephenson Hwy ,Madison Heights
4948	AAD HOLDINGS, INC.	6115 Cottingham Way ,Cumming
4949	AADA SERVICES INC	4701 North 24th Street ,Phoenix
4951	AADCO MEDICAL, INC.	P.O. Box 410 ,Randolph
4952	AADCO, INC.	115 North 2nd Avenue ,Beech Grove
4954	AADVANCED BUILDING PRODUCTS, LLC	9321 Ravenna Road, Suite D ,Twinsburg
4955	AADVANCED FOOTCARE ASSOCIATES	97-07 63rd Road ,Rego Park
4958	AADVANTAGE INC.	210 South Johnson Rd ,Houston
4959	AAE ACQUISITION LLC	13764 Airline Hwy ,Baton Rouge
4960	AAE ENTERPRISES, INC.	1001 Club Road ,Sherwood
4961	AAE SYSTEMS, INC.	642 North Pastoria Avenue ,Sunnyvale
4962	AAEC CREDIT UNION	115 S Wilke Rd Ste 106 ,Arlington Heights
4965	AAERO HEATING & SHEET METAL, INC.	860 Sweetser Avenue ,Novato
4966	AAES ENGINEERING INC.	45 Eisenhower Drive ,Paramus
4968	AAFEDT, FORDE, GRAY, MONSON, & HAGER, P.A.	150 South Fifth Street, Suite 2600 ,Minneapolis
4969	AAFES FEDERAL CREDIT UNION	Po Box 210708 ,Dallas
4970	A-AFFORDABLE BAIL BONDS LLC	615 W 11th St Ste 100 ,Vancouver
4971	A-AFFORDABLE INSURANCE, INC.	114 Concord Street ,Framingham
4972	AAFMAA MEMBER & SURVIVOR BENEFITS LLC	1850 Old Reston Ave ,Reston
4973	AAFP INSURANCE SVC INC	11400 Tomahawk Crk Pkwy 430 ,Leawood
4974	AAG GROUP, LLC	5565 Osprey Isle Lane ,Orlando
4977	AAGAARD-JUERGENSEN, LLC	5695 Beggs Road ,Orlando
4978	AAGF, PC	401 15th Ave S ,Great Falls
4979	AAGL	6757 Katella Ave. ,Cypress
4981	AAH MANAGEMENT COMPANY INC.	1103 Laurel Oak Road ,Voorhees
4987	AAI PHARMA INC.	5151 Mccrimmon Parkway ,Morrisville
4990	AAI, INC.	3201 Yankee Hill Road ,Lincoln
4991	AAIM MANAGEMENT SERVICES	1600 S Brentwood Blvd Suite 400 ,St. Louis
4992	AAIPHARMA SERVICES CORPORATION	2320 Scientific Park Drive ,Wilmington
4993	A-AIR COMPANY, INC.	206 Overlook Drive ,Sewickley
4994	AAIRCO AIR CONDITIONING HEATING	7227 University Ave. ,La Mesa
4997	AAJ INTERACTIVE TECHNOLOGIES, LLC	6625 Belle Chase Ct. ,Gaithersburg
4999	AAKASH CHEMICALS AND DYE-STUFFS, INC.	561 Mitchell Road ,Glendale Heights
5000	AAKASH CONSULTING	2671 Melbourne Way ,San Ramon
5001	AAKER ELECTRICAL SUPPLY CO., INC.	61 Willett St. ,Passaic
5004	AAKRON RULE CORP	8 Indianola Avenue ,Akron
5006	AALADIN INDUSTRIES, INC.	32584 477th Ave ,Elk Point
5007	AALANCO SERVICE CORPORATION	80-B Turnpike Road ,Westborough
5009	AALBERTS INDUSTRIES U.S. HOLDINGS CORPORATION	3248 Northwestern Drive ,San Antonio
5012	AALCO DISTRIBUTING COMPANY, INC.	909 Grant Avenue ,Fort Wayne
5013	AALCO FORWARDING, INC.	10965 Granada Lane ,Overland Park
5014	AALCO MANUFACTURING COMPANY	1650 Avenue H ,St. Louis
5015	AALCO SEPTIC & SEWER, INC.	2369 Huth-Sayer Road ,Knoxboro
5018	AALFS MANUFACTURING, INC.	1005 4th Street ,Sioux City
5021	AALL CARE LIVING SERVICES, INC	6939 S. 69th E. Ave ,Tulsa
5023	AALMAR SURVEYS INC	1500 Marina Bay Dr B142 Ste 1 ,Clear Lake Shores
5026	AAM BRAND MANAGEMENT GROUP, INC.	181 Westchester Avenue Suite 305H ,Port Chester
5027	AAM. LLC	1600 W Broadway Rd Ste 200 ,Tempe
5028	AAMC FOUNDATION	174 E. 80th St. ,New York
5029	AAMCOM MANAGEMENT, LLC	536 East St. Louis Avenue ,Las Vegas
5030	AAMCOR LLC	2128 S Constitution Blvd ,West Valley City
5031	A-AMERICA, INC.	P. O. Box 58408 ,Seattle
5032	A-AMERICAN MACHINE AND ASSEMBLY CO.	2620 Auburn Street ,Rockford
5036	AAMODT PLUMB ARCHITECTS LLC	91 Harvey St Ste 2 ,Cambridge
5037	AAMP OF FLORIDA, INC	13190 56th Court ,Clearwater
5038	AAMRO CORPORATION	3110 S. 26th Avenue ,Broadview
5039	AAMS INC	1425 Hughes Rd Ste 265 ,Grapevine
5044	AANDS NATHAN HEATING COOLING L	34 Clifton Avenue ,Ansonia
5048	AANIIIH NAKODA COLLEGE	Po Box 159 ,Harlem
5049	AANKHEN, INC.	2107 N 1st St Ste 570 ,San Jose
5050	A-ANNANDALE, INC.	30 Baron Park Road ,Fredericksburg
5052	AAON, INC.	2425 S Yukon Ave ,Tulsa
5055	AAP DERMATOLOGY & COSMETIC SURGERY, PC	3940 E. University Dr., Ste. 1 ,Mesa
5057	AAP ST. MARYS CORP.	1100 Mckinley Road ,St. Marys
5058	AAP, INC.	795 North Main Street ,Providence
5059	AAP3, INC.	2107 N. First Street, Suite 550 ,San Jose
5062	AAPER ALCOHOL & CHEMICAL CO., INC.	1101 Isaac Shelby Drive ,Shelbyville
5065	AAQUATOOLS, INC.	3233 Fitzgerald Road, Suite B ,Rancho Cordova
5067	AAR AIRCRAFT SERVICES, INC.	1100 North Wood Dale Road ,Wood Dale
5068	AAR CORP.	One Aar Place, 1100 N. Wood Dale Rd ,Wood Dale
5070	AAR INCORPORATED	6640 Signat Street ,Houston
5071	AAR MANUFACTURING, INC.	One Aar Place ,Wood Dale
5072	AAR NORTH AMERICA, INC.	155 East 55th Street ,New York
5073	AARAX HOME LOANS INC	1313 N Milpitas Blvd ,Milpitas
5074	AARC ENVIRONMENTAL, INC.	2500 Wilcrest, Suite 460 ,Houston
5078	AARCON ENTERPRISES, INC.	13641 Route 993 ,Trafford
5079	AARD, INC.	4625 E Princess Anne Road ,Norfolk
5080	AARDEMA, WHITELAW, PLLC	5360 Cascade Rd ,Grand Rapids
5082	AARDVARK BRIGADE	6 Sunshine Dr ,Pittstown
5085	AARDVARK SPORTS SHOP INC	565 Main St ,Bethlehem
5086	AARDVARK SYSTEMS & PROGRAMMING INC.	14 Spring Street, Suite #1 ,Waltham
5087	AARDVARK, INC.	323 S. Main Street ,Findlay
5088	AAREAL CAPITAL CORPORATION	250 Park Ave Ste 820 ,New York
5090	AARENE CONTRACTING, LLC	3070 Windward Plaza, Suite 26F ,Alpharetta
5092	AARG	3303 Northland Drive #100 ,Austin
5093	AARHUSKARLSHAMN USA INC.	499 Thornall Street, 5th Floor ,Edison
5096	AARIS, LLC	7953 Washington Woods Dr. ,Dayton
5098	AARMOR METAL AND SUPPLY CO INC	9925 Carnegie ,El Paso
5099	AARO MOVING SYSTEMS INC	4 South San Francisco Street ,Flagstaff
5100	AARO, INC	30819 Pacific Highway South ,Federal Way
5107	AARON A. DEMAIO DMD, P.C. DBA DEMAIO ORTHODONTICS	264 Elm Street ,Northampton
5108	AARON A. NICHOLAS, D.D.S., P.A.	3905 National Drive, Suite 170 ,Burtonsville
5109	AARON ARMBRUSTER D C L L C	6030 SE Division Street ,Portland
5110	AARON B. CARNER, D.M.D., LLC	110 Venture Court ,Greenwood
5111	AARON B. MORSE, M.D., INC.	1665 Dominican Way Suite 222A ,Santa Cruz
5113	AARON B. RIVES D.P.M., P.C.	14500 King Road ,Riverview
5114	AARON BEHAR, PA	1840 N. Commerce Pkwy, #1 ,Weston
5116	AARON CARLSON CORPORATION	1505 Central Avenue Ne ,Minneapolis
5117	AARON CONCRETE CONTRACTORS LP	4108 Nixon Lane ,Austin
5121	AARON D. HASKETT, D.D.S., P.C.	18676 Willamette Drive ,West Linn
5122	AARON D. JOHNSON, DMD, PLLC	1733 Montego Drive ,Bismarck
5123	AARON D. SMITH, M.D., P.C.	5901 Corporate Dr. ,Colorado Springs
5127	AARON DESHAW ESQ PC	805 SW Broadway Ste 2540 ,Portland
5130	AARON ELKOWITZ, DMD, P.C.	1201 Northern Blvd, Suite 301 ,Manhasset
5131	AARON ENTERPRISES	105 Ford Ave ,Kingsport
5132	AARON ENTERPRISES INC.	189 Atwater Street ,Plantsville
5133	AARON ENTERPRISES, INC.	300 Cloverleaf Rd. ,York
5135	AARON ESCALANTE, DDS, INC	901 Kearney Street ,El Cerrito
5136	AARON FABER, INC.	666 5th Ave ,New York
5137	AARON FENCE COMPANY	4235 S. 33rd W. Ave ,Tulsa
5139	AARON G FILLER M D PHD A PROFE	2716 Ocean Park Blvd ,Santa Monica
5142	AARON GREEN & JOSEPH ACKERMAN BAKERY, INC.	65 Franklin Avenue ,Brooklyn
5144	AARON H. FINK, MD, P.A.	4550 Post Oak Place Drive ,Houston
5147	AARON INC	33674 Kelly Rd ,Clinton Township
5148	AARON INDUSTRIES, INC.	28966 Hwy 76 E ,Clinton
5149	AARON INSURANCE AGENCY, INC.	20 W Hill Rd ,Mattapoisett
5150	AARON INVESTMENTS, INC. WOODSTOCK OUTLET	100 Robin Road Extension ,Acworth
5157	AARON JOHN WELLBORN DMD PLCC	22526 SE 64th Pl. Suite 110 ,Issaquah
5158	AARON K. BREAUX, D.D.S., INC.	4801 Coffee Road ,Bakersfield
5159	AARON K. JOSEPH, M.D., P.A.	5125 Preston Avenue, Suite 150 ,Pasadena
5160	AARON KENNEDY D.M.D. P.L.	8198 Tourist Center Dr ,Bradenton
5162	AARON KRAMER	622 Hawkins Ave. Ste. #4 ,Lake Ronkonkoma
5163	AARON KREISWIRTH	318 S. Pitney Road ,Galloway
5165	AARON L. CERNERO, DO PA	300 N. Highland Avenue ,Sherman
5168	AARON LENDING LLC	6200 E Thomas Rd Ste 202 ,Scottsdale
5169	AARON LEVINE & ASSOCIATES PLLC	1111 16th Street, NW Ste 400 ,Washington
5174	AARON M. PRIEST LITERARY AGENCY, INC.	708 Third Avenue, 23rd Floor ,New York
5175	AARON M. SCHERTZER, D.D.S., P.C.	5445 Telegraph Rd. ,St. Louis
5176	AARON MANOR REHABILITATION & NURSING CENTER	100 Saint Camillus Way ,Fairport
5179	AARON MFG	1250 E. Frankin Ave. ,Pomona
5182	AARON P. REEVES, DMD, INC.	1110 Corporate Way, Suite 200 ,Sacramento
5183	AARON PACKAGING INC	7817 S 210th Street ,Kent
5188	AARON R POLINSKY DDS	300 Martine Avenue ,White Plains
5189	AARON R WELK DMD	18735 SW Boones Ferry Road ,Tualatin
5192	AARON REALTY GROUP	7638 North Ingram Avenue ,Fresno
5193	AARON REILENDER DDS PA	1710 E Madison Ave ,Derby
5199	AARON SCALE SYSTEMS, INC.	6205 11th Street Sw ,Cedar Rapids
5206	AARON T WACHTEL, DDS	608 E Ogden Ave ,Geneseo
5207	AARON TANNER	2600 Grand Avenue, Suite 600 ,Kansas City
5209	AARON THOMAS COMPANY, INC.	7421 Chapman Avenue ,Garden Grove
5210	AARON TOOL & MOLD, INC.	620 Trolley Blvd ,Rochester
5212	AARON VALUATION, INC.	358 Seventh Avenue ,Brooklyn
5218	AARON YORKS QUALITY AIR CONDITIONING & HEATING, INC.	824 S. West Street ,Indianapolis
5220	AARON, RIECHERT, CARPOL & RIFFLE, APC	900 Veterans Blvd ,Redwood City
5221	AARONS AUCTIONS INC	1330 Main St ,Longmont
5222	AARONS GRANT & HABIF, LLC	3500 Piedmont Road NE, Suite 500 ,Atlanta
5223	AARONS INC.	1100 AaronS Building ,Atlanta
5224	AARONS MACHINERY CORPORATION	170 N. Halsted St. ,Chicago
5225	AARONS SYSTEMS INTEGRATORS, INC.	110 Washington Avenue ,Fayetteville
5226	AARONS WATER SERVICE, INC.	P.O. Box 317 ,Farson
5227	AARONSON RAPPAPORT FEINSTEIN & DEUTSCH LLP	600 Third Avenue ,New York
5228	AARONSON, DICKERSON, COHN & LANZONE , APC	1001 Laurel Street, Suite A ,San Carlos
5229	AARP	C/O Tax Department ,Washington
5231	AARROW TRANSMISSIONS, INC.	707 Research Road ,Richmond
5232	AARROWCAST, INC.	2900 E. Richmond Street ,Shawano
5233	AARS & WELLS, INC.	2109 Commerce Street ,Dallas
5234	AARSAND MANAGEMENT, LLC	11019 Mccormick Rd., #320 ,Hunt Valley
5235	AARTHUN PERFORMANCE GROUP, LTD.	20329 State Highway 249 Ste 210 ,Houston
5236	AARTPACK, INC.	252 Brook Street ,Carlisle
5237	AARUBCO RUBBER COMPANY	259 2nd Street ,Saddle Brook
5238	AARVAK SERVICES, INC.	P.O. Box 670648 ,Houston
5241	AASC LLC	Dr Titus Duncan ,Atlanta
5242	AASCEND PAIN INSTITUTE	842 North Westhill Boulevard ,Appleton
5244	AASE HAUGEN HOMES INC	4 Ohio St. ,Decorah
5246	AASKI TECHNOLOGY INC	804 C West Park Avenue ,Ocean
5247	AASONN LLC	184 Shuman Blvd Ste 530 ,Naperville
5250	AASTRA USA INC.	2811 Internet Blvd. ,Frisco
5251	AASTROM BIOSCIENCES INC.	P.O. Box 376 ,Ann Arbor
5252	AASYS GROUP, INC.	11301 N. Highway 301, Suite 106 ,Thonotosassa
5253	AAT COMMUNICATIONS SYSTEMS CORPORAT ION	3030 Veterans Road West ,Staten Island
5255	AAT, INC.	106 E. Liberty Drive ,Wheaton
5256	AAT.AERO, INC.	946 West 53rd St North ,Wichita
5257	AATA INTERNATIONAL, INC.	1400 Wewatta ,Denver
5258	AATHOME PEDIATRIC NURSING TEAM	P.O Box 241 ,Clarksville
5260	AATRIX SOFTWARE, INC.	2100 Library Circle ,Grand Forks
5261	A-AVAILABLE MOVING COMPANY, INC.	2819 South Harlem Avenue ,Berwyn
5262	AAVALAR CONSULTING, INC.	Swedesford Corporate Center ,Malvern
5263	AAVID ACQUISITION, INC.	1 Aavid Circle ,Laconia
5264	AAVID THERMALLOY, LLC	67 Primrose Drive ,Laconia
5267	AAXICO SALES, INC.	8881 NW 13Th Terrace ,Miami
5268	AAXIS SOFTWARE CORPORATION	1900 Avenue Of The Stars ,Los Angeles
5270	AAY ASSOCIATES, INC	108-18 Queens Blvd ,Forest Hills
5271	AAY LLC	23 Village Inn Rd. ,Westminster
5273	AAYS RENT-ALL COMPANY, INC.	805 West Edison Road ,Mishawaka
5274	A-AZTEC RENTS AND SELLS, INC.	2665 Columbia Street ,Torrance
5276	AB & CP ENTERPRISES, INC.	2922 Wilderness Street ,Wichita
5277	AB & T NATIONAL BANK	P.O. Drawer 71269 ,Albany
5278	AB AND B MANUFACTURING INC	Po Box 6456 ,Jacksonville
5281	AB BIOSCIENCES INC	214 Lincoln St ,Allston
5284	A-B COMPUTER SOLUTIONS, INC	3980 Florida Street ,Mandeville
5286	AB CONSTRUCTION, INC	317 Charles St Ste 3 ,La Plata
5287	A-B CONTRACTING INC	1819 Us Highway 61 ,Festus
5288	A-B DISTRIBUTORS, INC	1116 N Edgewood Avenue ,Jacksonville
5290	AB EXPRESS, INC.	2009 Eubank Ne ,Albuquerque
5291	AB FINANCIAL SERVICES LLC	Po Box 1061 ,Holland
5293	AB GRAPHIC INTERNATIONAL INC	1760 Britannia Dr Ste 7 ,Elgin
5295	AB INDUSTRIES INC	Po Box 80235 ,Portland
5296	AB INSTALLATIONS, INC.	3060 Route 97 ,Glenwood
5297	AB LANDSCAPING, INC.	22400 Carroll Oaks Way ,San Jose
5298	AB LENDING, INC.	11571 E. Ranch Gate Road ,Scottsdale
5302	AB MANAGEMENT SERVICES, INC.	2533 N Carson St Ste 6059 ,Carson City
5303	AB MAURI FOOD INC.	1350 Timberlake Manor Parkway ,Chesterfield
5306	AB OIL SERVICES LTD	1599 Ocean Ave ,Bohemia
5307	AB OVO, INC.	2320 G, Walsh Ave ,Santa Clara
5309	A-B PETROLEUM, INC.	1245 West Alameda ,Denver
5310	AB PRECISION GRINDING CO., INC.	4806 Kesslersville Rd ,Easton
5312	AB RESOURCES MANAGEMENT, INC.	6802 W. Snowville Road, Suite E ,Brecksville
5313	AB SCIENCE USA, LLC	39 Main Street ,Chatham
5314	AB SOLUTIONS, INC	7211 Haven Avenue, Suite E283 ,Rancho Cucamonga
5315	AB SPECIALTIES, INC.	534 Braddock Avenue ,Turtle Creek
5316	AB SPECIALTY SILICONES, LLC	3790 Sunset Avenue ,Waukegan
5318	AB STAFFING SOLUTIONS, LLC	2680 S. Val Vista Drive ,Gilbert
5319	AB STAR GROUP	39300 Civic Center Dr, Suite 130 ,Fremont
5321	AB TRANSPORT INC	210 2nd St Se ,Cedar
5325	AB&I	7825 San Leandro St. ,Oakland
5326	AB&T TELECOM, LLC	9841 Broken Land Parkway ,Columbia
5328	ABA DABA RENTS	4351 Auburn Blvd ,Sacramento
5330	ABA FAMILY MEDICINE	325 Clyde Morris Blvd., Suite 320 ,Ormond Beach
5331	ABA HEALTH SERVICES INC.	3939 Reisterstown Rd Ste 150 ,Baltimore
5332	ABA INDUSTRY, INC.	639 E. Walnut Street ,Carson
5333	ABA INSURANCE SERVICES INC.	5910 Landerbrook Drive Suite 100 ,Mayfield Heights
5335	ABA MORIAH CORPORATION	P.O. Box 350 ,Gainesville
5338	ABA PHYSICAL THERAPY ASSOCIATE	1670 S Amphlett Blvd Ste 123 ,San Mateo
5341	ABA THERAPY OF HOUSTON, INC.	16107 Kensington Dr., Ste. 305 ,Sugar Land
5342	ABA WATER SYSTEMS, INC.	226 West Broadway ,Plainview
5344	ABABA BOLT	1466-1 Pioneer Way ,El Cajon
5347	ABACI INC.	Po Box 805 ,Colleyville
5348	ABACI INTERNATIONAL, INC.	10424 Summerwood Ct ,San Diego
5350	ABACO ENERGY SERVICES LLC	8606 Island Road ,Bismarck
5351	ABACO GOLD INC	418 Front St ,Key West
5352	ABACO LIGHTING INC	2411 N.W. 16th Lane #5 ,Pompano Beach
5358	ABACUS ARCHITECTS AND PLANNERS	119 Braintree St Ste 318 ,Allston
5359	ABACUS ASSOCIATES, INC.	52 School Street ,Hatfield
5360	ABACUS AUTOMATION, INC.	264 Shields Drive ,Bennington
5361	ABACUS BENEFIT CONSULTANTS OF MARYLAND, LLC	15245 Shady Grove Road ,Rockville
5362	ABACUS BENEFIT CONSULTANTS, INC.	55 Stamp Farm Road ,Cranston
5364	ABACUS BUSINESS SOLUTIONS, INC	15301 Roosevelt Blvd. ,Clearwater
5365	ABACUS BUSINESS SOLUTIONS, INC.	2905 Stender Way ,Santa Clara
5367	ABACUS COMPUTERS INC.	6 Desta Drive, Suite 1350 ,Midland
5368	ABACUS CONSULTING, LLC	40294 Woodside Drive South ,Northville
5369	ABACUS DATA SYSTEMS, INC.	3601 Algonquin Road, Suite 565 ,Rolling Meadows
5370	ABACUS FEDERAL SAVINGS BANK	6 - 8 Bowery ,New York
5371	ABACUS FINANCIAL GROUP	842 Clarkson Street ,Denver
5373	ABACUS GROUP, PC	12353 Sunrise Valley Drive ,Reston
5374	ABACUS HOME HEALTH, INC.	1322 Space Park Drive ,Houston
5375	ABACUS INDUSTRIES, INC.	3894 Mannix Drive ,Naples
5376	ABACUS INFORMATION SYSTEMS, INC.	855 Route 146 ,Clifton Park
5379	ABACUS MANAGEMENT TECHNOLOGIES, LLC	1210 Pontiac Ave ,Cranston
5381	ABACUS PLANNING GROUP, INC.	2500 Devine Street ,Columbia
5382	ABACUS PRODUCTS, INC.	23155 Kidder Street ,Hayward
5385	ABACUS RETIREMENT SOLUTIONS, LLC	400 Gold Ave., Suite 1060 ,Albuquerque
5386	ABACUS SCALE, INC.	1640 West Pershing Road ,Chicago
5387	ABACUS SERVICE CORPORATION	35055 West 12 Mile Road ,Farmington Hills
5388	ABACUS SERVICES INC.	1204 Forest Oak Court ,Bel Air
5389	ABACUS SOFTWARE GROUP, INC.	121 Middlesex Turnpike ,Burlington
5390	ABACUS SOLUTIONS, LLC	1190 Kennestone Cir ,Marietta
5391	ABACUS SPORTS INSTALLATIONS LTD	836 Flory Mill Road ,Lancaster
5393	ABACUS TECHNOLOGY CORPORATION	5454 Wisconsin Avenue, Suite 1100 ,Chevy Chase
5398	ABADI & CO INC	590 Madison Ave Rm 4103 ,New York
5401	ABADIE VETERINARY HOSPITAL LLC	8271 Jefferson Hwy ,Harahan
5403	ABADIR ASSOCIATES PC	90 South Ridge Street ,Rye Brook
5404	ABADJIS SYSTEMS, LTD	3905 Rock River Lane ,Bonita
5407	ABAIR-LAVERY INCORPORATED	32 Brixton St ,West Hartford
5409	ABAL AUTO SALES COMPANY	3003 East 10th Avenue ,Amarillo
5410	ABAL MATERIAL HANDLING, INC.	1401 Plantation Road ,Roanoke
5414	ABALTA TECHNOLOGIES, INC.	3510 Torrance Blvd, Ste 220 ,Torrance
5415	ABANAKI CORPORATION	17387 Munn Road ,Chagrin Falls
5419	ABANTE ROOTER AND PLUMBING, INC.	4 Admiral Drive, B339 ,Emeryville
5420	ABA-PGT, INC.	10 Gear Drive ,Manchester
5421	ABAQA CORPORATION	1605 Main St Ste 400 ,Sarasot
5424	ABAR PENSION SERVICES, INC.	25B Vreeland Road - Suite 103 ,Florham Park
5425	ABAR RETIREMENT PLAN SERVICES LLC	25B Vreeland Road - Suite 103 ,Florham Park
5426	ABARCA HEALTH, LLC	650 Munoz Rivera Ave ,San Juan
5428	ABAR-HUTTON MEDIA, L.L.C.	6190 Grovedale Court ,Alexandria
5430	ABARIS REALTY, INC.	12009 Nebel St ,Rockville
5432	A-BARR METROPLEX COMPANY	1199 N Great Southwest Pkwy ,Grand Prairie
5433	ABART PROPERTIES CORPORATION	14614 N Kierland Blvd Ste N340 ,Scottsdale
5434	ABARTA, INC.	200 Alpha Drive ,Pittsburgh
5436	ABAS USA INC.	45940 Horseshoe Dr ,Sterling
5438	ABASCO, LLC	8561 E. North Belt ,Humble
5440	ABAT BUILDERS INC.	10700 W. Higgins Road, Suite 350 ,Rosemont
5442	ABATE IRWIN, INC.	62 Eighty Four Drive ,Eighty Four
5443	ABATE TECH, INC.	P.O. Box 25 ,Lumberton
5444	ABATE-A-WEED, INC.	9411 Rosedale Highway ,Bakersfield
5448	ABATEMENT MANAGEMENT, INC.	6990 State Route 111 ,South Roxana
5449	ABATEMENT SERVICES, INC.	9417 St. Vincent ,Shreveport
5450	ABATEMENT TECHNICAL SERVICES, LLC	2509 Sanderson Lane ,Virginia Beach
5451	ABATEMENT TECHNOLOGIES, INC.	605 Satellite Blvd., Suite 300 ,Suwanee
5455	ABATIX CORP.	2400 Skyline Drive ,Mesquite
5456	ABATO, RUBENSTEIN AND ABATO, P.A.	809 Glen Eagles Ct Ste 320 ,Baltimore
5459	ABAX INCORPORATED	51-09 Second Street ,Long Island City
5460	ABAX SERVICES CORPORATION	51-09 Second Street ,Long Island City
5461	ABAXIS, INC.	3240 Whipple Road ,Union City
5463	ABAY ORTHODONTICS PA	3305 E Douglas, Suite 201 ,Wichita
5466	ABB CONCISE OPTICAL GROUP	12301 N W 39th Street ,Coral Springs
5467	ABB INC.	12040 Regency Parkway, Suite 200 ,Cary
5468	ABB SERVICES, LLC	P.O. Box 760 ,Zanesville
5470	ABBA CONTRACT, INC.	2500 Conne Drive ,Birmingham
5472	ABBA EYE CARE, INC.	1130 Lake Plaza Drive, Ste 245 ,Colorado Springs
5475	ABBA OPTICAL INC	2230 Centre Park Court ,Stone Mountain
5476	ABBA PRODUCTS CORPORATION	1301 Central Avenue ,Hillside
5481	ABBALLE PLUMBING SUPPLY CORP	366 Hillside Ave ,Williston Park
5485	ABBAS RAISSI, DDS, INC.	7880 Wren Ave., Bldg. E-151 ,Gilroy
5488	ABBATE DEMARINIS, LLP	377 Oak Street, Suite 209 ,Garden City
5489	ABBATE INSURANCE ASSOCIATES, INC.	671 State Street ,New Haven
5492	ABBCO INC	2401 American Lane ,Elkgrove Villlage
5495	ABBE A. KINGSTON	180 Pomar Lane ,Santa Barbara
5496	ABBE CENTER FOR COMMUNITY CARE, INC .	1860 County Home Road ,Marion
5498	ABBE LUMBER CORP.	200 Avenel Street ,Avenel
5499	ABBE, INC.	1860 County Home Rd ,Marion
5501	ABBELL CREDIT CORPORATION	30 N La Salle St Ste 2120 ,Chicago
5504	ABBEVILLE DENTAL HEALTH MANAGEMENT, LLC	5255 79th Street ,Lubbock
5506	ABBEVILLE FIRST BANK SSB	Po Box 428 ,Abbeville
5509	ABBEVILLE PRESS, INC.	137 Varick St, Ste 504 ,New York
5510	ABBEVILLE SEABOARD FCU	603 E Greenwood St ,Abbeville
5511	ABBEY ADAMS BYELICK & MUELLER LLP	360 Central Ave Fl 11 ,St Petersburg
5512	ABBEY CAPITAL US, LLC	330 Madison Avenue ,New York
5515	ABBEY CREDIT UNION, INC.	800 Falls Creek Drive ,Vandalia
5516	ABBEY DECORATING CENTER, INC.	6808 151st W Ste 104 ,Apple Valley
5518	ABBEY DRUM COMPANY, INC.	1440 Chesapeake Avenue ,Baltimore
5520	ABBEY GLASS INC	11617 Gravois Rd ,St Louis
5521	ABBEY HART BRICK COMPANY, INC.	44 Howard Street ,Piscataway
5522	ABBEY ICE CO INC	69 W Church St ,Spring Valley
5524	ABBEY MECCA & CO INC	26 Mississippi St Ste 100 ,Buffalo
5525	ABBEY MEDICAL ASSOCIATES, PC	139 Lincoln Street ,Framingham
5527	ABBEY OF THE GENESEE	3258 River Road ,Piffard
5530	ABBEY REALTY INC	P.O. Box 5222 ,Lacey
5532	ABBEY SALES CORPORATION	2970 Maria Avenue, Suite 107 ,Northbrook
5533	ABBEY SPANIER, LLP	212 East 39th Street ,New York
5534	ABBEY SPRINGS, INC	One Country Club Drive ,Fontana
5535	ABBEY ST. CLAIRE QUALITY CARE CO.	3415 N. Odell Ave. ,Chicago
5537	ABBEY TRAVEL, LTD.	522 N. Washington St. ,Naperville
5538	ABBEY VACATION RENTALS, LLC	77-6425 Kuakini Highway, C2, Pmv 80 ,Kailua-Kona
5539	ABBEY, WEITZENBERG, WARREN & EMERY, A PROFESSIONAL CORPORATION	P.O. Box 1566 ,Santa Rosa
5540	ABBEY-FRITZ FENCE CO., INC.	4113 Aquarium Place ,Baltimore
5542	ABBEY-SIMMONS CO	320 West 80th Street ,Kansas City
5543	ABBI HOME CARE, INC.	6453 Southwest Blvd ,Benbrook
5545	ABBIATI, INC.	P.O. Box 231 ,Northfield Falls
5547	ABBIE GREGG, INC.	1130 E. University Drive, Suite 105 ,Tempe
5549	ABBIT MANAGEMENT CORPORATION	16986 Robbins Road ,Grand Haven
5551	ABBOT & REISS, P.C.	90 Merrick Avenue, Suite 501 ,East Meadow
5552	ABBOT BUILDING RESTORATION CO., INC	28 Allerton Street ,Boston
5553	ABBOT FINANCIAL MANAGEMENT, INC.	510 Turnpike Street ,North Andover
5556	ABBOT STUDIOS ARCHITECTS PLANNERS DESIGNERS, LLC	130 E. Chestnut Street ,Columbus
5557	ABBOT TAX SERVICE, INC.	4900 SW Griffith Drive ,Beaverton
5558	ABBOTT & ABBOTT, PC	253 Washington Avenue ,Marietta
5559	ABBOTT & ASSOCIATES PC	4891 Willamette Falls Drive Ste 1 ,West Linn
5560	ABBOTT & ASSOCIATES, INC.	1035 Bellevue Avenue, Suite 110 ,St. Louis
5561	ABBOTT & COBB, INC.	P.O. Box 307 ,Feasterville
5562	ABBOTT & KINDERMANN, LLP	2100 21st Street ,Sacramento
5563	ABBOTT & MILLS, INC.	Po Box 2550 ,Newburgh
5564	ABBOTT & MUNNS LLC	4891 Willamette Falls Drive Ste 1 ,West Linn
5565	ABBOTT & SHAPIRO LLC	3 Corporate Drive, Ste 215 ,Shelton
5566	ABBOTT & WIESENFELD, P.A.	2929 Plummer Cove Road ,Jacksonville
5567	ABBOTT AMBULANCE INC.	2500 Abbott Place ,St. Louis
5568	ABBOTT AND ASSOCIATES, INC	1 Chestnut St ,Arlington
5569	ABBOTT AND SHAPIRO INC	3 Corporate Drive, Ste 215 ,Shelton
5571	ABBOTT ASSOCIATES, INC.	261A PepeS Farm Road ,Milford
5573	ABBOTT BIOTHERAPEUTICS	1400 Seaport Blvd ,Redwood City
5574	ABBOTT BROTHERS INC	70 N Main Street ,Manchester
5577	ABBOTT BUILDING CO.	Po Box 60550 ,Midland
5578	ABBOTT CAPITAL MANAGEMENT, LLC	1290 Avenue Of The Americas ,New York
5579	ABBOTT CHARTERS & TOURS, INC	1704 Granby Street, Ne ,Roanoke
5580	ABBOTT COMPANY, LTD.	345 E Flower Street ,Phoenix
5581	ABBOTT CONTRACTING COMPANY	36 Elizabeth Street ,Hackensack
5582	ABBOTT CORPORATION	1045 Sansome Street ,San Francisco
5583	ABBOTT ELECTRIC, INC.	4645 Monica Ave. Sw ,Canton
5585	ABBOTT EYE CLINIC, INC.	2222 West Lexington Avenue ,Elkhart
5586	ABBOTT FURNACE CO.	1068 Trout Run Road ,St. Marys
5587	ABBOTT GENERAL CONSTRUCTION, INC.	2503 58th Street ,Hampton
5588	ABBOTT GRAPHICS, INC. DBA CATALYST GRAPHICS	1060 Lone Oak Road ,Eagan
5589	ABBOTT HEALTHCARE PUERTO RICO LTD. C/O ABBOTT LABORATORIES	Corporate Benefits, D-589, Ap6B-2 ,Abbott Park
5590	ABBOTT HEYS & ASSOCIATES INC.	P.O. Box 1039 ,Mercer Island
5591	ABBOTT HOME CARE INC	209 Marion Pike ,Coal Grove
5593	ABBOTT HOUSE, INC.	100 North Broadway ,Irvington
5595	ABBOTT IMAGING, INC.	S3669 Southwestern Blvd ,Orchard Park
5596	ABBOTT INDUSTRIES INC	P O Box 1344 ,Okmulgee
5597	ABBOTT KAGAN, II, M.D., P.A.	8710 College Parkway ,Fort Myers
5598	ABBOTT LABEL, INC.	11440 Hillguard Road ,Dallas
5599	ABBOTT LABORATORIES	Corporate Benefits, D-589, Ap6B-2 ,Abbott Park
5600	ABBOTT LABORATORIES EES C/U	401 N Riverside Drive ,Gurnee
5605	ABBOTT PERSONNEL CONSULTING SERVICE	4 Faneuil Hall Market Place ,Boston
5606	ABBOTT PRODUCTS, INC.	86 Finnell Drive ,Weymouth
5609	ABBOTT RIGGING	115 Floyd Avenue ,Rocky Mount
5611	ABBOTT SUPPLY COMPANY, INC.	P.O. Box 170 ,Mcgehee
5615	ABBOTT TOOL INC	405 Dura Avenue ,Toledo
5616	ABBOTT VALVE & FITTING CO.	6090 Cochran Road ,Solon
5621	ABBOTT, FRENYEA & RUSSELL CPAS	134 Boynton Ave ,Plattsburgh
5622	ABBOTT, INC. T/A R&S LANDSCAPING, INC.	27 Greenwood Ave ,Midland Park
5623	ABBOTT, NICHOLSON, QUILTER, ESSHAKI & YOUNGBLOOD, PC	300 River Place Suite 3000 ,Detroit
5626	ABBOTT-ACTION, INC.	10 Campanelli Circle ,Canton
5628	ABBOTT-INTERFAST CORP.	190 Abbott Drive ,Wheeling
5629	ABBOTT-IPCO, INC.	P O Box 551329 ,Dallas
5630	ABBOTT-RHOTON INVESTMENTS, LLC	1750 Railroad Springs Blvd, Ste 10 ,Flagstaff
5631	ABBOTTS COMPOUNDING PHARMACY, INC.	2320 Woolsey Street, Suite 105 ,Berkeley
5633	ABBOTTS FROZEN CUSTARD, INC.	4791 Lake Avenue ,Rochester
5634	ABBOTTS LOBSTERS, INC.	P.O. Box 9280 ,Noank
5635	ABBOTTSFIELD INDUSTRIAL TRAINING, INC.	10157 SW Barbur Blvd., Suite 200-C ,Portland
5637	ABBOTTWOOD, INC.	176 Cashman Hill Road ,Ashburnham
5641	ABBRUZZESE BROS., INC.	7775 Smith-Calhoun Rd. ,Plain City
5642	ABBTECH STAFFING SERVICES, INC.	45625 Willow Pond Plaza ,Sterling
5643	ABBVIE INC.	Treasury, Dept V310, Bldg Ap34-2S ,North Chicago
5644	ABBVIE LTD. C/O ABBVIE INC.	Treasury, Dept V310, Bldg Ap34-2S ,North Chicago
5645	ABBY BANCORP, INC.	Po Box 648 ,Abbotsford
5649	ABBY HEALTH CARE, INC.	287 Edison Street ,Uniontown
5655	ABBY ROSE, INC.	602 Us Highway 130 ,Yardville
5658	ABBYLAND FOODS, INC.	Po Box 69 ,Abbotsford
5659	ABBYS PARKSIDE NURSERY & FLORIST INC	3333 Merrick Road ,Wantagh
5660	ABBYS, INC.	1960 River Rd ,Eugene
5662	ABBYY USA SOFTWARE HOUSE, INC.	880 N. Mccarthy Blvd. ,Milpitas
5663	ABC ACCOUNTS CORP.	10 Annapolis Dr. ,Vernon Hills
5664	ABC APPLIANCE, INC.	P.O. Box 436001 ,Pontiac
5666	ABC AUTO GLASS, INC.	P O Box 100 ,Mokelumne Hill
5667	ABC AUTO PARTS AND SALES, INC.	13741 S. Ashland Ave. ,Riverdale
5668	ABC AUTO PARTS INC	1128 Pinson Valley Parkway ,Birmingham
5669	ABC AUTO PARTS, LTD.	920 W. Marshall Avenue ,Longview
5670	ABC AUTOTECH INC	4411 30th St W ,Bradenton
5671	ABC AWNING & VENETIAN BLIND CORP.	858 St Andrews Blvd ,Charleston
5672	ABC BEHAVIORAL HEALTH	4600 Samuell Blvd. ,Dallas
5673	ABC BLIND & DRAPERY LLC	6221 N. Lamar Blvd. ,Austin
5675	ABC BOX COMPANY	1135 Leadenhall St ,Baltimore
5676	ABC BUILDING CORPORATION	1077 Aquidneck Avenue, Suite A ,Middletown
5680	ABC CATERING, LTD.	1355 S. Alpine Road ,Rockford
5685	ABC CLEAN UP SERVICES, INC.	2200 108th Ave., Ne ,Bellevue
5686	ABC COIN SORTING COUNTING SUPPLY, INC.	6190 Lbj Freeway, Building 200 ,Dallas
5691	ABC COMPUTERS, INC	1990 Godfrey Dr ,Waupaca
5692	ABC CONSTRUCTION COMPANY, INC.	3120 National Avenue ,San Diego
5694	ABC CONSULTANTS INC	4 Bristol Way ,East Windsor
5696	ABC COOLING & HEATING SERVICES, INC.	2705 N. Larkin Ave ,Fresno
5700	ABC CURRENCY SOLUTIONS, LLC	111 Chester Stevens Ct. ,Franklin
5701	ABC CUTTING CONTRACTORS OF ATLANTA, INC.	4864 Clark Howell Highway ,College Park
5702	ABC CUTTING CONTRACTORS, INC.	5230 Commerce Circle ,Indianapolis
5703	ABC CYCLE INC	4405 Highland Rd ,Waterford
5704	ABC DAYCARE & LEARNING CENTERS, INC	499 Rosslare Dr. ,St. Charles
5705	ABC DAYCARE CENTER OF WNY, INC.	5779 Transit Road ,Depew
5706	ABC DENTISTRY, LTD.	1880 N. Roselle Rd., #212 ,Schaumburg
5707	ABC DISPOSAL SERVICE, INC.	1245 Shawmut Avenue ,New Bedford
5712	ABC ELECTRIC COMPANY, INC.	1012 N 25th ,Lincoln
5713	ABC ELECTRIC CORP.	24-25 46th St. ,Astoria
5720	ABC FENCE COMPANY, INC.	11224 Applewood ,Austin
5721	ABC FENCE SYSTEMS INC	963 Industrial Dr ,Chipley
5722	ABC FINANCIAL	8320 Hwy 107 ,Sherwood
5723	ABC FINE WINE AND SPIRITS	8989 South Orange Avenue ,Orlando
5724	ABC FIRE	10250 Royalton Road ,North Royalton
5725	ABC FIRE PROTECTION INC	35367 Fircrest St Ste B ,Newark
5726	ABC FUEL OIL COMPANY	25 N. Lockwillow Ave. ,Harrisburg
5727	ABC GLASS & MIRROR CORP.	3513 Avenue S ,Brooklyn
5730	ABC GROUP HOLDINGS, INC.	2 Norelco Drive ,North York
5733	ABC HEALTH CARE, INC.	1605 Holland Rd Ste A1 ,Maumee
5736	ABC IMAGING OF WASHINGTON, INC.	1155 21st St NW Suite M 400 ,Washington
5737	ABC INDUSTRIES, INC.	P.O. Box 77 ,Warsaw
5739	ABC JEWELRY CO., INC.	534 SW 3rd Avenue, Suite 506 ,Portland
5740	ABC KORTSCH MOVING AND STORAGE	2403 N Maryland Ave ,Milwaukee
5741	ABC LAWN SPRINKLER CO INC	8240 Cherry Ln ,Nampa
5742	ABC LEGAL SERVICES, INC.	633 Yesler Way ,Seattle
5744	ABC LOGISTICS CORPORATION	1000 Summer Springs Road ,Collierville
5745	ABC MAGIC MOMENTS, INC.	2367 Jackson Street ,Fremont
5747	ABC MANAGEMENT GROUP	330 Rancheros Drive, Suite 102 ,San Marcos
5748	ABC MANAGEMENT SERVICES INC	169 E Flagler St ,Miami
5749	ABC MARINE, LLC	10188 E I 25 Frontage Rd ,Firestone
5750	ABC MEDICAL SERVICES, INC.	1347 Lorraine Place ,Schaumburg
5752	ABC MOVING & STORAGE CO., INC	633 Goddard Avenue ,Chesterfield
5755	ABC OF DELAWARE	31 Blevins Dr Ste B ,New Castle
5758	ABC OFFICE EQUIPMENT CO., INC	7322 E. Broadway Ave ,Spokane
5759	ABC OPTOMETRY CORPORATION	1478 Christie Street ,Fullerton
5760	ABC ORTHOTICS AND PROSTHETICS, INC.	3616 7th Court South ,Birmingham
5762	A-B-C PACKAGING MACHINE CORPORATION	811 Live Oak Street ,Tarpon Springs
5763	ABC PAINTING, INC.	1260 Railroad Avenue, Building 750 ,Vallejo
5765	ABC PAYMENT SERVICES, INC	2960 Judicial Road, Suite 100 ,Burnsville
5766	ABC PEDIATRIC CLINIC LLC	1900 Main Avenue Sw ,Cullman
5767	ABC PEDIATRIC DENTISTRY, P.C.	169 Spring Creek Parkway, Suite 200 ,Providence
5771	ABC PEDIATRICS & FAMILY CARE CENTER, P.C.	39 Andrews Way ,Kingsland
5773	ABC PEDIATRICS OF DUNN, P. A.	104 Tilghman Drive ,Dunn
5775	ABC PEDIATRICS OF OKALOOSA, P.A.	182 E Redstone, Suite B ,Crestview
5782	ABC PEDIATRICS, PLLC	1920 Black Lake Blvd. Sw ,Olympia
5784	ABC PEST CONTROL INC. OF AUSTIN	9475 E. Hwy 290 ,Austin
5785	ABC PEST CONTROL OF DALLAS, INC	997 GrandyS Lane ,Lewisville
5786	ABC PEST CONTROL OF HOUSTON, INC.	8448 North Sam Houston Parkway West ,Houston
5788	ABC PHONETIC READING SCHOOL	1502 W Osborn Rd ,Phoenix
5789	ABC PLATING INC	1550 Industrial Way ,Sparks
5790	ABC PLUMBING HEATING AND AIR CONDITIONING	205 22nd St ,Sacramento
5791	ABC PLUMBING, HEATING & COOLING, INC.	760 Hastings Lane ,Buffalo Grove
5795	ABC PRINTING, INC.	Po Box 3309 ,Lacey
5796	ABC PROFESSIONAL TREE SERVICES	201 Flint Ridge Road ,Webster
5797	ABC PROFESSIONALS, INC.	233 Albion Street ,Wakefield
5798	ABC PROPERTY MANAGEMENT LLC	677 Englewood Ave ,Tonawanda
5800	ABC RANCH	6497 Cunningham Creek Road ,Canisteo
5801	ABC REAL ESTATE, LLC	1659 Cody Avenue ,Ridgewood
5802	ABC RENTALS INC. DBA ABC RENTALS CENTER	3000 Hewes Ave ,Gulfport
5803	ABC RESEARCH CORPORATION	3437 SW 24th Avenue ,Gainesville
5804	ABC RESEARCH HOLDING COMPANY L	3437 SW 24th Ave ,Gainesville
5805	ABC ROOFING CO., INC	10123 SE Brittany Ct ,Clackamas
5807	ABC SAFETY & FIRE INC	750 Fairfield Ave ,Kenilworth
5809	ABC SAND AND ROCK, INC.	5401 N 119th Ave ,Glendale
5810	ABC SCHOOL EQUIPMENT, INC	1451 East Sixth Street ,Corona
5812	ABC SEAMLESS OF ALBERT LEA, INC	603 South First Avenue ,Albert Lea
5813	ABC SEAMLESS OF NORTHEAST OHIO, INC	9238 Cr 245 ,Fredericksburg
5817	ABC SHEET METAL INC	2871 E La Cresta Avenue ,Anaheim
5819	ABC SOBER LIVING, LLC	810 Emerald Street ,San Diego
5820	ABC SOFTWARE, INC.	44 Stoneymeade Way ,Acton
5821	ABC SUPPLY CO INC	One Abc Parkway ,Beloit
5822	ABC SUPPLY INC	P O Box 161145 ,Sacramento
5824	ABC TERMITE & PEST CONTROL, INC.	5610 Holdrege Street ,Lincoln
5826	ABC TILE DISTRIBUTORS, INC.	3105 18th Street ,Metairie
5827	ABC VIRTUAL COMMUNICATIONS, INC.	1051 Office Park Rd ,West Des Moines
5828	ABC WELLNESS	29628 Strathmore Dr ,Farmington Hills
5829	ABC WINDOW CONTRACTORS, INC.	803 Vaca Valley Parkway C ,Vacaville
5836	ABCAM, INC.	1 Kendall Sq - Ste 341 - 3rd Floor ,Cambridge
5840	ABCD CORPORATION	3900 Industrial Park Drive ,Altoona
5841	ABCD PEDIATRICS, P.A.	19238 Stonehue ,San Antonio
5844	ABCD TRANSPORTATION COMPANY, INC.	500 Lake Cook Rd 350 ,Deerfield
5845	ABCD, INC.	1070 Park Avenue ,Bridgeport
5849	ABCM CORPORATION	P.O Box 436 ,Hampton
5852	ABCO BUILDERS, INC	2680 Abco Court ,Lithonia
5853	ABCO CONSTRUCTION SERVICES CORPORATION	6901 S. Yosemite Suite 205 ,Englewood
5854	ABCO CORPORATION	5751 E General Washington Dr ,Alexandria
5856	ABCO DIE CASTERS, INC.	39 Tompkins Point Road ,Newark
5857	ABCO ELECTRIC CORP	245 Carroll Ave ,Ronkonkoma
5860	ABCO FEDERAL CREDIT UNION	209 Main Street ,Rancocas
5861	ABCO FIRE PROTECTION, INC	1391 Frey Road ,Pittsburgh
5863	ABCO LABORATORIES, INC.	2450 S. Watney Way ,Fairfield
5864	ABCO MECHANICAL CONTRACTORS, INC.	25 Alverno Court ,Redwood City
5866	ABCO METAL CORPORATION	1020 W 94th Street ,Chicago
5867	ABCO METALS, INC.	805 Main Street ,Chatham
5872	ABCO SERVICES, LLC.	1185 Weber Avenue Sw ,Strasburg
5875	ABCO WHOLESALE DISTRIBUTORS	880 West Main Street ,New Britain
5876	ABCO, INC.	1621 Wall Street ,Dallas
5878	ABCON, INC.	3125 Shady Run Road ,Youngstown
5880	ABCREATIVE, INC.	32225 W. 88th St. ,Desoto
5881	ABCS FOR CHILDREN, INC.	1697 Northgate Drive ,Pittsburgh
5882	ABCS FOR SUCCESS LLC	1550 S. Dixie Hwy, Ste 203 ,Miami
5884	ABCT, INC.	1813 W Harvard Blvd. Suite 431 ,Roseburg
5886	ABD ASSOCIATES, LLP	Abd Associates, Llp ,Hawthorne
5887	ABD COMMERCIAL CHEMICAL, INC.	1110 West Keystone Avenue ,Catoosa
5888	ABD INSURANCE & FINANCIAL SERVICES, INC.	3 Waters Park Drive ,San Mateo
5891	ABDALLAH CANDIES, INC.	3501 County Road 42 W ,Burnsville
5896	ABDEL-FATTAH, REDA A	1050 NW 15th Street ,Boca Raton
5897	ABDELLA LAW OFFICE	8 West Fulton Street ,Gloversville
5900	ABDO CONSULTING GROUP	1920 Lookout Drive ,North Mankato
5901	ABDO DEVELOPMENT, LLC	1404 14th St NW ,Washington
5903	ABDO, EICK & MEYERS, LLP	11 Civic Center Plaza ,Mankato
5910	ABDOMINAL SURGEONS LTD.	525 N 18th St Ste 301 ,Phoenix
5911	ABDON CALLAIS OFFSHORE, LLC	Po Box 727 ,Golden Meadow
5912	ABDONEY ORTHODONTICS, PLLC	3516 West Bay To Bay Blvd. ,Tampa
5913	ABDONEY PEDIATRIC DENTISTRY, P.A.	2220 East Bloomingdale, Ste. A ,Valrico
5934	ABE ANCSELOVICS, DDS	1407 Ave P ,Brooklyn
5935	ABE BERNSTEIN CLOTHING INC	807 E Carson St ,Pittsburgh
5936	ABE DENTAL, P.C.	401 Monocacy Drive ,Bath
5937	ABE ENTERPRISES, INC	1965 Vaughn Road Ste C ,Kennesaw
5942	ABE SHUSTER	999 Peachtree Street Ste710 ,Atlanta
5943	ABE SHUSTER DDS, LLC	999 Peachtree St, Ste 710 ,Atlanta
5946	ABEA NEURODIAGNOSTICS, INC.	10460 Rose Ann Circle ,Cypress
5947	ABEAM CONSULTING USA, LTD	8445 Freeport Parkway ,Irving
5949	A-BEAUTIFUL POOLS, INC.	21175 Tomball Pkwy, #725 ,Houston
5950	ABEC ELECTRIC CO., INC.	407 Spence Lane ,Nashville
5951	ABEC, INC.	3998 Schelden Circle ,Bethlehem
5952	ABECK, INC.	244 California Street, Suite 210 ,San Francisco
5953	ABEDNEGO ENVIRONMENTAL SERVICES, LLC	27175 Haggerty Rd, Suite 125 ,Novi
5959	ABEKAS, INC.	1090 OBrien Drive ,Menlo Park
5962	ABEL & SON, INC.	1537 Country Squire Rd. ,Elizabethtown
5964	ABEL AGUILAR, DMD, LLC	404 West Perry Street ,Manchester
5969	ABEL CENTER FOR OCULOFACIAL PLASTIC SURGERY, LLC	1941 Limestone Road, Suite 200 ,Wilmington
5971	ABEL CINE TECH, INC.	609 Greenwich Street ,New York
5972	ABEL COMMUNICATIONS, INC.	3355 Keswick Rd Ste 300 ,Baltimore
5973	ABEL CONSTRUCTION CO., INC	3925 Columbia Avenue ,Mountville
5974	ABEL CONSTRUCTION COMPANY, INC.	3401 Bashford Avenue Court ,Louisville
5975	ABEL DENTAL CARE	1828 Saddle Park Avenue ,San Jose
5977	ABEL HR II, INC.	2 Corporate Drive ,Cranbury
5978	ABEL HR, INC.	2 Corporate Drive ,Cranbury
5979	ABEL J PAREDES MDPA	915 Gessner Ste 350 ,Houston
5981	ABEL LANDSCAPING, INC.	N4193 Hwy 175 S ,Fond Du Lac
5982	ABEL LAW GROUP, LLP	8911 N. Capital Of Texas Hwy, ,Austin
5983	ABEL MANUFACTURING COMPANY	3260 Beekman St ,Cincinnati
5984	ABEL MANUFACTURING COMPANY, INC.	1100 N. Mayflower Drive ,Appleton
5985	ABEL MCCALLISTER DESIGNS LLC	7435 Greenbush Avenue ,North Hollywood
5986	ABEL OIL COMPANY, INC.	P.O. Box 532 ,Louisiana
5988	ABEL RESOURCES	1010 North Elm Street ,Greensboro
5990	ABEL SOLUTIONS, INC.	3820 Mansell Road, Suite 260 ,Alpharetta
5991	ABEL STAFFING, INC.	P.O. Box 4038 ,Harrisburg
5992	ABEL TRANSMISSION, INC.	130 Enterprise Drive ,Bristol
5993	ABEL VAULT & MONUMENT COMPANY	1917 North 8th Street ,Pekin
5994	ABEL WOMACK, INC.	One International Way ,Lawrence
5999	ABELCONN, LLC	9210 Science Center Drive ,New Hope
6000	ABELDTS GASLIGHT PHARMACY, INC.	200 Gaslight Blvd ,Lufkin
6001	ABELE TRACTOR & EQUIPMENT CO., INC.	72 Everett Road ,Albany
6002	ABELEI, INC.	194 Alder Drive ,North Aurora
6003	ABELES & HOFFMAN, P.C.	9666 Olive Boulevard ,St. Louis
6004	ABELES AND ASSOCIATES ARCHITECTS	48 Eliot St ,Natick
6006	ABELL & CROZIER ARCHITECTS APC, INC.	1604 W Pinhook Rd ,Lafayette
6007	ABELL & SON INC	220 South Adams St ,Welsh
6008	ABELL ELEVATOR INTERNATIONAL, INC.	1256 Logan Street ,Louisville
6010	ABELL PEST CONTROL	246 Attwell Drive ,Etobicoke
6013	ABELLATECH, INC.	1910 St. Joe Center Road, Suite 34 ,Fort Wayne
6015	ABELMAN FRAYNE & SCHWAB	666 Third Avenue ,New York
6016	ABELOFF PONTIAC, INC	1167 North 9th Street ,Stroudsburg
6017	ABELS EXPRESS, INC.	6761 Crisphalt Drive ,Bath
6018	ABELSON & COMPANY LLC	6636 Main St Ste 4 ,Williamsville
6019	ABELSON HERRON HALPERN, LLP	333 South Grand Avenue, Suite 1550 ,Los Angeles
6020	ABELSON-TAYLOR, INC.	33 W Monroe St ,Chicago
6023	ABENAQUI COUNTRY CLUB, INC.	731 Central Road ,Rye Beach
6024	ABENDROTH AND RUSSELL, P.C.	2536 73rd St ,Des Moines
6025	ABENDROTH, BERNS & WARNER, LLC	40 Grove Street, Suite 375 ,Wellesley
6029	ABENGOA SOLAR	C/O Rps Plan Administrators ,Greenwood Village
6031	ABEO MANAGEMENT CORPORATION	7301 North S.H. 161 ,Irving
6035	ABERCROMBIE & ASSOCIATES, LLC	8609 2nd Avenue, Unit 507B ,Silver Spring
6036	ABERCROMBIE & FITCH CO.	6301 Fitch Path ,New Albany
6037	ABERCROMBIE & KENT USA, LLC	1411 Opus Place ,Downers Grove
6038	ABERCROMBIE ACADEMY SCHOOL, LLC	17102 Theiss Mail Rd ,Spring
6040	ABERCROMBIE OIL COMPANY, INC	Po Box 1422 ,Danville
6041	ABERCROMBIE RADIOLOGICAL CONSULTANTS, INC.	1112 Weisgarber Road, Suite 201 ,Knoxville
6042	ABERCROMBIE TEXTILES, LLC	3400 Us 221 Alternate ,Cliffside
6044	ABERCROMBIE, SIMMONS AND GILLETTE, INC	5300 Hollister, Suite 400 ,Houston
6045	ABERDARE MANAGEMENT CO., LLC	One Embarcadero Center, Suite 4000 ,San Francisco
6046	ABERDEAN CONSULTING, LLC	C/O Retirement Strategies, Llc ,Little Chute
6047	ABERDEEN AND ROCKFISH RAILROAD CO.	P.O. Box 917 ,Aberdeen
6048	ABERDEEN ASSET MANAGEMENT	1 Iron Street ,Boston
6051	ABERDEEN ASSET MANAGEMENT, INC.	1735 Market Street, 32nd Floor ,Philadelphia
6052	ABERDEEN AT ORMOND BEACH	50 Allwood Green Building ,Ormond Beach
6054	ABERDEEN CAPTIONING INC.	22362 Gilberto ,Rancho Santa Margari
6055	ABERDEEN COCA-COLA BOTTLING CO, INC	P.O. Box 518 203 West South Street ,Aberdeen
6056	ABERDEEN CONSTRUCTION, INC.	4158 Jason Street ,Denver
6057	ABERDEEN DENTAL ASSOCIATES	Po Box 1186 ,Aberdeen
6059	ABERDEEN DEVELOPMENT CORPORATION	416 N. Production St. ,Aberdeen
6060	ABERDEEN DYNAMICS SUPPLY, INC.	17717 E. Admiral Place ,Catoosa
6061	ABERDEEN DYNAMICS, LLC	17717 E Admiral Place ,Tulsa
6062	ABERDEEN ENTERPRIZES INC	4143 E. 31st Street ,Tulsa
6063	ABERDEEN EXPRESS, INC.	1400 Glendale-Milford Road ,Cincinnati
6064	ABERDEEN FEDERAL CREDIT UNION	Po Box 1495 ,Aberdeen
6066	ABERDEEN LINKS LLC.	4111 Crescent Road ,Eureka
6067	ABERDEEN LLC	10420 Pioneer Blvd ,Santa Fe Springs
6070	ABERDEEN PROVING GROUND FEDERAL CREDIT UNION	1321 Pulaski Highway ,Edgewood
6071	ABERDEEN ROAD COMPANY	105 E. Sinking Springs Lane ,Emigsville
6072	ABERDEEN SURGICAL ASSOCIATES, LLP	310 South Penn Street, Suite 201 ,Aberdeen
6074	ABERDEEN WEALTH MANAGEMENT LLC	515 Glen Avenue ,Lake Bluff
6075	ABERGEL INSTITUTE INC	2001 Santa Monica Boulevard ,Santa Monica
6081	ABERNATHY & TIMBERLAKE INVESTMENT G	1505 Lakes Pkwy ,Lawrenceville
6082	ABERNATHY AND COMPANY	Po Box 36344 ,Charlotte
6083	ABERNATHY CONSTRUCTION, INC.	10891 Winfrey Road ,Glen Allen
6084	ABERNATHY LIGHTING DESIGN, INC.	15 Thomas Street ,North Providence
6085	ABERNATHY, ROEDER, BOYD & JOPLIN, P.C.	1700 Redbud Blvd. ,Mckinney
6086	ABERNETHY CHEVROLET, INC.	1445 E Main Street ,Lincolnton
6087	ABERNETHY, AULD & YOUNG, P.C.	4499 Mt. Royal Boulevard ,Allison Park
6089	ABERSONS	3509 S Peoria ,Tulsa
6091	ABERTIS USA CORP	1737 H St NW Ste 200 ,Washington
6092	ABES BAUMANN, P. C.	810 Penn Ave ,Pittsburgh
6093	ABES DISCOUNT PLUMBING & ELECTRIC, INC.	950 South 9th Street ,Modesto
6097	ABESCO DISTRIBUTING CO., INC.	5851 Florin Perkins Road ,Sacramento
6098	ABESCO, INC.	2200 Stonington Ave Ste 200 ,Hoffman Estates
6100	A-BEST ROOFING, INC.	1411 E 3rd St. ,Tulsa
6104	ABEY ARNOLD ASSOCIATES INC	1005 A St. #305 ,San Rafael
6105	ABEYTA & WEINER & CHERNE, P.C.	8500 Menaul Blvd. Ne ,Albuquerque
6106	ABEYTA NELSON P.C.	1102 W. Yakima Ave ,Yakima
6107	ABF FREIGHT SYSTEM, INC.	P.O. Box 10048 ,Fort Smith
6110	ABFALTER BROTHERS CONCRETE LLC	15546 Cleveland St ,Elk River
6112	ABFORM, INC.	P.O. Box 53983 ,Lafayette
6113	ABG ACQUISITION CORPORATION	3810 Wabash Drive ,Mira Loma
6115	ABG SERVICES INC	3920 Veterans Memorial Hwy ,Bohemia
6116	ABG SUNDAL COLLIER HOLDINGS INC.	535 Madison Avenue, 17th Floor ,New York
6117	ABG, AN ADAYANA COMPANY, LLC	3500 Depauw Boulevard ,Indianapolis
6118	ABG, INC.	3905 Vincennes Rd Ste 402 ,Indianapolis
6120	ABGENOMICS INTERNATIONAL INC.	4966 El Camino Real Suite #200 ,Los Altos
6121	ABH ADDICTION & BEHAVIORAL HEALTH SERVICES, INC.	5835 North 90th Street ,Omaha
6123	ABH PHARMACY & MEDICAL SUPPLIE	219 Collins Ave ,Baltimore
6124	ABH, INC.	855 Valley Rd Suite 210 ,Clifton
6129	ABHT STRUCTURAL ENGINEERS, LLC	1640 NW Johnson Street ,Portland
6132	ABI COMPANIES, INC.	4301 Anchor Plaza Pkwy Ste 400 ,Tampa
6134	ABI FORKLIFT PARTS, INC.	P.O. Box 14086 ,Oakland
6135	ABI INNOVATION HUB	844 Elm Street Suite 100 ,Manchester
6136	ABI MORTGAGE, INC.	1901 North Roselle Road, Suite 320 ,Schaumburg
6139	ABIC INTERNATIONAL CONSULTANTS, INC.	24 Spielman Road ,Fairfield
6142	ABID HUSSAIN, M.D.	255 N. Gilbert Street ,Hemet
6143	ABIDE BUILDERS, INC.	5151 North Palm Avenue, Suite 920 ,Fresno
6144	ABIDE THERAPEUTICS	3545 John Hopkins Court #250 ,San Diego
6145	ABIDE, INC.	483 Shaker Road ,East Longmeadow
6146	ABIDING WEALTH ADVISORS, LLC	10815 Sikes Place, Suite 320 ,Charlotte
6150	ABIGAIL CONSULTING LLC	100 Matawan Road Suite 140 ,Matawan
6151	ABIGAIL HOMES, INC.	1000 Chadwick Court ,Aurora
6152	ABIGAIL HOUSE FOR NURSING AND REHABILITATION	1105 Linden Street ,Camden
6153	ABIGAIL KIRSCH AT TAPPAN HILL, INC.	81 Highland Avenue ,Tarrytown
6155	ABIGAIL MICHAELS CONCIERGE, INC	622 Third Avenue ,New York
6158	ABILA, INC.	10800 Pecan Park Blvd ,Austin
6160	ABILENE AERO, INC.	2850 Airport Blvd. ,Abilene
6163	ABILENE BONE & JOINT CLINIC, LLP	1749 Pine St ,Abilene
6166	ABILENE CHILDRENS MEDICAL ASSOCIATION	2150 Cedar ,Abilene
6167	ABILENE CHRISTIAN UNIVERSITY	Acu Box 29120 ,Abilene
6168	ABILENE DENTAL ASSOCIATES	5309 Buffalo Gap Road ,Abilene
6169	ABILENE DERMATOLOGY & SKIN SURGERY CENTER PC	3190 Antilley Road ,Abilene
6170	ABILENE DIAGNOSTIC CLINIC	1 Village Drive Suite 250 ,Abilene
6172	ABILENE FEDERAL CREDIT UNION	810 N 6th St ,Abilene
6174	ABILENE IMAGING CENTER, LLC	750 North 18th Street ,Abilene
6175	ABILENE INC.	2402 Neptune Ave ,Brooklyn
6176	ABILENE INTERNIST & ASSOCIATES, PA	2308 Creekside Circle ,Irving
6177	ABILENE KIDNEY CLINIC	1904 Pine St., Ste 4 B ,Abilene
6180	ABILENE MOTOR EXPRESS	1700 Willis Road ,Richmond
6181	ABILENE NEW HOLLAND	1358 S. Treadaway Blvd. ,Abilene
6184	ABILENE SALES, INC.	1649 S Treadaway Blvd ,Abilene
6185	ABILENE TEACHERS FCU	3849 Antilley Rd ,Abilene
6186	ABILENE VETERINARY CLINIC	1365 S. Danville ,Abilene
6187	ABILHEIRA & NEWMAN PC	34 East Main Street ,Freehold
6188	ABILIS NEW ENGLAND	245 Commercial Street, Suite 303 ,Portland
6191	ABILITIES CENTER OF SOUTHERN NJ	1208 Delsea Dr ,Westville
6192	ABILITIES FIRST INC	70 Overocker Road ,Poughkeepsie
6193	ABILITIES IN MOTION	5701 Cheviot Road ,Cincinnati
6194	ABILITIES NETWORK	8503 Lasalle Road ,Towson
6195	ABILITIES PLUS, INC.	1100 N. East St. ,Kewanee
6196	ABILITIES REHABILITATION CENTER, LLC DBA ABILITIES PHYSICAL THERAPY	15 Rye Street, Suite 125 ,Portsmouth
6197	ABILITIES SERVICES, INC.	1237 Concord Road ,Crawfordsville
6198	ABILITIES UNITED	525 E. Charleston ,Palo Alto
6200	ABILITIES UNLIMITED INC.	3305 Kibler Road ,Van Buren
6204	ABILITY BEYOND DISABILITY, INC.	4 Berkshire Blvd ,Bethel
6208	ABILITY CENTER	4797 Ruffner Street ,San Diego
6211	ABILITY COUNTS, INC.	775 Tradmark Circle ,Corona
6212	ABILITY FASTENERS, INC.	685 Fargo Ave ,Elk Grove Village
6213	ABILITY FIRST	491 N. Freedom Boulevard ,Provo
6214	ABILITY HEALTH SERVICES, INC.	1200 Lexington Green Lane ,Sanford
6216	ABILITY INC	3021 Cullerton Dr ,Franklin Park
6217	ABILITY NETWORK INC	100 N 6th St Ste 900A ,Minneapolis
6220	ABILITY PROSTHETIC SYSTEMS, INC.	750 East 100 South ,Salt Lake City
6221	ABILITY PROSTHETICS & ORTHOTICS INC.	660 W. Lincoln Highway ,Exton
6222	ABILITY REHAB ASSOCIATES	100 E Carroll St #400 ,Salisbury
6224	ABILITY RESOURCES, INC	161 Worcester Road Suite 300 ,Framingham
6226	ABILITY SPECIALISTS	5241 S. Quebec St ,Greenwood Village
6227	ABILITY TECHNOLOGIES INC	35 John St ,Akron
6228	ABILITY WORKS REHAB SERVICES, LLC	28592 Orchard Lake Road ,Farmington Hills
6229	ABILITY, INC.	1108 Calle Sol ,San Clemente
6230	ABILITYFIRST	1300 E. Green Street ,Pasadena
6232	ABILSOFT INCORPORATED	4115 Hidden Rock Road ,Colorado Springs
6234	ABINGDON BUSINESS CAPITAL	186 E Sunnyoaks Ave, Suite D ,Campbell
6235	ABINGDON CAPITAL MANAGEMENT, LTD.	1650 Tysons Boulevard, Suite 1575 ,Mclean
6236	ABINGDON EAR, NOSE, & THROAT, ASSOCIATES, P.C.	Po Box 1328 ,Abingdon
6240	ABINGDON RADIOLOGY SERVICES, LTD	P.O. Box 918 ,Abingdon
6242	ABINGTON ANIMAL HOSPITAL CORPORATION	19 Randolph Street ,Abington
6243	ABINGTON BANK	180 Old York Rd ,Jenkintown
6244	ABINGTON DENTAL ARTS PC	242 Noble Rd ,Clarks Summit
6247	ABINGTON DERMATOLOGY ASSOCIATES, P.C.	500 Old York Road ,Jenkintown
6249	ABINGTON EMERSON	11100 Santa Monica Blvd, Suite 260 ,Los Angelos
6251	ABINGTON FRIENDS SCHOOL	575 Washington Lane ,Jenkintown
6253	ABINGTON GROUP, INC.	195 West Road ,Portsmouth
6254	ABINGTON HEMATOLOGY ONCOLOGY ASSOCIATES, INC.	2500 Maryland Road ,Willow Grove
6255	ABINGTON HOLDING	950 Third Avenue ,New York
6256	ABINGTON MEDICAL SPECIALISTS ASSOCIATION, PC	1235 Old York Road, Suite 222 ,Abington
6257	ABINGTON MEMORIAL HOSPITAL	1200 Old York Road ,Abington
6258	ABINGTON NEUROLOGICAL ASSOCIATES, LTD	2325 Maryland Avenue - Suite 120 ,Willow Grove
6259	ABINGTON ORAL AND MAXILLOFACIA	1235 Old York Rd Ste 122 ,Abington
6260	ABINGTON ORTHOPAEDIC SPECIALISTS, P.C.	2400 Maryland Road, Suite 20 ,Willow Grove
6261	ABINGTON PEDIATRIC ASSOCIATES, LLP	1047 Old York Road ,Abington
6263	ABINGTON PHARMACY, INC.	1460 Old York Road ,Abington
6264	ABINGTON PULMONARY AND CRITICAL CARE ASSOCIATES, LTD.	1235 Old York Road, Suite 121 ,Abington
6266	ABINGTON REGIONAL WASTEWATER AUTHORITY	200 Northern Boulevard ,Chinchilla
6268	ABINGTON RELDAN METALS, LLC	550 Old Bordentown Rd ,Fairless Hills
6269	ABINGTON REPRODUCTIVE MEDICINE, P.C.	1245 Highland Avenue - Suite 404 ,Abington
6270	ABINGTON SURGICAL SERVICES, LP	2701 Blair Mill Road, Suite 35 ,Willow Grove
6271	ABINGWORTH MANAGEMENT, INC.	3000 Sand Hill Rd., Bldg 1, Ste 145 ,Menlo Park
6272	ABINTRA MONTESSORI SCHOOL	914 Davidson Drive ,Nashville
6273	ABIOMED, INC.	22 Cherry Hill Drive ,Danvers
6275	ABIQUIU CAFE, INC.	1337 West Winona Street ,Chicago
6277	ABITA BREWING COMPANY, LLC	Po Box 1510 ,Abita Springs
6278	ABITEC CORPORATION	P.O. Box 569 ,Columbus
6280	ABITUA PLUMBING, INC.	887 Church Road ,Elgin
6282	ABJ EQUIPFIX,LLC	202 West Lucas St ,Castalia
6284	ABJ SPRINKLER COMPANY, INC.	Po Box 663 ,Glassboro
6290	ABKCO MUSIC & RECORDS, INC.	85 Fifth Avenue ,New York
6291	ABKIN LAW LLP	150 California Street Ste 2100 ,San Francisco
6292	ABL ELECTRONIC SERVICE, INC.	388 Robbins ,Troy
6293	ABL INFORMATION TECHNOLOGY, LLC	10601 Tanager Lane ,Potomac
6294	ABL LIGHTS INC	660 Golf Club Blvd ,Mosinee
6295	ABL MANAGEMENT, INC.	11224 Boardwalk, Suite B 1-5 ,Baton Rouge
6296	ABL WHOLESALE DISTRIBUTORS, INC.	537 Williamson Avenue ,Youngstown
6299	ABLAZE DEVELOPMENT CORPORATION	771 E Lancaster Avenue ,Villanova
6300	ABLAZE WIRELESS INC	14674 Wild Berry Ln ,Saratoga
6302	ABLE & CO. FINANCIAL SERVICES, INC.	10 Corbin Drive, Suite 3C ,Darien
6303	ABLE 2 PRODUCTS COMPANY INC.	804 East Highway 248 P.O. Box 543 ,Cassville
6306	ABLE CABLE, INC.	5115 N. Douglas Fir Road, Suite A ,Calabasas
6308	ABLE CLEAN-UP TECHNOLOGIES INC.	4117 E Nebraska Ave ,Spokane
6309	ABLE COIL & ELECTRONICS CO., INC.	Howard Road ,Bolton
6310	ABLE COMMUNICATIONS INC.	1413 Avenue H ,Grand Prairie
6311	ABLE DIE CASTING CORPORATION	3907 Wesley Terrace ,Schiller Park
6314	ABLE ELECTRIC SERVICE, INC.	2626 Electronic Lane ,Dallas
6315	ABLE ELECTROPOLISHING CO., INC.	2001 S Kilbourn ,Chicago
6316	ABLE ENGINEERING & COMPONENT SERVICES, INC.	7706 East Velocity Way ,Mesa
6317	ABLE ENGINEERING, INC.	1843 Commerce Dr Ste 225 ,South Bend
6318	ABLE FASTENER, INC.	P.O. Box 22255 ,Beaumont
6320	ABLE FENCE COMPANY, INC.	P.O. Box 219 ,Petaluma
6321	ABLE FENCE OF COLUMBUS, INC.	2779 E 4th Ave. ,Columbus
6322	ABLE FINANCIAL GROUP, LLC	8737 East Via De Commercio, Suite 1 ,Scottsdale
6323	ABLE FORCES PROFESSIONAL SERVICES	115 Chester Street ,Front Royal
6325	ABLE FORD OF NEW JERSEY INC	Po Box 5249 ,Old Bridge
6329	ABLE HEALTH PRODUCTS, INC.	2070 Springdale Road ,Cherry Hill
6331	ABLE II ORTHOTICS & PROSTHETICS, INC.	222 S 16th, Ste 200 ,Lincoln
6332	ABLE IMAGING, LLC	999 Rt 73 N ,Marlton
6334	ABLE INDUSTRIAL, LLC	1250 Clay Court Ste 200 ,Deer Park
6337	ABLE INFOSAT COMMUNICATIONS, INC.	5906 Broadway St. ,Pearland
6338	ABLE INNOVATIONS LLC	88 Clam Pudding ,Plymouth
6341	ABLE INSURANCE AGENCY INC	125 Turner Rd Ste C ,Richmond
6344	ABLE LIMOUSINE INC.	102 East Main St ,Hopkinton
6347	ABLE MACHINERY MOVERS, INC.	600 Westport Parkway ,Grapevine
6349	ABLE MANUFACTURING & ASSEMBLY, LLC	1000 S Schifferdecker Ave ,Joplin
6350	ABLE MECHANICAL,INC	280 Route 35 South ,Red Bank
6353	ABLE MOVING & STORAGE CO., INC.	14 Howe Drive ,Amherst
6354	ABLE MOVING AND STORAGE, INC.	8050 Wellingford Dr ,Manassas
6358	ABLE ORTHOPEDICS, INC.	2030 10th Street ,Port Huron
6360	ABLE PHYSICAL THERAPY CORP	168 W Willow St ,Pomona
6361	ABLE PLUMBING, INC.	2336 Bob Boozer Drive ,Omaha
6364	ABLE REAL ESTATE USA, INC.	110 W 40th St Rm 2000 ,New York
6365	ABLE RENTAL, INC.	1419 Radcliffe St ,Bristol
6367	ABLE ROOFING, LLC	4777 Westerville Road ,Columbus
6368	ABLE SALES CO. INC.	Po Box 11946 Caparra Heights Sta. ,San Juan
6370	ABLE SERVICES	4104 Harrison Ave ,Cincinnati
6371	ABLE STEEL EQUIPMENT CO., INC.	50-02 23rd Street ,Long Island City
6372	ABLE STEEL FABRICATORS, INC.	4150 East Quartz Circle ,Mesa
6373	ABLE SUPPLY CO., INC.	7323 N. Monticello ,Skokie
6374	ABLE TESTING AND INSPECTION, INC.	P.O. Box 925 ,Cobleskill
6375	ABLE TOOL CO INC	13160 Route 993 # 1 ,Trafford
6376	ABLE TOOL CORPORATION	617 North Wayne Avenue ,Cincinnati
6377	ABLE, INC.	1951 1st Street West ,Dickinson
6380	ABLE-BAKER AUTOMATION, INC.	1070 Larch Avenue ,Moraga
6381	ABLE-DISABLED ADVOCACY, INC.	4283 El Cajon Blvd, Ste 110 ,San Diego
6384	ABLES BAXTER PARKER SMITH P.C.	315 Franklin Street, Se ,Huntsville
6385	ABLES, IANNONE, MOORE & ASSOCIATES	P.O. Box 870 ,Bluffton
6386	ABLES-LAND, INC.	P O Box 7933 ,Tyler Tx
6387	ABLESYS CORP.	20954 Corsair Blvd. ,Hayward
6388	ABLETON INC	36 W Colorado Blvd Ste 300 ,Pasadena
6389	ABLEXIS, LLC	409 Illinois Street ,San Francisco
6390	ABLON AND CO., P.L.L.C.	10000 N. Central Expressway, #1400 ,Dallas
6393	ABM AIR CONDITIONING & HEATING, INC.	P.O. Box 204 ,Hawthorne
6395	ABM CONSTRUCTION CO INC	Po Box 402 ,Lusby
6397	ABM EQUIPMENT & SUPPLY LLC	333 2nd Street Ne ,Hopkins
6398	ABM EQUIPMENT COMPANY INC	P O Box 29107 ,Portland
6399	ABM FACILITY SOLUTIONS GROUP LLC	3800 Buffalo Speedway ,Houston
6400	ABM FEDERAL SALES, INC.	5 Research Park Drive, Suite 101 ,St. Charles
6405	ABM INDUSTRIES, INC.	551 Fifth Avenue, Suite 300 ,New York
6406	ABM INSURANCE AND BENEFIT SERVICES, INC.	340 N. Sam Houston Parkway, No. 185 ,Houston
6407	ABM INTERNATIONAL, INC.	18473 S. Kinkaid Road ,Montgomery
6411	ABM MANUFACTURING CO	1523 Western Ave ,Brookings
6415	ABMC, INC. DBA ADAM SYSTEMS	30500 State Highway 181, Suite 462 ,Spanish Fort
6416	ABMECH, INC.	976 Forest Avenue ,West Homestead
6417	ABMI	1578 South Mahaffie Circle ,Olathe
6418	ABMS, INC.	715 Bush Street ,Roswell
6419	ABN AMRO	175 West Jackson ,Chicago
6420	ABN AMRO CLEARING CHICAGO LLC	175 W. Jackson Blvd, Ste 400 ,Chicago
6421	ABN AMRO WCS HOLDING COMPANY	540 W. Madison Suite 2824 ,Chicago
6422	ABN TECHNOLOGIES	8650 Martin Way E ,Lacey
6423	ABNA ENGINEERING INC	4140 Lindell Blvd. ,St. Louis
6424	ABNB FEDERAL CREDIT UNION	830 Greenbrier Circle ,Chesapeake
6427	ABNER, HERRMAN & BROCK LLC	Harborside Fin. Ctr., Plaza 5, Ste ,Jersey City
6430	ABNJ INC.	1838 Scott Avenue ,West Islip
6431	ABO AND COMPANY, LLC	449 N. Pennsylvania Ave. ,Morrisville
6434	ABO PETROLEUM CORPORATION	Po Box 97 ,Artesia
6436	ABODA, INC	9040 Willows Road NE, Suite 101 ,Redmond
6437	ABODA, INC.	9040 Willows Road Ne ,Redmond
6438	ABODE BUILDING MATERIALS CO., INC.	8308 Shaver Rd ,Portage
6439	ABODE CONSTRUCTION, INC.	3405 7th Ave ,Marion
6440	ABODE HEALTHCARE, INC.	1910 Fairview Ave ,Seattle
6444	ABOGADA ERIKA JURADO - GRAHAM, PA.	151 S. 18th St. ,Kansas City
6446	ABOITE PODIATRY ASSOCIATES, PC	7559 West Jefferson Blvd ,Fort Wayne
6447	ABOL SYSTEMS, INC.	15225 NE 90th St. ,Redmond
6448	ABOLT CONSTRUCTION, INC.	Atsb, Po Box 938 ,Dubuque
6451	ABONMARCHE CONSULTANTS, INC.	95 W Main St ,Benton Harbor
6452	ABORN ELECTRONICS INC.	2108A Bering Drive ,San Jose
6453	ABORN INSTITUTE LLC	2804 Riedel Road ,San Jose
6456	ABOUDI REALTY INC.	P.O. Box 5747 ,Englewood
6457	ABOULAFIA LAW FIRM LLC	228 E 45th Street Suite 1700 ,New York
6459	ABOUND RESOURCES, INC.	13740 N. Hwy 182, Bldg T, Ste. 2 ,Austin
6462	ABOUT FACE AND BODY	3160 College Avenue ,Berkeley
6463	ABOUT FACE EAR NOSE & THROAT P	9767 N 91st St Ste B102 ,Scottsdale
6464	ABOUT FACE MEDIA INC	220 E Buffalo St Ste 403 ,Milwaukee
6465	ABOUT FAMILIES, LLC	1000 Eddy Street ,Providence
6466	ABOUT GOLF, LTD. LLC	352 Tomahawk Dr. ,Maumee
6467	ABOUT HAIR LLC	15422 Fm 529 Rd ,Houston
6468	ABOUT LEARNING INC	441 W Bonner Road ,Wauconda
6469	ABOUT MANAGEMENT, INC.	120 N. Mill Creek Road ,Noblesville
6471	ABOUT THE HOUSE LLC	148 Executive Drive ,Ambler
6474	ABOUT WOMEN INC.	2296 Opitz Boulevard, Ste 440 ,Woodbridge
6475	ABOUT YOUR SMILE, PC	2624 East 22nd Place ,Tulsa
6476	ABOUTWEB, LLC	6177 Executive Blvd ,Rockville
6478	ABOVE & BEYOND ROOFING, LLC	10809 W Encanto Blvd ,Avondale
6479	ABOVE & BEYOND THERAPY SERVICES, LLC	3233 W. Peoria, Suite 224 ,Phoenix
6480	ABOVE & BEYOND, INC.	1116 Pennsylvania St Ne ,Albuquerque
6482	ABOVE ALL GRAND SALON & SPA	1025 Wexford Plaza Drive ,Wexford
6483	ABOVE ALL INC	116 Cannonball Rd ,Pompton Lakes
6484	ABOVE ALL METAL ROOFING LLC	Po Box 1452 ,Newcastle
6488	ABOVE BOARD ELECTRONICS, INC.	2151 OToole Ave. Unit 1 ,San Jose
6489	ABOVE BOARD SERVICES, INC.	401 N. York St. ,Elmhurst
6490	ABOVE GRADE ENGINEERING, INC.	1304 Broad St. ,San Luis Obispo
6494	ABOVE THE LINE CERTIFIED PUBLIC ACCOUNTANTS, PC	2001 W. Lakeway Road ,Gillette
6495	ABOVEAIR TECHNOLOGIES, LLC	5179 Mountville Road ,Frederick
6497	ABOVEBOARD SERVICES, INC.	1404 Sapphire Drive ,Carlsbad
6498	ABOVENET, INC.	400 Centennial Parkway ,Louisville
6499	ABOX PACKAGING COMPANY, INC	706 Rand Road ,Kaufman
6500	ABOYOUN & HELLER, LLC	77 Route 46 West ,Pine Brook
6502	ABP BEST HOME CARE SYSTEMS	214 Lincoln Street ,Allston
6503	ABP CORPORATION	One Au Bon Pain Way ,Boston
6504	ABP EYESITE PC	1230 East Broomfield ,Mt Pleasant
6505	ABP INDUCTION, LLC	21905 Gateway Rd ,Brookfield
6506	ABP INTERNATIONAL, INC.	261 Fifth Avenue, Suite 1901 ,New York
6508	ABQ AIR INC	619 Tanager Dr Sw ,Albuquerque
6509	ABQ DENTAL ASSOCIATES, LLC	7930 Wyoming Blvd Ne ,Albuquerque
6510	ABQ DENTISTS PC	3900 Eubank Blvd Ne ,Albuquerque
6511	ABQ ENERGY GROUP, LTD.	3022 Corrales Rd. ,Corrales
6512	ABQ HAIR STUDIO LLC	6200 Coors Blvd. NW, #B4 ,Albuquerque
6513	ABQ HEALTH PARTNERS LLC	5400 Gibson Blvd Se ,Albuquerque
6514	ABQ PEDIATRIC DENTISTRY RACHELLE L. SHAW, DDS, PC	4620-C Jefferson Lane Ne ,Albuquerque
6515	ABQC CORPORATION	1602 S 1st Street ,Milwaukee
6518	ABR CONSULTANTS LLC	2 Aquarium Drive Suite 320 ,Camden
6519	ABR COUNSELING ASSOCIATES OF K	1001 South Bradford St Ste 7 ,Dover
6521	ABR INVESTMENT STRATEGY, LLC	6501 Congress Ave Suite 100 ,Boca Raton
6523	ABR WHOLESALERS INC	510 North Goodman Street ,Rochester
6524	ABR, INC.	Post Office Box 80410 ,Fairbanks
6527	ABRA INC.	7225 Northland Drive, Ste. 210 ,Brooklyn Park
6532	ABRACADABRA PRESENTATION GRAPHICS, INC.	1331 E. Edinger Avenue ,Santa Ana
6533	ABRACON CORPORATION	30332 Esperanza ,Rancho Santa Margarita
6534	ABRACZINSKAS NURSERIES, INC.	346 Numidia Drive ,Catawissa
6535	ABRAHAM & GAFFNEY, P.C.	108 Spring St ,Saint Johns
6537	ABRAHAM & LONDON, LTD	7 Old Sherman Turnpike ,Danbury
6539	ABRAHAM ASSOCIATES INC	4020 West 44th Street ,Minneapolis
6545	ABRAHAM BUICK INC	1111 East Broad Street ,Elyria
6548	ABRAHAM CATERING SERVICES, INC.	Po Box 27304 ,Ralston
6549	ABRAHAM CHERIYAN, M.D., P.A.	206 Gaslight Boulevard ,Lufkin
6550	ABRAHAM FINANCIAL GROUP LLC	2640 Patriot Boulevard, Suite 220 ,Glenview
6556	ABRAHAM J. KADISH, DMD	1395 Route 23 ,Butler
6558	ABRAHAM K. THOMAS, DMD, PC	5426 N Academy Blvd, Ste 202 ,Colorado Springs
6559	ABRAHAM L. GREEN & SON FUNERAL HOME	88 Beach Road ,Fairfield
6560	ABRAHAM LINC	Po Box 847 ,Bridgeport
6561	ABRAHAM LINCOLN MEMORIAL HOSPITAL	200 Stahlhut Dr ,Lincoln
6562	ABRAHAM LINCOLN PRESIDENTIAL LIBRARY FOUNDATION	500 East Madison, Suite 200 ,Springfield
6570	ABRAHAM N LOTAN	121 W Lincoln St ,Sycamore
6573	ABRAHAM PROPERTIES INC.	581 Boylston Street ,Boston
6576	ABRAHAM S. ABDO, M.D.	2698 N. Galloway ,Mesquite
6577	ABRAHAM SERVICES, INC.	10458 Greenbrier ,Brighton
6581	ABRAHAM YOUTH & FAMILY SERVICES	1419 West Main Street ,Richmond
6583	ABRAHAM, BORDA, CORVINO, BUTZ, LAVALVA & CO., P.C.	2857 Nazareth Road ,Easton
6584	ABRAHAM, FRUCHTER, AND TWERSKY, LLP	One Penn Plaza, Ste 2805 ,New York
6585	ABRAHAM, WATKINS, NICHOLS, SORRELS, AGOSTO &	800 Commerce St ,Houston
6588	ABRAHAMS VETERINARY CLINIC, LTD.	617 Dows Rd ,Cedar Rapids
6590	ABRAHAMSE & COMPANY BUILDERS, INC.	325 Winding River Lane ,Charlottesville
6591	ABRAHAMSEN ENTERPRISES, INC.	1950 E. Carmen St. ,Tempe
6592	ABRAHAMSEN, CONABOY & ABRAHAMSEN, P.C.	1006 Pittston Avenue ,Scranton
6593	ABRAHAMSON ENGINEERING, INC	3101 Kintzley Court, Suite D ,Laporte
6596	ABRAIC, INC.	36 Goose Pond Rd ,Lincoln
6602	ABRAM INTERSTATE	2211 Plaza Drive, Suite 100 ,Rocklin
6605	ABRAMOFF NEUBERGER LLP	250 West Pratt Street, Suite 800 ,Baltimore
6606	ABRAMOVITZ WEALTH MANAGEMENT	7 Church Ln Ste 8 ,Pikesville
6607	ABRAMOWITZ & POMERANTZ, PA	7800 West Oakland Park Boulevard ,Sunrise
6608	ABRAMOWITZ TAX & LIEN SERVICE,	816 S Military Trl ,Deerfield Beach
6609	ABRAMS & ABRAMS, P.A.	1526 Glenwood Avenue ,Raleigh
6610	ABRAMS & ASSOCIATES, INC.	30012 Ivy Glenn, Ste. 270 ,Laguna Niguel
6611	ABRAMS & BAYLISS LLP	20 Montchanin Road, Ste 200 ,Greenville
6612	ABRAMS & COMPANY, INC.	120 Broadway, Suite 1135 ,New York
6613	ABRAMS & HEYN LLP	11766 Wilshire Blvd Floor#6 ,Los Angeles
6615	ABRAMS & JOSSEL CONSULTING, INC.	100 Tri-State International ,Lincolnshire
6616	ABRAMS & STEINBERG, P.C.	250 Parkway Drive ,Lincolnshire
6618	ABRAMS AND COMPANY PUBLISHERS, INC.	16310 Bratton La. ,Austin
6621	ABRAMS ARTISTS AGENCY, INC.	9200 Sunset Blvd. ,Los Angeles
6626	ABRAMS DEVELOPMENT GROUP, INC.	7221 Lee Deforest Drive, Suite 100 ,Columbia
6628	ABRAMS EYE INSTITUE	6450 Medical Center Street ,Las Vegas
6631	ABRAMS HEBREW ACADEMY	31 W. College Ave ,Yardley
6632	ABRAMS INTERNATIONAL INCORPORATED	111 Congress Avenue, Suite 2400 ,Austin
6633	ABRAMS LEARNING INFORMATION SYSTEMS, INC.	2800 South Shirlington Rd, #1100 ,Arlington
6635	ABRAMS MEDIATION & NEGOTIATION, INC.	5720 Lbj Fwy ,Dallas
6636	ABRAMS ROYAL PHARMACY, INC.	8220 Abrams Road ,Dallas
6638	ABRAMS TECHNICAL SERVICES, INC.	10375 Richmond Ave., Ste 1180 ,Houston
6639	ABRAMS WEST PC	4550 Montgomery Avenue ,Bethesda
6642	ABRAMS, DAVIS, MASON & LONG, LLC	1100 Peachtree Street, Suite 1600 ,Atlanta
6643	ABRAMS, FENSTERMAN, FENSTERMAN, EISMAN, FORMATO, FERRARA & EINIGER,	1111 Marcus Avenue ,Lake Success
6645	ABRAMS, GARFINKEL, MARGOLIS, BERGSON, LLP	1430 Broadway, 17th Floor ,New York
6647	ABRAMSON & ASSOCIATES, LLC	5147 Macarthur Blvd., NW ,Washington
6648	ABRAMSON & BURNS, A LAW CORP.	2020 Hurley Way Ste 345 ,Sacramento
6649	ABRAMSON & COMPANY LLC	60 Church Lane ,Westport
6651	ABRAMSON & OCONNELL, LLC	695 Bryden Rd. ,Columbus
6652	ABRAMSON BROTHERS, INC.	501 Fifth Avenue ,New York
6653	ABRAMSON CENTER FOR JEWISH LIFE	1425 Horsham Road ,North Wales
6655	ABRAMSON SMITH WALDSMITH LLP	44 Montgomery Street, Suite 3340 ,San Francisco
6656	ABRAMSON TEIGER ARCHITECTS, LLP	8924 Lindblade Street ,Culver City
6659	ABRAMSON, BROWN & DUGAN	1819 Elm Street ,Manchester
6660	ABRAPOWER INC.	8055 Dixie Highway ,Florence
6662	ABRASIC 90, INC.	7525 N Oak Park Ave ,Niles
6663	ABRASIVE BLAST SYSTEMS INC	Po Box 307 ,Abilene
6664	ABRASIVE BLAST SYSTEMS LLC	250 South Shiloh Road ,Garland
6665	ABRASIVE BLASTING & COATING SERVICE	2700 Fairforest - Clevedale Road ,Spartanburg
6666	ABRASIVE DIAMOND TOOL COMPANY	30231 Stephenson Highway ,Madison Heights
6668	ABRASIVE MATERIALS, LLC	90 West Fayette ,Hillsdale
6669	ABRASIVE PROCESSING & TECHNOLGIES, LLC	712 East Ohio Street ,Fortville
6670	ABRASIVE PRODUCTS & EQUIPMENT LL	302 Deerwood Glen Dr ,Deer Park
6671	ABRASIVE PRODUCTS, L.L.C.	3131 N. Franklin Road, Suite D ,Indianapolis
6673	ABRASIVE SUPPLY COMPANY, INC.	25240 State Route 172 ,Minerva
6674	ABRASIVE TECHNOLOGY, INC.	8400 Greene Meadows Drive ,Lewis Center
6675	ABRASIVE TOOL CORPORATION	1555 Emerson Street ,Rochester
6676	ABRASIVE WAREHOUSE & EQUIPMENT L	1221 N Post Oak Road ,Houston
6677	ABRASIVE-FORM, INC.	454 Scott Drive ,Bloomingdale
6678	ABRASIVES & TOOLS OF NH, INC.	49 Sheep Davis Rd ,Pembroke
6679	ABRASIVES & TOOLS, INC.	345 Greenwood Street ,Worcester
6680	ABRASIVES INCORPORATED	4090 Highway 49 ,Glen Ullin
6682	ABRASIVES SOUTH, INC.	2696 Rourk Street ,Charleston
6685	ABRAXAS CORPORATION	205 Van Buren Street Suite 310 ,Herndon
6686	ABRAXAS PETROLEUM CORP.	18803 Meisner Dr ,San Antonio
6688	ABRAXIS, LLC	54 Steam Whistle Dr ,Warminster
6689	ABRAZO, LLC	229 East Wisconsin Avenue ,Milwaukee
6690	ABRAZOS FAMILY SUPPORT SERVICES	P.O. Box 788 ,Bernalillo
6691	ABREAU OIL SERVICES INC.	21 Wilbur St ,Taunton
6692	ABREU TOURS INC	5750 Major Blvd Ste 520 ,Orlando
6694	ABRH CALL SERVICES LLC	21819 Katy Frwy ,Katy
6695	ABRH, LLC	3038 Sidco Drive ,Nashville
6696	ABRI ANIMAL HOSPITAL	38 Rt 47 South ,Cape May Court House
6697	ABRI CREDIT UNION	1350 Renwick Rd ,Romeoville
6701	ABRIOLA COMPANY	1013 Pleasant Ave ,Wyndmoor
6702	ABRIS DISTRIBUTION INC.	522 Hwy 9 North 377 ,Manalapan
6703	ABRISA INDUSTRIAL GLASS, INC.	200 S. Hallock Dr. ,Santa Paula
6705	A-BRITE PLATING COMPANY	3000 W 121 Street ,Cleveland
6707	ABRO INDUSTRIES, INC.	3580 Blackthorn Court ,South Bend
6710	ABRUZZI STONE & FLOORING INC	1641 Marlton Pike East ,Cherry Hill
6712	ABRY PARTNERS II, LLC	111 Huntington Avenue, 30th Floor ,Boston
6713	ABRY PARTNERS, LLC	111 Huntington Avenue, 30th Floor ,Boston
6714	ABS & ASSOCIATES, INC.	25418 E. Marion Avenue ,Punta Gorda
6716	ABS ALLOYS & METALS	2709 Boulder Park Court ,Winston Salem
6718	ABS ASSOCIATES, INC.	1501 E. Woodfield Road ,Schaumburg
6719	ABS BUSINESS SYSTEMS OF MOBILE, INC.	4950 Tufts Road ,Mobile
6721	ABS CAPITAL PARTNERS, INC.	400 East Pratt Street ,Baltimore
6722	ABS COMPLETE PRINTING INC	523 Commerce Drive ,Upper Marlboro
6723	ABS CONSULTANTS INC	Po Box 103280 ,Denver
6730	ABS GLOBAL, INC.	1525 River Road ,Deforest
6732	ABS GROUP OF COMPANIES, INC.	Abs Plaza ,Houston
6733	ABS INVESTMENT MANAGEMENT LLC	537 Steamboat Road ,Greenwich
6734	ABS LEGAL ADVOCATES PA	120 E 9th St ,Lawrence
6735	ABS MED, INC.	116 Shore Drive ,Burr Ridge
6736	ABS OF MARYLAND, LLC	7910 Andrus Road 16 ,Alexandria
6737	ABS PARTNERS REAL ESTATE, LLC	200 Park Avenue South, 10th Floor ,New York
6738	ABS SALES & SERVICE LLC	731 Industrial Drive ,Slinger
6739	ABS SEAFOOD, INC.	699 Illinois St ,San Francisco
6740	ABS STORAGE PRODUCTS	4404 Hamilton Cleves Suite 4 ,Hamilton
6741	ABS STRUCTURAL CORPORATION	700 East Melbourne Avenue ,Melbourne
6744	ABS TECHNOLOGY SOLUTIONS, INC.	1236 North Monroe Street ,Tallahassee
6750	ABSCO FIREPLACES, INC.	416 South 28th Street ,Birmingham
6751	ABSCOPE ENVIRONMENTAL, INC.	P.O. Box 487 ,Canastota
6755	ABSHER CONSTRUCTION CO.	Po Box 280 ,Puyallup
6756	ABSHER-ARNOLD MOTORS, LLC	3203 West Deyoung St. ,Marion
6761	ABSOFT CORPORATION	2075 W Big Beaver Road ,Troy
6762	ABSOLUT AUTOWORKS, INC.	45916 Old Ox Road Unit 100 ,Sterling
6766	ABSOLUTE ACHITECTURE PC	874 Greenbay Road ,Winnetka
6768	ABSOLUTE AMENITIES, INC.	2375 Third Street ,Riverside
6769	ABSOLUTE ANALYSIS, INC.	2393 Teller Road, Suite 110 ,Newbury Park
6771	ABSOLUTE AUDIO VISUAL	10255 Spruce Leaf Dr. ,South Jordan
6772	ABSOLUTE AUTO SERVICE CENTER, INC.	9360 Ravenna Road ,Twinsburg
6773	ABSOLUTE BAGELS INC	2788 Broadway ,New York
6774	ABSOLUTE BAIL BONDS, INC.	444 S. 8th Street ,Minneapolis
6775	ABSOLUTE BEST CARE CORP	274 Madison Ave Ste 503 ,New York
6776	ABSOLUTE BEST VENDING INC.	13943 Charlynn Oaks ,Houston
6777	ABSOLUTE BONDING CORPORATION	45100 Yucca Avenue ,Lancaster
6778	ABSOLUTE BUSINESS SOLUTIONS	560 Herndon Pkwy #240 ,Herndon
6779	ABSOLUTE BUSINESS SOLUTIONS, INC.	13005 NE 40th Ave ,Vancouver
6780	ABSOLUTE CAPITAL MANAGEMENT, LLC	101 Pennsylvania Boulevard ,Pittsburgh
6781	ABSOLUTE CAR & TRUCK CENTER, INC.	1008 Centre Street ,Brockton
6782	ABSOLUTE CAR CARE, INC.	91-A Grant Street ,Framingham
6783	ABSOLUTE CARE, LLC	600 Lakeview Plaza Blvd, Ste. D ,Worthington
6784	ABSOLUTE CARPET CARE INC	45921 Maries Rd Ste 180 ,Sterling
6786	ABSOLUTE COATINGS, INC.	38 Portman Road ,New Rochelle
6787	ABSOLUTE COLLECTION SERVICES LLC	8440 W Lake Mead Blvd Ste 210 ,Las Vegas
6788	ABSOLUTE COMFORT HEATING & AIR CONDITIONING LLC	3711 Homewood Road ,Memphis
6789	ABSOLUTE COMFORT TECHNOLOGIES IN	8248 NW 101 Terrance ,Kansas City
6790	ABSOLUTE COMMUNICATIONS, INC.	10682 Trask Avenue ,Garden Grove
6791	ABSOLUTE COMPUTER SOLUTIONS, INC.	P.O Box 1143 ,Louisburg
6792	ABSOLUTE CONCRETE CONSTRUCTION, INC	505 1st Ave. ,Slater
6793	ABSOLUTE CONSTRUCTION ENTERPRISE, INC.	C/O 555 Main Street, Suite 300 ,Racine
6794	ABSOLUTE CONSTRUCTION, INC.	954 Kennedy Avenue, Suite A ,Schererville
6795	ABSOLUTE CONSTRUCTORS	5415 West Leo Park Rd ,West Jordan
6796	ABSOLUTE CONSULTING ENGINEERS	3839 Birch Street ,Newport Beach
6797	ABSOLUTE CONSULTING, INC.	7552 Navarre Parkway, Suite 63 ,Navarre
6799	ABSOLUTE DENTAL, LLC	526 South Tonopah Drive, Suite 200 ,Las Vegas
6800	ABSOLUTE DERMATOLOGY AND MEDI-SPA, PA	1103 Cypress Creek Road, Suite 100 ,Cedar Park
6801	ABSOLUTE DISTRIBUTION INC	2125 Broadway Street Ne ,Minneapolis
6803	ABSOLUTE ELECTRONICS, INC.	W137 N8589 Landover Ct. ,Menomonee Falls
6805	ABSOLUTE ENERGY SERVICES LLC	20 Carmichael Way ,Groton
6806	ABSOLUTE ENGINEERING, LLC	7525 W Deschutes Pl., Suite 2B ,Kennewick
6808	ABSOLUTE ENTERTAINMENT, INC.	3000 Carlisle St.Suite 113 ,Dallas
6809	ABSOLUTE ENVIRONMENTAL INC.	22 Trolley Lane ,Salem
6811	ABSOLUTE FENCING GEAR INC	Amanda Ronning ,Bridgewater
6816	ABSOLUTE FIRE PROTECTION, INC.	10226 N.W. 50 Street ,Sunrise
6818	ABSOLUTE FLOORING OF YORKTOWN	1735 Front Street ,Yorktown Heights
6820	ABSOLUTE GRINDING CO., INC.	7007 Spinach Drive ,Mentor
6822	ABSOLUTE HEALTHCARE ADVANCED CHIROP RACTIC	1973 SW Savage Blvd ,Port St. Lucie
6824	ABSOLUTE HOME HEALTH CARE	9415 East Harry ,Wichita
6828	ABSOLUTE INTEGRITY INSURANCE SERVICES, INC.	23706 Crenshaw Blvd., Suite 104 ,Torrance
6832	ABSOLUTE MACHINE	5020 Mountain Lakes Blvd ,Redding
6833	ABSOLUTE MACHINE TOOLS, INC	7420 Industrial Parkway ,Lorain
6835	ABSOLUTE MAIL LOGISTICS LLC	8212 Thomas Ashleigh Ln ,Clifton
6838	ABSOLUTE MECHANICAL, LLC	7338 Ohms Lane ,Edina
6839	ABSOLUTE MEDIA, INC.	1150 Summer Street ,Stamford
6840	ABSOLUTE MEDICAL EQUIPMENT	30 East Gordon Road ,Newnan
6842	ABSOLUTE MFG. INC.	210 Knickerbocker Ave. ,Bohemia
6843	ABSOLUTE MORTGAGE COMPANY, INC	350 E Market Street ,West Chester
6844	ABSOLUTE MORTGAGE INC	18002 Irvine Blvd Ste 201 ,Tustin
6847	ABSOLUTE ORGANICS, LLC	1029 West First Street ,Newton
6848	ABSOLUTE PAINTING II INC	5 Ilene Court ,Hillsborough
6852	ABSOLUTE POST, INC.	50 Eldridge Street 7th Floor ,New York
6856	ABSOLUTE PRODUCTION SERVICES, CO.	2142 W. Walnut St. ,Chicago
6857	ABSOLUTE PROTECTIVE SYSTEMS, INC.	3 Kellogg Court ,Edison
6858	ABSOLUTE RECOVERY OF ARIZONA I	10039 Prospect Ave ,Santee
6859	ABSOLUTE REHAB	610 Franklin Ave ,Nutley
6860	ABSOLUTE REMODELING	10926 Desmoines Ave ,Northridge
6861	ABSOLUTE REPAIR INC	74 Cayuga Rd Ste A ,Putnam Valley
6862	ABSOLUTE RESOLUTIONS CORP	6602 El Cajon Blvd. ,San Diego
6863	ABSOLUTE RESOLUTIONS LLC	12085 Tutts Mill Ln ,Culpeper
6864	ABSOLUTE RESOURCE MANAGEMENT	3075 Governors Place Blvd. Suite 12 ,Dayton
6867	ABSOLUTE ROOFING & CONSTRUCTIO	5295 West 130th ,Parma
6868	ABSOLUTE SCIENTIFIC PRODUCTS, INC.	15281-C Barranca Parkway ,Irvine
6869	ABSOLUTE SECURED SHREDDING INC	8460 Lonely Oak Ct. ,Fair Oaks
6871	ABSOLUTE SECURITY, INC.	1117 Perimeter Center West Ste E 40 ,Atlanta
6872	ABSOLUTE SERVICE, INC	8600 Lasalle Road Oxford Building ,Towson
6873	ABSOLUTE SMILE, LLC	4469 Far Hills Ave ,Kettering
6874	ABSOLUTE SMILES FAMILY DENTISTRY, PLLC	4800 E Highway 37 ,Tuttle
6875	ABSOLUTE SOFTWARE INC	100 Franklin Street ,Boston
6876	ABSOLUTE SOFTWARE, INC.	11401 Century Oaks Terrace ,Austin
6878	ABSOLUTE SPEECH & LANGUAGE	186-104 Wind Chime Ct ,Raleigh
6879	ABSOLUTE STAFFERS, LLC	14502 Greenview Drive Suite 430 ,Laurel
6881	ABSOLUTE STORAGE LLC	8726 N 52nd St ,Paradise Valley
6882	ABSOLUTE STORAGE MANAGEMENT, INC.	1630 Bonnie Lane ,Cordova
6883	ABSOLUTE SUPPLY, LLC	1560 Bohm Drive ,Little Chute
6884	ABSOLUTE SURGICAL SPECIALISTS, PLLC	139 S. Pebble Beach, Suite 200 ,Sun City
6885	ABSOLUTE TECHNOLOGY LAW GROUP	3316 West Wisconsin Ave ,Milwaukee
6887	ABSOLUTE TESTING SERVICES, INC.	6829 Guhn Road ,Houston
6888	ABSOLUTE TITLE, LLC	8 Chestnut Drive ,Bedford
6890	ABSOLUTE TURN, INC	1704 S.Wolf Rd ,Wheeling
6891	ABSOLUTE TURNKEY SERVICES, INC	555 Aldo Avenue ,Santa Clara
6892	ABSOLUTE UNDERGROUND, INC.	1234 Dorsey Road ,Harmans
6894	ABSOLUTE WASTE SERVICES, INC.	900 Lincoln Avenue ,Corpus Christi
6895	ABSOLUTELY ABERDEEN, INC.	416 Production Street North ,Aberdeen
6896	ABSOLUTELY DELICIOUS LLC	10223 Sahara St ,San Antonio
6897	ABSOLUTELY ENERGIZED SOLAR ELECTRIC, INC.	974 State Highway 33 East ,Monroe Township
6898	ABSOLUTELY OPTICAL INC.	2223 N. West Shore Blvd. 169B ,Tampa
6899	ABSOLUTELYNEW, INC.	2224 Cabrillo Street ,San Francisco
6903	ABSORBENTS MIDWEST, INC.	23040 Industrial Drive East ,Saint Clair Shores
6904	ABSORPTION CORP	6960 Salashan Parkway ,Ferndale
6905	ABSORPTION SYSTEMS, L.P.	436 Creamery Way ,Exton
6906	ABSOULUTE TRANSPORT, INC.	1813 Sweetbay Drive, Suite 5 ,Salisbury
6909	ABSTRACT BITS, LLC DBA USABILITY PRO	16421 Scientific Way ,Irvine
6910	ABSTRACT CONSTRUCTION COMPANY	2532 Highlander Way Ste 100 ,Carrollton
6911	ABSTRACT DESIGN INC	28 Harnson Ave ,Englishtown
6912	ABSTRACT DISPLAYS	6465 Creek Road ,Cincinnati
6914	ABSTRACT MASONRY RESTORATION, INC.	6530 South 400 West ,Salt Lake City
6915	ABSTRACT OVERHEAD DOOR CO., INC.	1911 Pennsylvania Ave ,Croydon
6918	ABSTRACT RESEARCH GROUP, LLC	19309 Winmeade Drive ,Lansdowne
6923	ABSTRACTS, INC.	585 Stewart Avenue ,Garden City
6924	ABSTRACTS, LTD.	1511 Ritchie Hwy, Suite 305 ,Arnold
6926	ABT ASSOCIATES	55 Wheeler Street ,Cambridge
6929	ABT ELECTRONICS & APPLIANCES	1200 Milwaukee Avenue ,Glenview
6930	ABT HEALTHCARE INC.	107 Freshwater Ln ,Mooresville
6932	ABT MOLECULAR IMAGING, INC	3024 Topside Business Park Dr ,Louisville
6934	ABT SRBI INC.	55 Wheeler Street ,Cambridge
6935	ABT, INC.	259 Murdock Road ,Troutman
6937	ABT, LLC	Lewis And Fountain Streets ,Blawnox
6938	ABTECH SYSTEMS, INC.	2042 Corte Del Nogal - Suite D ,Carlsbad
6939	ABTECH TECHNOLOGIES, INC	2042Corte Del Nogal St ,Carlsbad
6941	ABTEX CORPORATION	Po Box 188 ,Dresden
6944	ABTRON ASSOCIATES CORP	670 Pine Aire Dr ,Bay Shore
6945	ABTTC INC.	41640 Corning Place, Suite 104 ,Murietta
6946	ABU DHABI INTERNATIONAL BANK N.V.	1430 K Street, NW ,Washington
6948	ABUCK, INCORPORATED	526 Discovery Place ,Mableton
6957	ABUNDANT LIFE ACADEMY	390 Washington Avenue ,Nutley
6958	ABUNDANT LIFE AND ADOLESCENT GRO	Po Box 910913 ,Los Angeles
6962	ABUNDANT LIFE MINISTRY, INC.	1904 East Bellview Place ,Milwaukee
6963	ABUNDANT LIFE WORSHIP CENTER OF LINCOLN PARK	103 Jacksonville Road ,Lincoln Park
6965	ABUNDANT LIVING, INC.	4622 Wickford Circle ,Roswell
6966	ABUNDANT MANUFACTURING, INC.	820 Cochran Street ,Statesville
6970	ABUSE COUNSELING AND TREATMENT, INC	Po Box 60401 ,Fort Myers
6972	ABUSED DEAF WOMENS ADVOCACY SERVICES	8623 Roosevelt Way Ne ,Seattle
6973	ABUSED WOMENS AID IN CRISIS INC	100 W 13Th Ave ,Anchorage
6975	ABUZZ AROUND NY INC	652 W 163rd St Apt 37 ,New York
6977	ABVI-GOODWILL	422 South Clinton Avenue ,Rochester
6980	ABW PEDIATRIC ASSOCIATES	2223 Linden Street ,Bethlehem
6981	ABW TECHNOLOGIES, INC.	6720 191st Pl Ne ,Arlington
6982	ABW, LLC	9960 W. 191st. Street Suite A ,Mokena
6983	ABWA MANAGEMENT, LLC	11050 Roe Ave Suite 200 ,Overland Park
6984	ABX AIR, INC.	145 Hunter Drive ,Wilmington
6985	ABX ENGINEERING, INC.	875 Stanton Rd. ,Burlingame
6987	ABYSSINIA BAPTIST CHURCH	10325 Interstate Center Drive ,Jacksonville
6989	ABZ DAYCARE CENTER	Po Box 1400 ,Orange
6990	ABZ DESIGN GROUP, INC.	1300 South Mint Street Ste 100 ,Charlotte
6991	ABZ RENTALS, INC	4815 George Washington Memorial Hwy ,Yorktown
6993	ABZ, INC.	4451 Brookfield Corporate Drive ,Chantilly
6994	AC & E ELECTRIC COMPANY	3535 Del Webb Ave NE, Suite 100 ,Salem
6997	AC & S, INC	Po Box 335 ,Nitro
6998	AC & T COMPANY, INC.	11535 Hopewell Road, P.O. Box 4217 ,Hagerstown
7002	AC COACH OPERATIONS, INC.	One Anderson Plaza ,Greenville
7003	AC COMPACTING, LLC	1577 Livingston Ave ,North Brunswick
7004	AC COMPONENT SPECALISTS, INC.	Po Box 500 ,Marshfield
7005	AC CONNECTION, INC.	1375 Central Avenue ,Santa Rosa
7011	AC ELECTRIC SERVICE, INC.	804 W Meeker St., Ste 102 ,Kent
7012	A-C ELECTRIC, INC.	729 South 330 West ,Salt Lake City
7018	AC GOLDEN BREWING COMPANY, LLC	P.O. Box 4030 - Bc530 ,Golden
7019	AC GUARD, INC.	6248 Sr 535 ,Windermere
7027	AC LANDSCAPING INC	24 Woodcrest Drive ,North Andover
7028	AC LOGISTICS INC	301 Lindenwood Dr Ste 305 ,Malvern
7029	AC LOGIX, INC.	1241 Quarry Lane Suite 130 ,Pleasanton
7030	AC LORDI CORPORATION	101 Lindenwood Drive, 1st Floor ,Malvern
7031	AC MECHANICAL INC	8 Lamplighters Way ,Saugus
7033	AC NUTRITION LP	158 North Main Street ,Winters
7034	AC PHOTONICS, INC	13491 Myren Dr. ,Saratoga
7036	AC PROPULSION, INC.	441 Borrego Court ,San Dimas
7038	AC RACING, INC.	2273 E Via Burton Street ,Anaheim
7041	AC SPLIT BOLT INC	337 Palmer St ,Wooster
7042	AC SYSTEMS, INC.	11724 Adie Road ,Maryland Heights
7045	AC&P, INC.	3258 Arden Road ,Hayward
7046	AC&R CONTRACTING, LLC	7085 Dorsey Run Road ,Elkridge
7047	AC&S ENGINEERING AND SURVEYING, INC	3 Marcus Drive ,Greenville
7050	AC4S CONSULTING INC	4017 W Dr Mlk Jr Blvd ,Tampa
7052	ACA COMPUTERS, INC.	210 West Front Street ,Red Bank
7053	ACA CONSTRUCTION GROUP, LLC	121 SW 8th St ,Ocala
7054	ACA CORPORATION	19 Sterling Road Unit 5B ,Billerica
7055	ACA ELECTRIC LLC	820 Piney Hollow Rd ,Hammonton
7056	ACA FILMS INC	1541 Brickell Ave Apt 503 ,Miami
7057	ACA FINANCIAL GUARANTY CORPORATION	600 Fifth Avenue, 2nd Floor . ,New York
7059	ACA INTERNATIONAL	4040 West 70th Street ,Edina
7067	A-CAAP, INC.	13307 Wind Ridge ,Helotes
7068	ACACIA ANIMAL HOSPITAL	655 W. Citracado Pwky ,Escondido
7070	ACACIA CAPITAL CORPORATION	2398 East Camelback Road ,Phoenix
7071	ACACIA COMMUNICATIONS, INC.	3 Clocktower Place, Suite 130 ,Maynard
7072	ACACIA ENDODONTICS, PLLC	1300 North Mcclintock Drive, Suite ,Chandler
7075	ACACIA LANE DENTAL, S.C.	Po Box 1165 ,Rhinelander
7076	ACACIA LOGISTICAL SOLUTIONS IN	Po Box 277 ,Boylston
7078	ACACIA NETWORK HOUSING, INC.	1776 Clay Ave ,Bronx
7079	ACACIA RESEARCH GROUP LLC	500 Newport Center Drive ,Newport Beach
7082	ACACIA WEALTH ADVISORS LLC	245 S Beverly Dr ,Beverly Hills
7083	ACAD PLUS INC	10515 Rodgers Rd ,Houston
7084	ACADA COMMUNICATIONS LLC	52 Foxworth Ln ,Kingston
7086	ACADEME SOLUTIONS, INC.	P.O. Box 399 ,Grangeville
7087	ACADEMI	Po Box 1029 ,Moyock
7088	ACADEMI LLC	850 Puddin Ridge Road ,Moyock
7089	ACADEMIA BARBARA ANN ROESSLER	Po Box 3362 ,San Juan
7090	ACADEMIA DISCIPULOS DE CRISTO	Po Box 1947 ,Bayamon
7091	ACADEMIA LA MILAGROSA, INC.	Po Box 373338 ,Cayey
7092	ACADEMIA MARIA REINA, INC.	Glasglow Street, 1879 College Park ,San Juan
7093	ACADEMIA MENONITA	1751 Asomante Street ,San Juan
7094	ACADEMIA MODERNA	2410 Broadway ,Walnut Park
7095	ACADEMIC ALLIANCE IN DERMATOLOGY	5210 Webb Rd ,Tampa
7097	ACADEMIC CARDIOLOGY ASSOCIATES, P.C.	1701 South Blvd E., Ste 390 ,Rochester Hills
7098	ACADEMIC DERMATOLOGY & COSMETIC SURGERY CENTER, PLLC	50182 Schoenherr Road ,Shelby Township
7099	ACADEMIC DERMATOLOGY & SKIN CANCER INSTITUTE, SC	50 East Washington ,Chicago
7100	ACADEMIC DERMATOLOGY CONSULTANTS, INC.	2710 Health Center Drive ,San Diego
7102	ACADEMIC DERMATOLOGY OF NEVADA	2839 St. Rose Pkwy ,Henderson
7103	ACADEMIC ENDOCRINE, METABOLISM & NUTRITION, INC.	2001 Gary Avenue ,Wheaton
7105	ACADEMIC FEDERAL CREDIT UNION	425 North State Road ,Briarcliff Manor
7108	ACADEMIC HALLMARKS, INC.	Po Box 998 ,Durango
7110	ACADEMIC INNOVATIONS, LLC	63 Seaview Drive ,Santa Barbara
7112	ACADEMIC INTERNAL MEDICINE SPECIALISTS, PLLC	28411 Northwestern Highway ,Southfield
7113	ACADEMIC INTERNATIONAL PRESS, INC.	200 Pensacola Beach Road, Apt F2 ,Gulf Breeze
7115	ACADEMIC LEADERSHIP CHARTER SCHOOL	677 East 141 Street ,Bronx
7116	ACADEMIC LOAN GROUP INC.	1266 W Paces Ferry Road ,Atlanta
7117	ACADEMIC MEDICAL RESEARCH INSTITUTE, INC.	P.O. Box 1019 ,Los Angeles
7120	ACADEMIC PARTNERSHIPS, LLC	600 North Pearl St Ste 900 ,Dallas
7121	ACADEMIC PATHOLOGY ASSOCIATES	2830 Victory Parkway ,Cincinnati
7122	ACADEMIC PROGRAMS INTERNATIONAL, INC.	301 Camp Craft Rd. Ste 100 ,Austin
7125	ACADEMIC SEARCH, INC	1825 K Street NW, Ste 705 ,Washington
7126	ACADEMIC SUPERSTORE	2101 East Saint Elmo, Suite 360 ,Austin
7129	ACADEMIC TRAVEL ABROAD, INC.	1920 N Street, N.W., Suite 200 ,Washington
7130	ACADEMIC TRAVEL SERVICES, INC.	P.O. Box 547 ,Hendersonville
7131	ACADEMIC TUTORING & TESTING, INC.	7515 Wayzata Blvd. ,Minneapolis
7133	ACADEMIC UROLOGY OF PA, LLC	211 South Gulph Road ,King Of Prussia
7135	ACADEMICS EMPLOYEES CREDIT UNION	2804 W Ash St ,Columbia
7136	ACADEMICWORKS, INC	1609 Shoal Creek Blvd Ste 302 ,Austin
7137	ACADEMIXDIRECT, INC.	1901 Landings Drive ,Mountain View
7138	ACADEMY APPRAISAL, INC	300 W Street Rd ,Warminster
7139	ACADEMY AT MINDS IN MOTION	11 Sycamore Creek Dr ,Springboro
7140	ACADEMY AT THE FARM, INC.	9500 Alex Lange Way ,Dade City
7141	ACADEMY AWNING INC.	2510 South Malt Avenue ,Los Angeles
7144	ACADEMY CAPITAL MANAGEMENT	500 N. Valley Mills Dr., Suite 200 ,Waco
7146	ACADEMY DENTAL ASSOCIATES, LLC	10101 Academy Road, Suite 204 ,Philadelphia
7147	ACADEMY DENTAL ASSOCIATES, P.A.	155 North Dean St. ,Englewood
7148	ACADEMY DENTAL GROUP PA	4 Marvin Street ,Dover
7149	ACADEMY DENTAL, P.A.	179 Academy Street ,Presque Isle
7151	ACADEMY DERMATOLOGY, PC	1665 Briargate Blvd., Ste. 200 ,Colorado Springs
7152	ACADEMY DOOR & CONTROL CORPORATION	3931 Avion Park Court, Suite C104 ,Chantilly
7154	ACADEMY EDUCATION CENTER, INC.	1600 W. 82nd Street, Ste 100 ,Bloomington
7155	ACADEMY ELECTRICAL CONTRACTORS, INC.	20 Carver Avenue ,Westwood
7156	ACADEMY ESCROW	2501 West Burbask Blvd 311 ,Burbank
7157	ACADEMY FILM PRODUCTION, INC.	C/O Pwbs 19111 Timothys Manor Court ,Parkton
7158	ACADEMY FINANCIAL, INC.	1300 York Rd, Ste 210 ,Lutherville
7159	ACADEMY FIRE PROTECTION INC.	58-29 Maspeth Avenue ,Maspeth
7162	ACADEMY FOR THE LOVE OF LEARNING, INC.	133 Seton Village Road ,Santa Fe
7163	ACADEMY FOR URBAN SCHOOL LEADERSHIP	3400 N Austin Ave ,Chicago
7166	ACADEMY GRAPHIC COMMUNICATION, INC.	1000 Brookpark Road ,Cleveland
7167	ACADEMY HEATING & AIR CONDITIONING	11720 Nebel St ,Rockville
7168	ACADEMY HILL SCHOOL, INC.	1190 Liberty St. ,Springfield
7170	ACADEMY IN MANAYUNK	1200 River Road ,Conshohocken
7173	ACADEMY MANAGEMENT, LLC	7 Crosswinds Drive ,Fairmont
7174	ACADEMY MEDICAL CARE, PC	571 Academy Street ,New York
7175	ACADEMY MORTGAGE CORPORATION	105 Conklin St. ,Farmingdale
7180	ACADEMY OF COUNTRY MUSIC	5500 Balboa Blvd ,Encino
7183	ACADEMY OF GENERAL DENTISTRY	560 W. Lake Street Sixth Floor ,Chicago
7185	ACADEMY OF INTERACTIVE ENTERTA	305 Harrison Suite 405 ,Seattle
7186	ACADEMY OF MAGICAL ARTS, INC.	7001 Franklin Avenue ,Hollywood
7187	ACADEMY OF MANAGED CARE PHARMACY	100 N Pitt St Ste 400 ,Alexandria
7188	ACADEMY OF MEDICAL ECONOMICS	750 Menlo Park, #200 ,Menlo Park
7189	ACADEMY OF MEDICINE OF CINCINNATI	2300 Wall Street, Suite F ,Cincinnati
7190	ACADEMY OF MEDICINE OF CLEVELAND	6100 Oak Tree Blvd ,Cleveland
7192	ACADEMY OF MOTION PICTURE ARTS & SCIENCES	8949 Wilshire Blvd. ,Beverly Hills
7193	ACADEMY OF NATURAL SCIENCES OF PHILADELPHIA	1900 Benjamin Franklin Parkway ,Philadelphia
7194	ACADEMY OF NUTRITION AND DIETETICS	120 S Riverside Plaza ,Chicago
7195	ACADEMY OF OUR LADY OF GUAM	233 Archbishop Felixberto Flores St ,Hagatna
7196	ACADEMY OF PHYSICAL AND SOCIAL DEVELOPMENT	425 R Watertown Street ,Newton
7197	ACADEMY OF POLITICAL SCIENCE	475 Riverside Dr Ste 1274 ,New York
7198	ACADEMY OF RADIOLOGY RESEARCH	1001 Connecticut Av NW Ste 601 ,Washington
7199	ACADEMY OF TELEVISION ARTS & SCIENCES	5220 Lankershim Boulevard ,North Hollywood
7202	ACADEMY OF THE PACIFIC	913 Alewa Drive ,Honolulu
7207	ACADEMY PAK	2080 Gary Ln ,Geneva
7209	ACADEMY PET HOSPITAL INC.	6000 Academy Road Ne ,Albuquerque
7210	ACADEMY PHYSICAL THERAPY	1160 Fifth Ave, Suite 103 ,New York
7211	ACADEMY PHYSICIANS LLC	4568 Agilia Rd Se ,Rio Rancho
7212	ACADEMY PODIATRY ASSOCIATES, PC	217 E. Laurel Road ,Stratford
7213	ACADEMY PRESS INC.	2400 West Commodore Way ,Seattle
7214	ACADEMY PRODUCTIONS, INC.	6100 Orr Road ,Charlotte
7215	ACADEMY ROOFING CO.	6361 NE 14th St ,Des Moines
7216	ACADEMY ROOFING CORP	153 Hunt Hill Road ,Rindge
7217	ACADEMY ROOFING INC.	1610 Jasper Street ,Aurora
7218	ACADEMY SERVICE GROUP, LLC	6405 Century Ave ,Middleton
7220	ACADEMY SPINE & PHYSICAL THERAPY, LLC	19-21 Fair Lawn Avenue ,Fair Lawn
7221	ACADEMY TOTAL HEALTH CENTER, LLC	19-21 Fairlawn Avenue, Suite H ,Fairlawn
7223	ACADEMY WITH COMMUNITY PARTNERS	433 N. Hall ,Mesa
7224	ACADEMY WOMENS HEALTHCARE ASSOCIATES	6071 E Woodmen Road ,Colorado Springs
7225	ACADEMY, INC.	725 South Main Street ,Bradford
7226	ACADEMY, LTD.	1800 N. Mason Rd ,Katy
7228	ACADEMYONE, INC	601 Willowbrook Lane ,West Chester
7232	ACADIA CONTRACTORS, LLC	780 Auburn Road ,Turner
7234	ACADIA FEDERAL CREDIT UNION	9 East Main Street ,Fort Kent
7235	ACADIA FINANCIAL GROUP, INC.	7910 Main St Ste 300 ,Houma
7236	ACADIA HEALTHCARE COMPANY, LLC	830 Crescent Centre Drive ,Franklin
7237	ACADIA HEALTHCARE HOLDINGS, LLC	830 Crescent Centre Drive ,Franklin
7239	ACADIA HR	2 Spencer Drive ,Red Hook
7240	ACADIA INSURANCE GROUP, LLC	P.O. Box 9010 ,Westbrook
7241	ACADIA LABORATORY, LLC	715 North Eastern Avenue ,Crowley
7242	ACADIA LEAD MANAGEMENT SERVICES, INC.	4738 Gateway Cir Ste A-100 ,Dayton
7243	ACADIA MANAGEMENT	3325 W Sunset Rd Ste F ,Las Vegas
7244	ACADIA MANAGEMENT LLC	42 Lenox Pointe Ne ,Atlanta
7247	ACADIA NORTHSTAR LLC	191 N Main Street ,Rutherfordton
7248	ACADIA NW LLC	10101 SW Barbur Blvd, Suite 101 ,Portland
7249	ACADIA PHARMACEUTICALS INC.	11085 Torreyana Road, Suite 100 ,San Diego
7250	ACADIA REALTY TRUST	1311 Mamaroneck Ave. ,White Plains
7254	ACADIA WHOLESALE & TOBACCO CO., INC.	P.O. Box 189 ,Church Point
7255	ACADIA WINDOWS & DOORS LLC	930 Todds Lane ,Baltimore
7256	ACADIA WINDOWS & DOORS, INC.	930 Todds Lane ,Baltimore
7257	ACADIA, INC.	1817 Olde Homestead Lane, Suite 201 ,Lancaster
7258	ACADIAN AMBULANCE SERVICE, INC.	302 Hopkins Street ,Lafayette
7259	ACADIAN ASSET MANAGEMENT LLC	260 Franklin Street ,Boston
7261	ACADIAN CONSULTING GROUP, LLC	5800 One Perkins Place Drive, St 5F ,Baton Rouge
7262	ACADIAN CYPRESS & HARDWOODS, INC.	1 Industrial Parkway ,Ponchatoula
7264	ACADIAN ENGINEERS & ENVIRONMENTAL CONSULTANTS, INC.	1601 Amazon Street ,Eunice
7265	ACADIAN FAMILY DENTAL	7490 W. Tidwell Road ,Houston
7266	ACADIAN FEDERAL CREDIT UNION	102 Sunbeam Ln ,Lafayette
7268	ACADIAN MILLWORK & SUPPLY CO., INC.	13233 Ronald Reagan Highway ,Covington
7270	ACADIAN REHAB INC	175 S Park St ,Reno
7271	ACADIAN SEAPLANTS LIMITED	30 Brown Avenue ,Dartmouth
7272	ACADIAN VISION ASSOCIATES, INC.	225 North College Road ,Lafayette
7273	ACADIAN WOOD PRODUCTS, INC.	1 Industrial Parkway ,Ponchatoula
7274	ACADIAN, INC.	8360 Six Forks Road Ste 102 ,Raleigh
7277	ACADIANA CENTER FOR ORTHOPEDIC & OCCUPATIONAL ME	2501 W. Pinhook Road ,Lafayette
7280	ACADIANA COMPUTER SYSTEMS, INC.	324 Dulles Drive ,Lafayette
7281	ACADIANA CONSTRUCTORS, INC	18522 Magnolia Bridge Rd ,Greenwell Springs
7282	ACADIANA COOLING & COMPRESSION, LLC	5574 Highway 90 East ,Broussard
7283	ACADIANA DERMATOLOGY APMC	402 Doyle Dr ,Lafayette
7284	ACADIANA DIESEL FUEL INJECTION SERVICE, INC.	2615 Jefferson Island Road ,New Iberia
7288	ACADIANA FITTINGS & SUPPLY, INC.	P.O. Box 724 ,Fulshear
7289	ACADIANA FOOT CENTERS LLC	203 W Brentwood Blvd Ste 2 ,Lafayette
7290	ACADIANA FORD, INC.	P.O. Box 609 ,Kaplan
7292	ACADIANA GASTROENTEROLOGY ASSOCIATES, LLC	439 Heymann Blvd ,Lafayette
7296	ACADIANA LEGAL SERVICE CORPORATION	P. O. Box 4823 ,Lafayette
7297	ACADIANA MANAGEMENT GROUP LLC.	101 La Rue France Ste 500 ,Lafayette
7299	ACADIANA MEDICAL FCU	702 Saint Landry St ,Lafayette
7300	ACADIANA MEDICINE CLINIC	1200 Hospital Drive ,Opelousas
7305	ACADIANA PLASTICS MOLDING, INC.	314 School Board Dr ,New Iberia
7306	ACADIANA RADIOLOGY GROUP, LLC	P.O. Box 53346 ,Lafayette
7310	ACADIANA SMILES, LLP	608 North Avenue K ,Crowley
7317	A-CAL COPIERS INC.	751 Middlesex Turnpike ,Billerica
7320	ACAMPO MACHINE WORKS	930 S. Sacramento Street ,Lodi
7321	ACANTHUS STUDIO, INC.	2542 Protola Way ,Sacramento
7322	ACAP, LLC	5312 Chaffins Farm Court ,Haymarket
7323	AC-APPLIANCE PROS, LTD.	1701 N. Greenville Ave., Suite 606 ,Richardson
7324	ACAPULCO II, INC.	1004 Grange Drive ,Lagrange
7325	ACAR INC	14 Inverness Drive East ,Englewood
7328	ACARIA, INC.	963 S. Kipling Pkwy ,Lakewood
7329	ACARIAHEALTH PHARMACY INC.	6923 Lee Vista Blvd. ,Orlando
7332	ACATO INFORMATION MANAGEMENT, LLC	100 Westview Lane ,Oak Ridge
7333	ACB AMERICAN, INC.	4351 Winston Ave ,Covington
7334	ACB BANK	Po Box 227 ,Cherokee
7335	ACB INSURANCE, INC.	7715 Loma Ct Ste E ,Fishers
7337	ACBEL USA POLYTECH INC	2251 Dominion Drive Suite 111 ,Morrisville
7340	ACC ACCOUNTING SOLUTIONS	535 Rt 38, Suite 320 ,Cherry Hill
7342	ACC AUTOMATION	4445 Alllen Rd., Unit B ,Stow
7343	ACC AUTOMOTIVE CONSULTING COMPANY, LTD	710 Waugh Dr. ,Houston
7345	ACC COLLISION	6565 Central Avenue ,Newark
7346	ACC CONSTRUCTION CORPORATION	6 E 32nd St Fl 7 ,New York
7347	ACC ELECTRONIX, INC	420 Wylie Drive ,Normal
7348	ACC ENVIRONMENTAL CONSULTANTS, INC.	7977 Capwell Dr, Ste 100 ,Oakland
7349	ACC HEALTH, INC.	P.O. Box 91240 ,Albuquerque
7350	ACC HOLDING II, INC.	4951 South Howell Avenue ,Milwaukee
7352	ACC MANAGEMENT	5608 South 14th Street ,Fort Smith
7353	ACC PLANNED SERVICE, INC.	W6338 Cedar Cliff Dr ,Hortonville
7355	ACC TECHNICAL SERVICES	Po Box 2635 ,Liverpool
7358	ACCA, INC.	1020 Barnette Street ,Fairbanks
7359	ACCAD CORPORATION	865 Clinic Drive ,Ivydale
7360	ACCARDI AND MIRDA, P.C.	100 Eagle Rock Avenue ,East Hanover
7361	ACCARDI COMPANIES, INC.	76-15 Myrtle Avenue ,Glendale
7365	ACCC, INC.	5050 Poplar Avenue, Suite 920 ,Memphis
7370	ACCEDIAN NETWORKS CORPORATION	2351 Alfred Nobel Blvd ,Saint Laurent
7371	ACCEL	10251 N 35th Avenue ,Phoenix
7372	ACCEL AIR SYSTEMS, INC.	374 Reed Street ,Santa Clara
7373	ACCEL AVIATION ACCESSORIES, LL	11900 Lacy Lane ,Fort Myers
7374	ACCEL CONNECTORS, INC.	42020 Winchester Rd. ,Temecula
7375	ACCEL CORPORATION	8720 Georgia Ave. Suite 1002 ,Silverspring
7376	ACCEL FIRE SYSTEMS, INC.	4510 Gambell Street ,Anchorage
7377	ACCEL GROUP, INC.	325 Quadral Drive ,Wadsworth
7378	ACCEL HOME SOLUTIONS INC.	374 Maidencreek Road ,Fleetwood
7380	ACCEL MANAGEMENT COMPANY	428 University Avenue ,Palo Alto
7381	ACCEL PRINTING & GRAPHICS CORP.	128 Radio Circle ,Mount Kisco
7382	ACCEL, INC.	9000 SmithS Mill Road ,New Albany
7384	ACCELA CONSULTING, INC.	8000 Towers Crescent Dr Ste 1 ,Vienna
7386	ACCELA WORLDWIDE SOLUTIONS, INC	P.O. Box 2037 ,Hagerstown
7389	ACCELAGRAPHICS OF NEW ENGLAND	74 Otis Street ,Westborough
7390	ACCELALPHA, INC.	1725 Pine View Drive, NW ,Issaqual
7391	ACCELARE, INC.	15 Pacella Park Drive ,Randolph
7392	ACCELATIS, LLC	12 Godfrey Place ,Wilton
7393	ACCELE ELECTRONICS	17900 Crusader Ave., ,Cerritos
7395	ACCELECARE WOUND CENTERS, INC.	10900 NE 4th St. ,Bellevue
7396	ACCELENT, INC.	1 Gorham Island, 3rd Floor ,Westport
7397	ACCELERA CORPORATION	1600 S. Beacon Blvd. ,Grand Haven
7398	ACCELERA SOLUTIONS	12150 Monument ,Fairfax
7399	ACCELERANDO, INC.	4387 Federal Drive ,Greensboro
7401	ACCELERATE BRAIN CANCER CURE INC	1717 Rhode Island Ave NW 7th Fl ,Washington
7403	ACCELERATE EDUCATION	3655 W Anthem Way ,Anthem
7405	ACCELERATE INSTITUTE	150 N Michigan Ave Suite 2100 ,Chicago
7407	ACCELERATED CARE PLUS CORP	4850 Joule Street Suite A1 ,Reno
7408	ACCELERATED CHILDHOOD EDUCATION, INC.	382 Main Street ,Port Washington
7409	ACCELERATED COMPANIES LLC	2002 Timberloch Place, Suite 500 ,The Woodlands
7410	ACCELERATED CONCEPTS INC	1208 E Kennedy Blvd, Ste 226 ,Tampa
7412	ACCELERATED COURIER	515 Airpark Center Dr ,Nashville
7413	ACCELERATED CURING INC	304 E Cr 100 N ,Portland
7414	ACCELERATED DEVELOPMENT AND SUPPORT CORPORATION	901 N Stuart Street, Suite 908 ,Arlington
7416	ACCELERATED FINANCIAL PLANNING SERVICES	5880 Venture Drive, Ste D ,Dublin
7418	ACCELERATED HAND THERAPY AND REHABILITATION, INC.	171 Ridgedale Avenue ,Florham Park
7420	ACCELERATED INNOVATIONS CORPORATION	102 Abbey Ct. ,Venetia
7422	ACCELERATED LAND TRANSFER, LLC	1845 Walnut Street, 25th Floor ,Philadelphia
7423	ACCELERATED MEDIA LLC	858 Happy Canyon Road Suite 235 ,Castle Rock
7424	ACCELERATED MEDIA TECHNOLOGIES, INC	19 Technology Dr ,Auburn
7425	ACCELERATED MEMORY PRODUCTION	1317 E Edinger Ave ,Santa Ana
7426	ACCELERATED MORTGAGE SERVICES	849 Mistletoe Lane ,Redding
7428	ACCELERATED OIL TECHNOLOGIES, LLC	1511 Washington Ave. Suite 300 ,Golden
7429	ACCELERATED PAYMENT TECHNOLOGIES	2436 West 700 South ,Pleasant Grove
7430	ACCELERATED PERFORMANCE LLC	27615 Diehl Rd. ,Warrenville
7431	ACCELERATED PRACTICE CONCEPTS, INC	7 Robb Farm Road ,North Oaks
7432	ACCELERATED PROCUREMENT SERVICES	40 Odell School Rd Unit 10 ,Concord
7435	ACCELERATED REVENUE MANAGEMENT	1787 Mesa Verde Avenue, Suite 150 ,Ventura
7436	ACCELERATED SERVICES, LLC	C/O Rps Plan Administrators ,Greenwood Village
7437	ACCELERATED SOLUTIONS	800 Crescent Centre Dr. ,Franklin
7438	ACCELERATED SOLUTIONS, INC.	310 Maxwell Road ,Alpharetta
7439	ACCELERATED SYSTEMS INTEGRATIONS	 ,
7440	ACCELERATED TECHNOLOGIES, INC.	142 West 57th Street ,New York
7441	ACCELERATED TECHNOLOGY LABORATORIES INC	496 Holly Grove School Road ,West End
7442	ACCELERATED TEK, INC	405 Waltham St. ,Lexington
7443	ACCELERATED TRANSPORTATION SOLUTIONS, INC.	146-35 167th Street 202 ,Jamaica
7445	ACCELERATED, LLC	4140 E Baseline Rd #201 ,Mesa
7446	ACCELERATION EMARKETING INC.	32 East 31st Street 9th Fl ,New York
7447	ACCELERATION LABORATORY SERVICES, I NC.	2634 Northeast Hagan Road ,Lees Summit
7452	ACCELERATOR INDUSTRIES, INC.	8011 S. 187th Street ,Kent
7453	ACCELERIZE NEW MEDIA INC	20411 SW Birch ,Newport Beach
7454	ACCELERON PHARMA, INC	128 Sidney Street ,Cambridge
7455	ACCELERON, INC.	21 Lordship Road ,East Granby
7456	ACCELETRONICS, INC.	602 Gordon Drive ,Exton
7458	ACCELIAN, LLC	1222 Earnestine Street ,Mclean
7459	ACCELION, INC	2200 W Spring Creek Pkwy ,Plano
7460	ACCELITECH LLC	5600 N. River Road ,Rosemont
7461	ACCELL MORTGAGE GROUP	34 W Main Street ,Waconia
7462	ACCELL PROPERTY MANAGEMENT INC.	23046 Avenida De La Carlota #700 ,Laguan Hills
7465	ACCELLION, INC.	1804 Embarcadero Road ,Palo Alto
7466	ACCELLOS INC	90 S Cascade Ave Ste 1200 ,Colorado Springs
7467	ACCELOPS, INC.	2901 Tasman Drive Suite 100 ,Santa Clara
7468	ACCELOVANCE, INC.	2275 Research Blvd ,Rockville
7470	ACCELRYS INC.	5005 Wateridge Vista Dr ,San Diego
7471	ACCELRYS, INC.	5005 Wateridge Vista Dr. ,San Diego
7472	ACCENSUS, LLC	5215 Old Orchard Rd. ,Skokie
7474	ACCENT BANNER LLC	407 Rear Mystic Ave. Suite #25 ,Medford
7475	ACCENT BUSINESS SERVICES, INC.	7710 N.E. Greenwood Dr. #210 ,Vancouver
7476	ACCENT BUSINESS SOLUTIONS	931 North Perkins Street ,Appleton
7478	ACCENT CLEANING SERVICE INC	P.O. Box 1743 ,Oklahoma City
7479	ACCENT COMMUNICATION SERVICES, INC.	585 Sunbury Rd. ,Delaware
7484	ACCENT DENTAL CENTER ON FORUM, LLC	1401 Forum Blvd. ,Columbia
7486	ACCENT DENTAL, P.C.	402 Marquette Street ,Valparaiso
7488	ACCENT DISPLAY CORP.	1655 Elmwood Avenue ,Cranston
7489	ACCENT DOOR, INC.	25010 Cloudy Creek ,San Antonio
7490	ACCENT DRAPERY CO., INC.	1180 Goodale Blvd ,Columbus
7491	ACCENT ELECTRONIC SYSTEMS	P.O. Box 60172 ,Fort Myers
7492	ACCENT EMPLOYER SOLUTIONS, INC.	9821 Katy Freeway, Suite 290 ,Houston
7493	ACCENT FENCE, INC.	P. O. Box 656 ,Egg Harbor City
7494	ACCENT FOOD SERVICES, L.L.C.	Po Box 81515 ,Austin
7496	ACCENT GENERAL CONTRACTING, INC.	114 Derwood Circle ,Rockville
7497	ACCENT GRAPHICS INC.	523 E. Rock Island ,Grand Prairie
7499	ACCENT HOME HEALTH CARE, INC.	7088 Stonecreek Drive ,Plainfield
7500	ACCENT HOMES, INC.	P. O. Box 276 ,Half Moon Bay
7501	ACCENT IMAGING INC	8121 Brownleigh Drive ,Raleigh
7502	ACCENT INDUSTRIES, INC.	9629 58th Place ,Kenosha
7503	ACCENT INTERMEDIA, LLC	300 Missouri Avenue ,Jeffersonville
7504	ACCENT INTERNATIONAL MARKETING, INC.	9205 Alabama Ave., Ste D ,Chatsworth
7505	ACCENT KITCHENS, INC	P O Box 61057 ,Virginia Beach
7506	ACCENT LIGHTING, INC.	2020 N. Woodlawn St., Suite 220 ,Wichita
7507	ACCENT MARBLE, INC.	200 Cookie St. ,London
7508	ACCENT MARKETING SERVICES, LLC	400 Missouri Avenue Suite 107 ,Jeffersonville
7509	ACCENT MUSIC, INC.	5810-A Kirkwood Hwy. ,Wilmington
7510	ACCENT OF STYLE, INC.	3210 Denali St 5 ,Anchorage
7512	ACCENT ON HEALTH	1328 Southern Street, Se ,Washington
7513	ACCENT ON INDEPENDENCE, INC.	11949 West Colfax Avenue ,Lakewood
7514	ACCENT ON LANGUAGES, INC.	1840 Alcatraz Avenue Suite C1A ,Berkeley
7515	ACCENT ON RESTORATION INC.	5911 Peridot Street ,Grove City
7516	ACCENT ON STYLE, INC.	5979 Post Oak Circle ,San Jose
7517	ACCENT ON YOU	3030 South Cooper Street ,Arlington
7518	ACCENT OPTOMETRY, P.A.	1203 Bayberry Drive ,Chapel Hill
7519	ACCENT PHYSICIAN SPECIALISTS, P.A.	4340 Newberry Road ,Gainesville
7520	ACCENT PLASTIC & RECONSTRUCTIVE SURGERY	607 Garfield Street ,Tupelo
7521	ACCENT PLASTIC SURGERY PA	255 E Sonterra Blvd Ste 201 ,San Antonio
7522	ACCENT PLASTICS INC.	1925 Elise Circle ,Corona
7523	ACCENT PLUMBING INC.	21101 Fm 685 ,Pflugerville
7524	ACCENT PRINTING CORPORATION	1859 Pumice Point ,Eagan
7525	ACCENT REALTORS, INC.	4625 S. Harvard Ave., Ste. 100 ,Tulsa
7526	ACCENT SERVICE COMPANY, INC.	P.O. Box 9495 ,Newport Beach
7527	ACCENT SIGNAGE SYSTEMS, INC.	2322 Chestnut Avenue West ,Minneapolis
7529	ACCENT TAG & LABEL INC	2201 Rittenhouse St ,Des Moines
7530	ACCENT TECHNOLOGIES, INC.	1270 Lake Washington Road, Suite C ,Melbourne
7531	ACCENT TILE, INC	10838 Bell Court ,Rancho Cucamonga
7533	ACCENT TRAVEL, INC.	Po Box 753 ,Williston
7535	ACCENT VERTICALS, INC.	28350 SE Hwy 212 ,Boring
7536	ACCENT WOMENS HEALTH	3000 N. Market Ave., Ste E ,Fayetteville
7537	ACCENTCARE INC.	17855 N. Dallas Parkway ,Dallas
7538	ACCENTFX	4600 New Middle Road ,Jeffersonville
7539	ACCENTHEALTH LLC	7844 Woodland Center Blvd ,Tampa
7541	ACCENTIENT, INC	731 Troutner Way ,Boise
7542	ACCENTMARKETING COMMUNICATIONS LC	C/O Interpublic Grp, Ken Lareau ,New York
7543	ACCENTRA CREDIT UNION	400 4th Ave Ne ,Austin
7549	ACCENTS FLOWERS AND GIFTS, INC.	Po Box 2 ,Jamesville
7550	ACCENTS JEWELRY, INC.	12112 Nebel Street ,Rockville
7551	ACCENTS OF THE SOUTH, INC.	501-C Church Street ,Huntsville
7555	ACCENTURE LLP	161 North Clark Street ,Chicago
7557	ACCENTURE MANAGEMENT GROUP LLC	1400 Essington Rd ,Joliet
7558	ACCENTURE TECHNOLOGY SOLUTIONS-US, INC.	161 North Clark Street ,Chicago
7559	ACCEPT SOFTWARE CORPORATION	401 Congress Avenue ,Austin
7560	ACCEPTANCE INSURANCE COMPANY	300 W Broadway ,Council Bluffs
7562	ACCEPTIVA LLC	Po Box 104 ,Snoqualmie
7563	ACCERA, INC.	380 Interlocken Crescent Ste 780 ,Broomfield
7565	ACCERTIFY INC.	1075 Hawthorn Drive ,Itasca
7567	ACCESS 2 CARE LLC	6 Frassetto Way ,Lincoln Park
7571	ACCESS AGILITY, LLC	8601 Westwood Center Dr Ste 250 ,Vienna
7576	ACCESS AUTOMATION INCORPORATED	1930 Watson Way, Suite F ,Vista
7577	ACCESS BANK	8712 West Dodge Road ,Omaha
7580	ACCESS CAPITAL SERVICES, INC.	Po Box 1511 ,Visalia
7582	ACCESS CAPITAL, INC.	405 Park Avenue ,New York
7583	ACCESS CARE HOME CARE INC.	850 South Hewitt Rd ,Ypsilanti
7584	ACCESS CASE MANAGEMENT SERVICE	776A Watervliet Shaker Rd ,Latham
7587	ACCESS COLLEGE FOUNDATION	7300 Newport Avenue #500 ,Norfolk
7588	ACCESS COMMUNICATIONS	976 Rincon Circle ,San Jose
7589	ACCESS COMMUNICATIONS LLC	400 Connell Drive ,Berkeley Heights
7590	ACCESS COMMUNICATIONS, INC.	5005 Cheshire Pkwy North, Suite 1 ,Plymouth
7591	ACCESS COMMUNITY CREDIT UNION	6401 S Bell St ,Amarillo
7593	ACCESS COMMUNITY HEALTH NETWORK	600 W. Fulton St Ste 200 ,Chicago
7594	ACCESS COMPUTERS, INC.	46665 Magellan Drive ,Novi
7595	ACCESS CONSOLIDATED TECHNOLOGIES INC	6489 Camden Ave Ste 201 ,San Jose
7596	ACCESS CONTROL DEVICES	7428 Lindsey Road ,Little Rock
7597	ACCESS CONTROL INTEGRATION, INC.	1010 Stage Avenue ,Memphis
7601	ACCESS COURIER INC	1920 Belt Way Dr ,Saint Louis
7603	ACCESS CREDIT UNION	1807 West Cermak Road ,Broadview
7605	ACCESS DATA NETWORK SOLUTIONS, INC. .	4077 Viscount Avenue ,Memphis
7606	ACCESS DENTAL GROUP PLLC	136-20 38th Avenue ,Flushing
7607	ACCESS DESIGN, INC.	53 Marlboro Street ,Keene
7608	ACCESS DEVELOPMENT CORP	1012 West Beardsley ,Salt Lake City
7612	ACCESS DRUGS, LLC	4062 Hixson Pike ,Chattanooga
7613	ACCESS E & S INSURANCE SERVICES, INC.	5575 Lake Park Way, Suite 218 ,La Mesa
7615	ACCESS ELECTRIC, INC.	2722 Oleander Drive ,Pasadena
7616	ACCESS ENDODONTICS, P.A.	6323 Corporate Court, SW, Suite A ,Fort Myers
7617	ACCESS ESPERANZA CLINICS INC.	916 E. Hackberry ,Mcallen
7618	ACCESS EYE CENTERS, P.C.	110 Cambridge Street ,Fredericksburg
7620	ACCESS FAMILY HEALTH	300 N. Alamo Blvd. ,Marshall
7621	ACCESS FAMILY HEALTH SERVICES, INC.	63450 Highway 25 North ,Smithville
7622	ACCESS FAMILY SERVICES, INC.	2633 West Boulevard ,Charlotte
7623	ACCESS FEDERAL CREDIT UNION	6 Franklin Ave ,Clinton
7624	ACCESS FINANCE INC	3415 S. Sepulveda Blvd Ste 410 ,Los Angeles
7625	ACCESS FINANCIAL GROUP	118 N. Clinton Street Suite 450 ,Chicago
7626	ACCESS FINANCIAL RESOURCES, INC	22471 Labrusca ,Mission Viejo
7627	ACCESS FINANCIAL RESOURCES, INC.	3621 NW 63rd, Ste. A1 ,Oklahoma City
7629	ACCESS FIRST FEDERAL CREDIT UNION	52800 N Main Street ,Mattawan
7630	ACCESS FITNESS INC.	P.O. Box 644 ,Greene
7631	ACCESS FOOD MARKETING GROUP LLC	10221 Desert Sands, Ste. 302 ,San Antonio
7632	ACCESS GENETICS	7400 Flying Cloud Dr # 150 ,Eden Prairie
7633	ACCESS GRANTED ACCESS DENIED, INC.	17 Industrial Ave ,Little Ferry
7635	ACCESS GROUP, INC	10618 Breckenridge Dr. ,Little Rock
7636	ACCESS GROUP, INC.	10 North High Street, Suite 400 ,West Chester
7637	ACCESS HARDWARE, INC.	285 Hukilike Street, B-102 ,Kahului
7638	ACCESS HEALTH CARE PHYSICIANS LLC	14690 Spring Hill Dr ,Spring Hill
7639	ACCESS HEALTH CARE, LLC	5350 Spring Hill Dr ,Spring Hill
7641	ACCESS HEALTH INSURANCE, INC.	819 West San Marcos Blvd. ,San Marcos
7642	ACCESS HEALTH LOUISIANA	843 Milling Avenue ,Lulling
7643	ACCESS HEALTHCARE, INC.	2103 Graves Mill Rd. ,Forest
7644	ACCESS HEALTHCARE, PLLC	1402 Lake Tapps Pkwy. E. ,Auburn
7645	ACCESS HEATING & AIR CONDITIONING, INC.	2040 E Fairview Ave ,Meridian
7646	ACCESS HOME MANAGERS LLC	1862 Charter Lane Ste 102 ,Lancaster
7647	ACCESS HOTEL MANAGEMENT, LLC	4617 Windsor Ridge ,Las Colinas
7648	ACCESS I.T. SECURITY SERVICES,	2000 Valley Forge Circle ,King Of Prussia
7649	ACCESS INCORPORATED	Po Box 268 ,Hampton
7650	ACCESS INDUSTRIES INC	730 5th Ave ,New York
7651	ACCESS INFORMATION MANAGEMENT	6902 Patterson Pass Rd. Suite G ,Livermore
7652	ACCESS INFORMATION SYSTEMS, INC.	1210-A West 96th St. ,Bloomington
7653	ACCESS INFORMATION TECHNOLOGIES	422 Conklin Street ,Farmingdale
7654	ACCESS INSURANCE HOLDINGS, INC.	3 Ravinia Dr Ste 400 ,Atlanta
7655	ACCESS INSURANCE SERVICES, INC.	303 E. Live Oak Avenue ,Arcadia
7657	ACCESS INTERNATIONAL SOFTWARE CORPORATION	1035 Cambridge Street ,Cambridge
7658	ACCESS INTERPRETING, INC	1100 H Street NW ,Washington
7659	ACCESS INVESTMENT ADVISORS	Po Box 697 ,Manitowoc
7661	ACCESS LIFTS OF HAWAII, INC.	1525 Young Street ,Honolulu
7664	ACCESS LIVING, INC.	1200 Harris Ave Ste 307 ,Bellingham
7665	ACCESS MANAGED CARE, LLC	5375 Whitman Rd. ,Hidden Hills
7669	ACCESS MANUFACTURING	One Stiles Road ,Salem
7671	ACCESS MARKETING, INC	3059 NW Montara Loop ,Portland
7672	ACCESS MARKETING, INC.	3059 NW Montara Loop ,Portland
7673	ACCESS MARKETS INTERNATIONAL AMI PARTNERS, INC.	546 Fifth Avenue ,New York
7674	ACCESS MEDIA	124 Center Street ,El Segundo
7675	ACCESS MEDIA 3	900 Commerce St Ste 200 ,Oakbrook
7678	ACCESS MEDICAL GROUP	4644 Lincoln Blvd Ste 111 ,Marina Del Rey
7679	ACCESS MEDICAL MANAGEMENT	2325 W Victory Blvd ,Burbank
7680	ACCESS MEDICAL SOUTH, LLC	5701 Country Lakes Drive ,Ft. Myers
7682	ACCESS METALS TRADING, INC.	2258 Camino Ramon ,San Ramon
7684	ACCESS MORTGAGE	239 Wood Glen Lane ,Oak Brook
7685	ACCESS NATIONAL CORPORATION	1800 Robert Fulton Drive ,Reston
7689	ACCESS OF THE RED RIVER VALLEY	403 Center Avenue, Suite 512 ,Moorhead
7690	ACCESS ONE INC	730 Shore Rd ,Somers Point
7691	ACCESS ONE INCORPORATED	820 W Jackson Blvd ,Chicago
7692	ACCESS ORTHODONTICS, LLC	15 Front Street ,Weymouth
7695	ACCESS PACIFIC, LLC	980 Ninth Street, Suite 2000 ,Sacramento
7696	ACCESS PARKING SYSTEMS, LLC	3711 N Ravenswood Ste 144 ,Chicago
7697	ACCESS PARTNERS, LLC	25 NW Riverside Drive, Suite 202 ,Evansville
7698	ACCESS PARTNERSHIP, LLC	1200 18th Street NW Suite 1001 ,Washington
7701	ACCESS PLANS, INC	900 36th Ave NW Suite 105 ,Norman
7703	ACCESS POINT FINANCIAL, INC.	One Ravinia Drive ,Atlanta
7704	ACCESS POINT TECHNOLOGIES	12560 Fletcher Lane ,Rogers
7705	ACCESS POINT, INC.	1100 Crescent Green Suite 109 ,Cary
7706	ACCESS POINT, L.L.C.	42400 Grand River Avenue Suite 200 ,Novi
7707	ACCESS POS, LLC	990 Loneoak Road, Suite 102 ,Eagan
7708	ACCESS PRODUCTS, INC.	4160 Center Park Dr ,Colorado Springs
7709	ACCESS PROPERTY MANAGEMENT LLC	4 Walter E Foran Blvd Ste 311 ,Flemington
7710	ACCESS PROSTHETICS	2020 Riverside Dr. ,Green Bay
7711	ACCESS REALTY, LLC	4113 East North Street ,Greenville
7712	ACCESS RECRUITING, INC.	18726 S. Western Avenue Suite 206 ,Gardena
7713	ACCESS REHAB CENTERS, LLC	22 Tompkins Street ,Waterbury
7714	ACCESS RETIREMENT SERVICES, LLC	213 West Maplewood Lane, Suite 500 ,Nashville
7715	ACCESS REVERSE MORTGAGE CORPORATION	2999 Tyrone Blvd ,Saint Petersburg
7716	ACCESS SACRAMENTO	4623 T Street Suite A ,Sacramento
7717	ACCESS SALES ASSOCIATES, INC.	4949 Fulton Dr. Ste F ,Fairfield
7718	ACCESS SALES ASSOCIATES,INC.	Po Box 7190 ,Shawnee Mission
7719	ACCESS SCIENCES CORPORATION	1900 West Loop South Suite 250 ,Houston
7721	ACCESS SERVICES	P.O. Box 5728 ,El Monte
7723	ACCESS SOFTEK, INC	727 Allston Way ,Berkeley
7724	ACCESS SOIL DRILLING, INC.	1306 S Delaware ,San Mateo
7725	ACCESS SPORTS MEDICINE & ORTHOPAEDICS, P.A.	One Hampton Road ,Exeter
7726	ACCESS STAFFING LLC	25 Melville Park Rd Ste 115 ,Melville
7728	ACCESS SYSTEMS INC	4260 Henneberry Rd ,Manlius
7730	ACCESS SYSTEMS, INC.	4947 Hillsdale Cir ,El Dorado Hills
7731	ACCESS TAX CONSULTING INC	314 2nd St ,Cheraw
7734	ACCESS TELCOM, INC.	2202 E. Sprague Ave. ,Spokane
7736	ACCESS THERAPIES	5980 West 71st Street Ste 201 ,Indianapolis
7739	ACCESS TO INDEPENDENCE	4960 S Prospect Street ,Ravenna
7743	ACCESS TO PSYCHIATRY, INC.	105 Sockanosset Cross Road ,Cranston
7744	ACCESS TO TRAVEL INC	8201 Cantrell Road ,Little Rock
7745	ACCESS TRUCK PARTS, LLC	4014 E Broadway Rd Ste 406 ,Phoenix
7746	ACCESS USA SHIPPING, LLC	4299 Express Lane ,Sarasota
7748	ACCESS VISION	70 W. Michigan Suite 112 ,Battle Creek
7750	ACCESS WEALTH MANAGEMENT	4360 Brownsboro Road ,Louisville
7751	ACCESS WEALTH PLANNING, LLC	4 Becker Farm Rd ,Roseland
7753	ACCESS WORLDWIDE COMMUNICATION, INC.	301 Yamato Road ,Boca Raton
7754	ACCESS YOUTH ACADEMY	9370 Waples St ,San Diego
7755	ACCESS, INC.	230 West Market Street ,Akron
7759	ACCESSABILITIES, INC.	2900 Seminary Drive ,Greensburg
7760	ACCESSABILITY CENTER FOR INDEPENDENT LIVING, INC.	5302 E. Washington Street ,Indianapolis
7761	ACCESSABILITY, INC.	360 Hoover Street Ne ,Minneapolis
7762	ACCESSCARE	3000 Aerial Center Parkway ,Morrisville
7763	ACCESSCLOSURE, INC.	5452 Betsy Ross Drive ,Santa Clara
7764	ACCESSDATA CORP	588 West 400 South Ste 350 ,Lindon
7765	ACCESSDATA GROUP, INC.	588 West 400 South, Suite 350 ,Lindon
7767	ACCESSEAST, LLC	25671 Fort Meigs Road ,Perrysburg
7770	ACCESSIBILITY SOLUTIONS, INC.	P.O. Box 3122 ,Syracuse
7771	ACCESSIBLE HEALTH INSURANCE SERVICES INC	10315 Woodley Ave 216 ,Granada Hills
7775	ACCESSIBLE PHYSICAL THERAPY SERVICE S LLC	30 West Gude Dr 375 ,Rockville
7778	ACCESSIG, INC.	Po Box 245 ,East Hanover
7779	ACCESSIT GROUP INC	20106 Valley Forge Circle ,King Of Prussia
7780	ACCESSMATTERS	1700 Market Street ,Philadelphia
7781	ACCESSONE MEDCARD, INC.	580 Kingsley Park Drive ,Fort Mill
7783	ACCESSORIE AIR COMPRESSOR SYSTEMS, INC.	1858 N. Case Street ,Orange
7784	ACCESSORIES ETC., INC.	9696 Bonita Beach Road ,Bonita Springs
7788	ACCESSORIES, INC.	220 North Main Street ,Farmville
7789	ACCESSORIES, INC. OF WICHITA	4123 W. May Street ,Wichita
7790	ACCESSORY EXCHANGE, LLC	1 East 33rd St, 6th Floor ,New York
7792	ACCESSORY EXPRESS INC.	11200 N.W. 25th St. ,Miami
7794	ACCESSORY OVERHAUL GROUP, INC	P.O. Box 925 ,Griffin
7795	ACCESSORY PLACE, INC.	12850 Memorial Drive ,Houston
7796	ACCESSORY TECHNOLOGIES CORP	219 Central Ave ,Farmingdale
7797	ACCESSPOINT LLC	42400 Grand River Avenue ,Novi
7798	ACCESSPOINT RI	P.O. Box 20130 ,Cranston
7799	ACCESSVIA, INC.	3131 Western Avenue ,Seattle
7800	ACCF	1001 Connecticut Ave., NW, Ste 620 ,Washington
7802	ACCHROMA	4747 Manufacturing Road ,Cleveland
7805	ACCIDENT & INJURY CENTER OF ALASKA, INC.	218 West 34th Avenue ,Anchorage
7806	ACCIDENT & INJURY CHIROPRACTIC CENTER, INC.	1702 S. 72nd Street ,Tacoma
7807	ACCIDENT CARE AND TREATMENT CENTER, INC.	3233 NW 63rd ,Oklahoma City
7809	ACCIDENT INSURANCE SERVICES, INC.	12850 Spurling Road, Suite 210 ,Dallas
7810	ACCIDENT INVESTIGATION AND RECONSTRUCTION, INC.	79 Cherry Hills Farm Dr ,Cherry Hills Village
7813	ACCIDENT RECONSTRUCTION ANALYSIS, INC.	5801 Lease Lane ,Raleigh
7815	ACCION GROUP, INC.	244 North Main Street ,Concord
7816	ACCION INTERNATIONAL	10 Fawcett Street Suite, Suite 204 ,Cambridge
7818	ACCION LABS US INC	1121 Boyce Rd Suite 1400 ,Pittsburgh
7820	ACCIONA ENERGY NORTH AMERICA CORP.	333 West Wacker Drive ,Chicago
7822	ACCIUM BIOSCIENCES, INC.	550 - 17th Ave., Ste 550 ,Seattle
7823	ACC-LA	9599 Jefferson Blvd ,Culver City
7824	ACCLAIM ENERGY, LTD.	Two Riverway ,Houston
7825	ACCLAIM FEDERAL CREDIT UNION	1823 Banking Street ,Greensboro
7827	ACCLAIM MARKETING & SALES	549 Mercury Lane ,Brea
7829	ACCLAIM PROPERTIES INC.	149 Prospect Street ,Suffield
7830	ACCLAIM RISK MANAGEMENT, INC.	19800 Macarthur Boulevard ,Irvin
7831	ACCLAIM SYSTEMS, INC.	110 E. Pennsylvania Blvd. ,Feasterville
7832	ACCLAIM TECHNICAL SERVICES, INC.	7777 Center Avenue, Suite 690 ,Huntington Beach
7834	ACCLAIM TELECOM SERVICES, INC	1300 E Arapaho Rd Ste 206 ,Richardson
7836	ACCLAMATION INSURANCE MANAGEMENT SERVICES	10445 Old Placerville Road ,Sacramento
7837	ACCLARENT, INC	1525-B OBrien Drive ,Menlo Park
7838	ACCLARIS, INC.	1511 N West Shore Blvd 350 ,Tampa
7839	ACCLARO GROWTH PARTNER, L.L.C.	46179 Westlake Drive ,Potomac Falls
7840	ACCLARO INC.	1 Bridge Street ,Irvington
7843	ACCLIVITY LLC	300 Roundhill Drive ,Rockaway
7844	ACCLIVUS CORPORATION	14500 Midway Road ,Dallas
7849	ACCO ENGINEERED SYSTEMS	6265 San Fernando Road ,Glendale
7854	ACCOLADE CAPITAL MANAGEMENT LLC	1850 M St., NW ,Washington
7859	ACCOLADE PROPERTY MANAGEMENT, INC.	621 Cowboys Pkwy Ste 200 ,Irving
7862	ACCOLITE, INC	16479 Dallas Parkway ,Addison
7863	ACCOMET CORPORATION	1850 S. Ocean Drive ,Hallandale
7865	ACCOMMODATION MOLLEN, INC.	2150 Kubach Road ,Philadelphia
7866	ACCOMMODATIONS UNLIMITED	10521 Judicial Drive, Suite 100 ,Fairfax
7867	ACCOMMODATIONS UNLIMITED, INC.	35 Sunset Blvd ,Colchester
7868	ACCOMODATIONS PLUS INC.	4240 Merrick Road ,Massapequa
7869	ACCOMPLI, LLC	253 George Washington Highway ,Ridgefield
7870	ACCOMPLICE, LLC	729 Boylston Street ,Boston
7873	ACCOR TECHNOLOGY, INC.	3310 SE 5th St ,East Wenatchee
7875	ACCORD CORPORATION	84 Schuyler Street ,Belmont
7877	ACCORD ENGINEERING, INC.	2923 Pullman Street ,Santa Ana
7878	ACCORD FINANCIAL, INC.	Po Box 6704 ,Greenville
7879	ACCORD HEALTH SERVICE, INC.	2500 Boulevard Of The Generals ,Norristown
7880	ACCORD HEALTHCARE INC	1009 Slater Rd Ste 210B ,Durham
7881	ACCORD HEALTHCARE MANAGEMENT, INC.	10 Cudworth Road ,Webster
7895	ACCORD INSURANCE NETWORK OF PALM	1 Florida Park Drive South ,Palm Coast
7898	ACCORD MANUFACTURING, INC.	N172 W20950 Emery Way ,Jackson
7903	ACCORD PETROCHEMICAL BROKERAGE, LLC	925 Westbank Drive ,Austin
7904	ACCORD PRODUCTIONS, INC.	2140 South Dixie Highway, #301 ,Miami
7906	ACCORD RESTORATION, INC.	7123 Windsor Mill Road, Suite 100 ,Baltimore
7907	ACCORD SERVICES, INC.	3611 Kirkman Street ,Lake Charles
7909	ACCORDANT COMPANY LLC	365 South St Ste 1 ,Morristown
7910	ACCORDANT MEDIA, LLC	920 Broadway 15th Floor ,New York
7912	ACCORDENCE INC	533 Airport Boulevard Suite 400 ,Burlingame
7915	ACCORDIA GLOBAL HEALTH FOUNDATION	1825 Connecticut Ave. NW, Suite 630 ,Washington
7916	ACCORDIA GROUP, LLC	537 Stratton Road ,New Rochelle
7917	ACCORDING TO VALUE, LTD.	7104 New York Avenue ,Arlington
7922	ACCOTINK ACADEMY, INC.	8519 Tuttle Rd ,Springfield
7924	ACCOUNT CONTROL TECHNOLOGY BENEFIT PLAN	21700 Oxnard Street ,Woodland Hills
7925	ACCOUNT MANAGEMENT SERVICES IN	5300 Orange Ave. 120 ,Cypress
7929	ACCOUNT RECOVERY COMPANY	3217 S. Cherokee Lane, Ste 740 ,Woodstock
7930	ACCOUNT RECOVERY SERVICE INC	Po Box 7648 ,Goodyear
7931	ACCOUNT RECOVERY SERVICE, INC.	3031 N. 114th Street ,Milwaukee
7932	ACCOUNT RECOVERY SPECIALISTS, INC.	3505 N Topeka ,Wichita
7933	ACCOUNT RESOLUTION CORPORATION	700 Goddard ,Chesterfield
7935	ACCOUNT SERVICES COLLECTIONS, IN	1802 NE Loop 410 Suite 400 ,San Antonio
7936	ACCOUNT SERVICES, INC.	Po Box 832 ,Redmond
7937	ACCOUNT WORKS, INC	7909 Aquarius Drive ,Fargo
7942	ACCOUNTABILITY WORKS INC	Democracy Plaza Ste 300 ,Bethesda
7944	ACCOUNTABLE HEALTHCARE STAFFING	999 Yamato Road ,Boca Raton
7948	ACCOUNTANTS AND BUSINESS ADVISORS FOR PHYSICIANS, INC.	2631-A NW 41st Street ,Gainesville
7951	ACCOUNTANTS GROUP, INC	1431 Mchenry Road Route 83 ,Buffalo Grove
7954	ACCOUNTANTS TO YOU, LLC	430 Reading Rd. Ste. 1B ,Cincinnati
7956	ACCOUNTANTS, TAX CONSULTANTS & LAWYERS	2727 Paces Ferry Rd Se ,Atlanta
7957	ACCOUNTAX CPAS, PC	835 Main Ave Ste 204 ,Durango
7958	ACCOUNTEKS	874-B1 Pompton Avenue ,Cedar Grove
7959	ACCOUNTING & BOOKKEEPING SOLUTIONS,	165 Ivy Street ,Kearny
7960	ACCOUNTING & BUSINESS CONSULTA	2962 Trivium Cir Ste 101 ,Fort Lauderdale
7961	ACCOUNTING & CONSULTING GROUP, LLP	P.O. Box 3130 ,Albuquerque
7962	ACCOUNTING & FINANCIAL CAREERS, INC.	2375 W. Washington Street, Ste 200 ,West Bend
7965	ACCOUNTING & TAX SERVICES, INC.	304 E. 10th ,Goodland
7967	ACCOUNTING AND BUSINESS SERVICES, INC.	5441 Spring Street ,Racine
7972	ACCOUNTING INTEGRATED SOLUTION	21 Powder Horn Drive ,Suffern
7973	ACCOUNTING LEGAL & LOGISTICS SOLUTIONS, INC.	4005 Mcree Avenue ,St Louis
7974	ACCOUNTING LINK TECHNOLOGIES L	P.O. Box 356 ,Middletown
7975	ACCOUNTING MANAGEMENT SOLUTIONS, INC.	800 South Street Suite 195 ,Waltham
7976	ACCOUNTING MICRO SYSTEMS, INC.	1700 Montgomery Street, Suite 220 ,San Francisco
7978	ACCOUNTING PRINCIPALS INC.	10151 Deerwood Park Blvd ,Jacksonville
7979	ACCOUNTING PROFESSIONALS INC	22850 NE 8th St, Suite 105 ,Sammamish
7980	ACCOUNTING PROFESSIONALS, LLC	16841 North 31st Avenue, Suite 161 ,Phoenix
7983	ACCOUNTING SEED, INC.	10500 Little Patuxent Parkway ,Columbia
7984	ACCOUNTING SOFTWARE PLUS LLC	96 N. Third Street, Suite 550 ,San Jose
7985	ACCOUNTING SOLUTIONS & TAX SVC INC	Po Box 391 ,Nokesville
7986	ACCOUNTING SOLUTIONS PLLC	34518 5th Pl Sw ,Federal Way
7988	ACCOUNTING, ECONOMICS AND APPRAISAL GROUP, LLC	1901 6th Ave N Ste 1710 ,Birmingham
7991	ACCOUNTMATE SOFTWARE CORPORATION	1445 Technology Lane, Suite A5 ,Petaluma
7992	ACCOUNTNET, INC	65 Broadway ,New York
7994	ACCOUNTNOW INC	2603 Camino Ramon ,San Ramon
7995	ACCOUNTS RECEIVABLE CLEARING HOUSE, LLC	7310 Ritchie Hwy ,Glen Burnie
7996	ACCOUNTS RECEIVABLE MANAGEMENT SYSTEMS, INC.	Po Box 990003 ,Boise
7997	ACCOUNTS RECEIVABLE MANAGEMENT, INC	155 Mid Atlantic Parkway ,Thorofare
7999	ACCOUNTSOURCE, INC.	130 Milestone Way ,Greenville
8000	ACCOUNTWARE SOLUTIONS, INC.	4799 Sugarloaf Parkway ,Lawrenceville
8002	ACCRA MANUFACTURING, INC.	17703 - 15th Ave Se ,Bothell
8003	ACCRABOND CORPORATION	8848 Hacks Cross Road ,Olive Branch
8004	ACCRA-FAB, INC	Po Box 641 ,Liberty Lake
8005	ACCRA-FAB, INC.	P.O. Box 641 ,Liberty Lake
8006	ACCRALINE, INC.	1420 W Bike St ,Bremen
8007	ACCRAM, INC.	2901 W. Clarendon Avenue ,Phoenix
8013	ACCREDITATION COMMISSION FOR ACUPUNCTURE AND ORIENTAL MEDICINE	14502 Greenview Drive, Suite 300B ,Laurel
8014	ACCREDITATION COUNCIL FOR BUSINESS	11520 West 119th St ,Overland Park
8015	ACCREDITATION COUNCIL FOR GRADUATE MEDICAL EDUCATION	515 North State Street ,Chicago
8016	ACCREDITATION COUNCIL FOR PHARMACY EDUCATION	135 S. Lasalle Street ,Chicago
8021	ACCREDITED DERMATOLOGY MEDICAL CLINIC, INC.	P. O. Box 10481 ,Fullerton
8022	ACCREDITED ENVIRONMENTAL TECHNOLOGIES, INC.	28 N. Pennell Rd ,Media
8023	ACCREDITED HOLDING CORPORATION	4798 New Broad Street, Suite 200 ,Orlando
8024	ACCREDITED HOME CARE, INC.	27733 Schoenherr Road ,Warren
8027	ACCREDITED INVESTORS, INC.	5200 W. 73rd Street ,Edina
8028	ACCREDITED LOCK & DOOR HARDWARE CO.	1161 Paterson Plank Road ,Secaucus
8031	ACCREDITED STANDARDS COMMITTEE	275 West St Ste 107 ,Annapolis
8032	ACCREDITING BUREAU OF HEALTH EDUCATION SCHOOLS	7777 Leesburg Pike, Suite 314N ,Falls Church
8033	ACCREDITING COMMISSION FOR SCHOOLS	533 Airport Blvd, Suite 200 ,Burlingame
8034	ACCREDITING COMMISSION OF CAREER SCHOOLS	2101 Wilson Blvd Ste 302 ,Arlington
8035	ACCREDITING COUNCIL FOR CONTINUING EDUCATION AND TRAINING	1722 N Street NW ,Washington Dc
8037	ACCREON USA, INC.	155 Fleet St. ,Portsmouth
8038	ACCRETE SOLUTIONS, LLC	3350 Scott Boulevard, Building 34 ,Santa Clara
8041	ACCRETIVE ASSET MANAGEMENT, INC.	21430 Park Brook Drive ,Katy
8042	ACCRETIVE HEALTH, INC.	401 N Michigan Ave #2700 ,Chicago
8043	ACCRETIVE REALTY ADVISORS, INC.	19752 Macarthur Blvd, Suite 240 ,Irvine
8044	ACCRETIVE SOLUTIONS OPERATING CO	One South Wacker ,Chicago
8045	ACCRETIVE SOLUTIONS, INC.	One South Wacker Drive ,Chicago
8046	ACCRETIVE TECHNOLOGY GROUP	800 Stewart Street ,Seattle
8049	ACCRON LP	506 Honea Egypt Road ,Magnolia
8050	ACCROTOOL, INC	401 Hunt Valley Road ,New Kensington
8051	ACCRU, INC.	1640 Nixon Drive, Suite 329 ,Moorestown
8052	ACCRUATE BUSINESS SERVICES,INC.	309A Bowling Ave ,Nashville
8053	ACCRUE PARTNERS, INC.	2137 South Blvd. ,Charlotte
8054	ACCRUED BENEFIT ADMINISTRATORS, INC	209 West Anapamu Street ,Santa Barbara
8056	ACCRUENT LLC	10801-2 N Mopac Expressway ,Austin
8057	ACCRUENT, INC.	429 Santa Monica Blvd ,Santa Monica
8060	ACCSES NEW JERSEY, INC.	150 W State St Ste 120 ,Trenton
8061	ACCSYS TECHNOLOGY, INC.	1177-A Quarry Lane ,Pleasanton
8062	ACCSYS, INC.	2502 N Rocky Point Dr Ste 960 ,Tampa
8064	ACCTECH SOLUTIONS INC.	21442 Belknap Drive ,Bend
8065	ACCTECH, LLC	33 Murray Hill Drive ,Nanuet
8066	ACCTTWO SHARED SERVICES LLC	13105 Northwest Freeway, Suite 1250 ,Houston
8067	ACCU - SEAL CORPORATION	225 Bingham Drive B ,San Marcos
8068	ACCU - TOOL, INC.	9765 Julie Court ,Tipp City
8069	ACCU CONSTRUCTION, INC.	1526 Brookhollow Drive, Suite 76 ,Santa Ana
8070	ACCU COPY OF GREENVILLE, INCORPORATED	1055 SW Greenville Boulevard ,Greenville
8072	ACCU FAB, INC.	1550 Abbott Dr. ,Wheeling
8074	ACCU RECORD DIRECT, INC.	200 Broadhollow Road, Ste 308 ,Melville
8076	ACCU STAMPING & MANUFACTURING, INC.	W18797 S80 Apollo Dr. ,Muskego
8077	ACCU TEST LABS, L.L.P.	7821 Pinemont ,Houston
8078	ACCU TRAK TOOL CORP.	490 Stafford Street ,Cherry Valley
8079	ACCU-AIRE MECHANICAL SERVICES, INC.	3545 Marietta Avenue ,Lancaster
8080	ACCU-AIRE MECHANICAL, LLC	1441 S. Ww White Road ,San Antonio
8083	ACCU-BOND CORPORATION	460 Acorn Lane ,Downingtown
8084	ACCU-BORE DIRECTIONAL DRILLING, INC .	831 Robin Cr. ,Arroyo Grande
8085	ACCU-BUILD, INC.	6 Faith Court ,Damascus
8086	ACCUBUILT, INC.	2550 Central Point Parkway ,Lima
8087	ACCUBURN INC	Po Box 35 ,Williamsport
8089	ACCUCAST INC	5113 27th Avenue ,Rockford
8091	ACCUCHEX CORPORATION	365 Bel Marin Key Blvd. ,Novato
8094	ACCUCOM CONSULTING, INC.	250 Post Road East ,Westport
8095	ACCUCOM CORPORATION	745 Boylston Street ,Boston
8096	ACCU-COST CONSTRUCTION CONSULTANTS, INC.	575 8th Avenue, Suite 1220 ,New York
8098	ACCU-CUT INCORPORATED	417 W. 130th Street ,Los Angeles
8100	ACCUDATA HOLDINGS, INC. DBA ACCUDATA INTEGRATED MARKETING	5220 Summerlin Commons Blvd. ,Fort Myers
8101	ACCUDATA INTEGRATED MARKETING, INC.	5220 Summerlin Commons Boulevard ,Fort Myers
8102	ACCUDATA PAYROLL SERVICES	95 West Old Country Road ,Hicksville
8103	ACCUDATA SERVICE, INC.	5333 N.W. 108th Avenue ,Sunrise
8104	ACCUDATA SYSTEMS, INC.	7906 N. Sam Houston Parkway West ,Houston
8105	ACCUDRAFT COM INC	801 International Pkwy ,Lake Mary
8106	ACCUDX CORPORATION	8806 Cliffridge Ave ,La Jolla
8107	ACCUDYN PRODUCTS, INC.	2400 Yoder Drive ,Erie
8108	ACCUDYNE INDUSTRIES, LLC	2728 N. Harwood St. ,Dallas
8110	ACCUFAB INC	1370 Weber Industrail Drive ,Cumming
8112	ACCUFAB, INC.	1326 E Francis St ,Ontario
8114	ACCU-FAB, INC.	801 Beacon Lake Drive ,Raleigh
8116	ACCUFAX DIV., SOUTHVEST INC	2840 E. 51st St. ,Tulsa
8118	ACCU-FIND SLAB LEAK, INC	Po Box 170506 ,Irving
8119	ACCU-FIRE FABRICATION INC	8 Progress Dr ,Morrisville
8120	ACCUFLEET INTERNATIONAL, INC.	777 Benmar, Suite 450 ,Houston
8121	ACCUFLOW SYSTEMS INC.	5744 A Industry Lane ,Frederick
8122	ACCUFOOD, INC.	6459 Independence Ave ,Woodland Hills
8123	ACCUFORCE STAFFING SERVICES, LLC	P.O. Box 599 ,Kingsport
8124	ACCUFORM INDUSTRIES, INC.	1701 Broadway Ave NW ,Grand Rapids
8125	ACCUFORM MANUFACTURING, INC.	16228 Flight Path Drive ,Brooksville
8127	ACCUGEO LINER, INC.	321 Industrial Street ,Bakersfield
8128	ACCU-GLASS, LLC	10765 Trenton Ave ,St. Louis
8129	ACCU-GRIND MFG. CO. INC.	272 Leo Street ,Dayton
8130	ACCU-GRIND, INC.	451 Center Street ,Johnsonburg
8131	ACCU-IMAGE INC	2360 Owen St ,Santa Clara
8132	ACCUITY LLP	999 Bishop Street, Suite 1900 ,Honolulu
8133	ACCUITY, LLC	P O Box 1072 ,Albany
8134	ACCULAB INC	5041 Taravella Road ,Marrero
8136	ACCULEVEL, INC.	9495 North Waldron Road ,Rossville
8137	ACCULINE ORTHODONTICS, LLC	44 Village Court ,Hazlet
8139	ACCULIST USA	1891 Goodyear Avenue Suite 622 ,Ventura
8140	ACCULLINK INC	3225 Cumberland Blvd SE Ste 50 ,Atlanta
8143	ACCUMA CORPORATION	133 Fanjoy Rd ,Statesville
8144	ACCUMARK, INC.	9500 King Air Court ,Ashland
8146	ACCUMAX AUTO PARTS INC	1808 Roosevelt Ave ,Joplin
8147	ACCUMED INC	640 Winding River Road ,Brick
8149	ACCUMEDIC COMPUTER SYSTEMS, INC.	11 Grace Avenue ,Great Neck
8152	ACCUMET SPECIALTY METALS, INC.	5188 Duff Drive ,Cincinnati
8153	ACCUMETRIC, LLC	350 Ring Road ,Elizabethtown
8154	ACCUMETRICS ASSOCIATES, INC.	409 Front Street ,Schenectady
8155	ACCUMETRICS LIMITED	134 Adams St. ,Royersford
8156	ACCUMETRICS, INC	3985 Sorrento Valley Blvd ,San Diego
8157	ACCU-MOLD & TOOL CO INC	Po Box U ,Halifax
8159	ACCUMULATORS, INC.	1175 Brittmoore Road ,Houston
8160	ACCUMULUS CAPITAL MANAGEMENT, LLC	110 East 59th Street, Suite 3301 ,New York
8161	ACCUMYN, LLC	1415 Congress Street, Ste. 200 ,Houston
8162	ACCUNET SOLUTIONS, INC.	20 Park Plaza ,Boston
8163	ACCUNET, INC.	929 Eastwind Drive ,Westerville
8164	ACCUOSS LLC	8201 Golf Course Rd NW Ste D3 ,Albuquerque
8165	ACCUPAC, INC.	1501 Industrial Blvd ,Mainland
8166	ACCUPATH LABORATORY SERVICES I	10740 Meridian Ave N ,Seattle
8167	ACCUPAY PAYROLL INC.	50 S. Penn Street, Suite A5 ,Hatboro
8168	ACCUPRINT INC.	2414 Palumbo Drive ,Lexington
8169	ACCUPRO ACCOUNTING, INC.	5225 S. Mcclintock Drive, Suite E ,Tempe
8172	ACCU-PROMPT EDM, INC.	100 83rd Avenue NE Suite 101 ,Fridley
8173	ACCUPROP, INC.	212 Log Canoe Circle ,Stevensville
8175	ACCUQUEST HEARING CENTERS, INC.	2800 Higgins Rd. ,Hoffman Estates
8176	ACCURA AUDIOLOGY PLLC	6645 Main Street ,Williamsville
8178	ACCURA SYSTEMS, INC.	326 Clay Road ,Sunnyvale
8180	ACCURACY IN MEDIA	4350 East West Highway Suite 555 ,Bethesda
8181	ACCURACY INTERNATIONAL OF	6678 Lake Shore Rd ,Derby
8182	ACCURACY PRODUCTS INC	3800 N Hwy 281 ,Mineral Wells
8183	ACCURATE ABSTRACTS LLC	Po Box 310 ,Bradley Beach
8184	ACCURATE ACCESSORIES, LLC	14400 Veterans Way ,Moreno Valley
8185	ACCURATE ACCOUNTING ASSOCIATES	57 Copperfield Dr ,Waterford
8186	ACCURATE ACOUSTICAL, INC.	793 Canning Pkwy ,Victor
8188	ACCURATE AESTHETICS PLASTIC SURGERY, P.C.	One Washington Street, Suite 301 ,Wellesley
8189	ACCURATE AIR ENGINEERING INC	16207 Carmenita Rd ,Cerritos
8190	ACCURATE ALIGNMENT & FRAME SERVICE, INC	3020 W Franklin St ,Appleton
8191	ACCURATE ALLOYS, INC.	5455 North Irwindale Avenue ,Irwindale
8192	ACCURATE ANODIZING, INC.	1801 West El Segundo Blvd. ,Compton
8195	ACCURATE ASPHALT MAINTENANCE &	418 Murillo Dr ,Nokomis
8196	ACCURATE AUTO ALIGNMENT, INC.	5318 West Lincoln Avenue ,West Allis
8197	ACCURATE AUTO CLINIC INC	1580 E Oakton St ,Des Plaines
8198	ACCURATE AUTO LLC	193 East Main Street ,Milford
8199	ACCURATE AUTO OF BEAVERTON	13980 SW Tualatin Valley Hwy ,Beaverton
8200	ACCURATE AUTOBODY, INC.	200 Main St ,Nashville
8201	ACCURATE AUTOMATIC MANUFACTURING CORPORATION	703 Business Way ,Wylie
8203	ACCURATE AUTOMATION CORPORATION	7001 Shallowford Road ,Chattanooga
8204	ACCURATE AUTOMOTIVE &	632 North Main ,Logan
8207	ACCURATE BACKGROUND, INC.	7515 Irvine Center Dr ,Irvine
8208	ACCURATE BIOMETRICS, INC.	500 Park Boulevard ,Itasca
8209	ACCURATE BORING CO.	P.O. Box 148 ,Alexander
8210	ACCURATE BOX COMPANY, INC.	86 Fifth Avenue ,Paterson
8211	ACCURATE BRAZING CORP	36 Cote Avenue ,Goffstown
8212	ACCURATE BURRING CO. LLC	161-19 Woodford Avenue ,Plainville
8213	ACCURATE BUSINESS CONTROLS, INC.	7846 Burden Rd ,Machesney Park
8214	ACCURATE CARBIDE TOOL CO INC	5655 N Westervelt Road ,Saginaw
8215	ACCURATE CARE, INC.	350 E. Dundee Road ,Wheeling
8216	ACCURATE CASTINGS, INC.	P.O. Box 639 ,Laporte
8217	ACCURATE CHIROPRACTIC CLINIC	4191 Mariner Blvd. ,Spring Hill
8218	ACCURATE CLEANING, INC.	6301 Angelo Court ,Loomis
8219	ACCURATE CLINICAL TRIALS INC	206 Park Place Blvd ,Kissimmee
8224	ACCURATE COMMUNICATIONS, LLC	2215 Harney Street ,Omaha
8225	ACCURATE COMPONENT SALES INC	444 2nd St NW ,New Brighton
8228	ACCURATE CONSULTANTS, INC.	4367 Narragansett Ave ,San Diego
8229	ACCURATE CONTROL COMPANY LLC	4949 Blalock Rd ,Houston
8230	ACCURATE CONTROL INC	326 Blackburn St ,Ripon
8232	ACCURATE DIAMOND TOOL CORPORATION	1 Palisade Avenue ,Emerson
8233	ACCURATE DIE CUTTING, INC.	413 Interchange St ,Mckinney
8235	ACCURATE DOOR & HARDWARE, INC.	10 West End Ave. ,Totowa
8237	ACCURATE ELASTOMER PRODUCTS	1112 Swenson Blvd ,Elgin
8238	ACCURATE ELECTRIC CONSTRUCTION, INC.	6901 Americana Parkway ,Reynoldsburg
8239	ACCURATE ELECTRIC CONSULTING, INC.	2255 Centre Avenue, Suite 101 ,Bellmore
8240	ACCURATE ELECTRIC INC	Po Box 873425 ,Vancouver
8244	ACCURATE ELECTRONICS INC	Po Box 1654 ,Beaverton
8246	ACCURATE ENERGETIC SYSTEMS, LLC	5891 Highway 230 W ,Mc Ewen
8247	ACCURATE ENGINEERING AND MANUFACTURING, LLC	13569 New Holland St. ,Holland
8248	ACCURATE ENGINES INC.	2840 Dormax St Sw ,Grandville
8249	ACCURATE ENVIRONMENTAL LLC	505 S Lowry St ,Stillwater
8252	ACCURATE FAB, LLC	1340 Page Road ,Aurora
8253	ACCURATE FABRICATION	1728 W. 166th Street ,Gardena
8254	ACCURATE FABRICATION, LLC	2050 Constitution Ave ,Hartford
8255	ACCURATE FAMILY DENTAL	2840 Geer Rd. ,Turlock
8256	ACCURATE FASTENERS, INC.	500 East First Street ,South Boston
8259	ACCURATE FIRESTOP INC	25613 Dollar Street Suite 7 ,Hayward
8261	ACCURATE FORKLIFT INC.	P.O. Box 4860 ,Santa Rosa
8262	ACCURATE FORMING LLC	24 Ames Boulevard ,Hamburg
8263	ACCURATE GAS CONTROL SYSTEMS, INC.	640 Brooker Creek Blvd. ,Oldsmar
8264	ACCURATE GASKET AND STAMPING, INC.	2780 S. Raritan St. ,Englewood
8267	ACCURATE GEAR MANUFACTURING INC.	16 East 73rd Street ,Cincinnati
8268	ACCURATE GLASS, INC.	3214 W Montrose Avenue ,Chicago
8271	ACCURATE HEAT-AIR SERVICES, INC.	120 Grove Street ,Franklin
8272	ACCURATE HOME CARE INC	18600 W. 10 Mile Road Ste 212 ,Southfield
8273	ACCURATE HOME CARE LLC	16201 90th Street Ne ,Otsego
8274	ACCURATE HOME HEALTH CARE, INC.	1104 S. Garfield Avenue Suite B ,Alhambra
8275	ACCURATE IMAGING, INC.	2895 Algoma Boulevard ,Oshkosh
8277	ACCURATE INDUSTRIAL PRODUCTS, INC.	908 Jeffco Executive Drive ,Imperial
8278	ACCURATE INFRASTRUCTURE DATA, INC.	1100 Batavia Farm Road ,Baltimore
8279	ACCURATE INGREDIENTS, INC.	125 Schmitt Blvd ,Farmingdale
8280	ACCURATE INJECTION MOLDS, INC.	22264 Starks Drive ,Clinton Township
8281	ACCURATE INSTRUMENT REPAIR INC	27122 Burbank ,Foothill Ranch
8282	ACCURATE INSURANCE, INC	508 South Locust St ,Glenwood
8283	ACCURATE INVENTORY & CALCULATING SERVICES OF F/A., INC.	7155 SW 47th St. ,Miami
8284	ACCURATE INVENTORY AND CALCULATING SERVICES, INC.	4284 North High Street ,Columbus
8285	ACCURATE INVESTIGATIVE SERVICES	P.O. Box 122 ,Athens
8287	ACCURATE LABEL DESIGNS INC.	3020 Parkway North Drive ,Cumming
8288	ACCURATE LABORATORIES, INC.	1100 SE 66th ,Oklahoma City
8289	ACCURATE LAND SURVEYORS INC	1150 E Atlantic Blvd ,Pompano Beach
8291	ACCURATE LIFT TRUCK, INC	200 Cooper Road ,West Berlin
8292	ACCURATE LINES INC	1315 Wisconsin Ave ,Palm Harbor
8294	ACCURATE LUBRICANTS & METALWORKING FLUIDS, INC.	403 Homestead Avenue ,Dayton
8295	ACCURATE MACHINE CO., INC.	W3081Culbertson Road ,Seymour
8296	ACCURATE MACHINE PRODUCTS CORP	710 West Walnut Street ,Johnson City
8297	ACCURATE MACHINE SERVICES, INC.	5505 International Drive ,Rockford
8298	ACCURATE MAILINGS, INC.	P. O. Box 70A ,San Carlos
8299	ACCURATE MANUFACTURED PRODUCTS	8090 Woodland Dr ,Indianapolis
8300	ACCURATE MARINE ENVIRONMENTAL, INC.	3965 Burtons Point Road ,Portsmouth
8303	ACCURATE MECHANICAL, INC.	3001 River Road ,Chillicothe
8305	ACCURATE METAL FABRICATORS, LLC	2100 E. Orangewood Ave ,Anaheim
8309	ACCURATE METAL PRODUCTS, INC.	8165 W. Tower Ave ,Milwaukee
8310	ACCURATE METAL SAWING SERVICE CO.	8989 Tyler Boulevard ,Mentor
8312	ACCURATE METAL STAMPING,LLC	7124 Belton Street ,Fort Worth
8313	ACCURATE METERING PRODUCTS & SERVICES, LLC	5773 Venice Boulevard ,Los Angeles
8314	ACCURATE MONITORING LLC	1 Garrett Mountain Plaza ,Woodland Park
8316	ACCURATE OPTICAL COMPANY, INC.	31519 Winter Place Parkway ,Salisbury
8318	ACCURATE PAPER BOX COMPANY, INC.	2635 Byington/Solway Road ,Knoxville
8319	ACCURATE PAPER RECYCLING, INC.	5500 E Giddens Street ,Tampa
8321	ACCURATE PERSONNEL LLC	33 S. Roselle Road ,Schaumburg
8322	ACCURATE PEST CONTROL LLC	1161 Curry Road ,Schenectady
8323	ACCURATE PLASTIC PRINTERS, LLC	30 Colfax Avenue ,Clifton
8324	ACCURATE PLASTICS,INC.	18 Morris Place ,Yonkers
8325	ACCURATE PLUMBING, INC.	7595 Fishel Drive South ,Dublin
8326	ACCURATE PRECISION FASTENERS	20 Honeck St. ,Englewood
8327	ACCURATE PRINTING CO., INC.	111 Lock Street ,Nashua
8328	ACCURATE PRINTING INC	2380 Research Ct # 100 ,Woodbridge
8329	ACCURATE PRODUCTS, INC.	4645 N. Ravenswood Ave. ,Chicago
8332	ACCURATE RECOVERY SYSTEMS, INC.	450A Veit Road ,Huntingdon Valley
8333	ACCURATE RECYCLING, INC.	508 E. Baltimore Ave. ,Lansdowne
8335	ACCURATE REFRIGERATION, INC.	6709 Pickard Drive ,Syracuse
8336	ACCURATE RESPIRATORY, INC.	4211 Medical Parkway ,Austin
8337	ACCURATE SAFETY COMPLIANCE, LLC	P.O. Box 721011 ,Norman
8339	ACCURATE SERVICES, INC.	951 Broadway ,Fall River
8342	ACCURATE SOLUTIONS AND DESIGNS, INC.	Po Box 3745 ,Mayaguez
8344	ACCURATE STAFFING, INC.	1328 Starbrook Dr., Ste. D-F ,Charlotte
8346	ACCURATE SURVEYING, INC.	32 Manning Dr ,South Charleston
8348	ACCURATE TEMPERATURE CONTROL	3500 Parkway Center Court ,Orlando
8351	ACCURATE TOOL & DIE CO., INC.	16 Leon Place ,Stamford
8352	ACCURATE TOOL & MANUFACTURING COMPANY, INC.	1108 S. Broadway ,Lexington
8354	ACCURATE TOOL COMPANY, INC.	160 Ridegfield Road ,Newtown Square
8355	ACCURATE TRANSMISSION SPECIALI	4650 S 20th St ,Milwaukee
8358	ACCURATE TUBE BENDING, INC	37770 Timber Street ,Newark
8360	ACCURATE WELDING INC	41301 Production Drive ,Harrison Township
8361	ACCURATE WINDOW AND DOOR INC	3347 North Lombard ,Portland
8362	ACCURATE WIRE, INC.	8 Baldwin Drive ,Branford
8363	ACCURATIME CORPORATION	10627 Ohio Ave. ,Los Angeles
8365	ACCURAY INCORPORATED	1310 Chesapeake Terrace ,Sunnyvale
8366	ACCU-READ, INC.	15715 N Fairview Rd ,Mead
8367	ACCUREC, LLC	2880 North Berkeley Lake Rd., Ste 7 ,Duluth
8368	ACCURECORD, INC.	100 Executive Drive ,Edgewood
8371	ACCUREX MEASUREMENT INC	Po Box 48 ,Swarthmore
8373	ACCURIDE CORPORATION	Po Box 15600 ,Evansville
8374	ACCURIDE ERIE, L.P.	Po Box 15600 ,Evansville
8376	ACCURIS NETWORKS, INC.	1177 Summer St ,Stamford
8379	ACCUROUNDS	15 Doherty Avenue ,Avon
8380	ACCU-ROUTER, INC.	634 Mt View Industrial Dr ,Morrison
8381	ACCURPRESS, INC.	P.O. Box 166 ,Willmar
8383	ACCUSCAN INSTRUMENTS, INC.	5090 Trabue Road ,Columbus
8386	ACCUSEARCH, INC.	2338 West Royal Palm Road, Suite J ,Phoenix
8387	ACCU-SEMBLY, INC.	1835 Huntington Drive ,Duarte
8388	ACCUSERVE INC	20484 Chartwell Center Drive ,Cornelius
8391	ACCUSOURCE, INC.	1240 East Ontario Ave Ste 102-140 ,Corona
8392	ACCUSPORT INTERNATIONAL, INC.	4310 Enterprise Dr Ste C ,Winston Salem
8393	ACCUSTANDARD, INC	125 Market Street ,New Haven
8394	ACCU-SWISS, INC.	544 Armstrong Way ,Oakdale
8397	ACCUTECH COMMUNICATIONS INC	4 Hopestill Brown Rd ,Sudbury
8400	ACCUTECH ENVIRONMENTAL SERVICES, INC.	43 West Front Street ,Keyport
8401	ACCUTECH FILMS, INC.	620 E Hardin St Po Box 115 ,Coldwater
8402	ACCUTECH INSTRUMENTATION, INC.	11101 S. Crown Way, Suite 4 ,Wellington
8403	ACCU-TECH LASER PROCESSING, INC.	550S Pacific Street, #A100 ,San Marcos
8404	ACCUTECH MOLD & MACHINE, INC.	2817 Goshen Road ,Fort Wayne
8405	ACCUTECH OPTICAL INC.	916 Pleasant Street ,Norwood
8406	ACCUTECH PACKAGING, INC.	157 Green Street ,Foxboro
8407	ACCUTECH PLASTIC MOLDINGS, INC.	P.O. Box 24272 ,Dayton
8408	ACCU-TECH PLASTICS, INC.	1353 International Drive ,Eau Claire
8409	ACCUTECH PRODUCTS, INC.	Po Box 753 ,West Point
8410	ACCUTECH SOLUTIONS INC.	1800 Diagonal Road ,Alexandria
8411	ACCUTECH, LLC	Po Box 600 ,Clinton
8414	ACCUTEMP ENGINEERING, INC.	108 School Street ,Watertown
8415	ACCU-TEMP HEATING & AIR	1085 Grand Oaks Drive ,Howell
8416	ACCUTEMP HEATING & COOLING, INC.	805 Jamerson Road ,Marietta
8417	ACCU-TEMP INC	Po Box 1079 ,Mars
8418	ACCUTEMP PRODUCTS INC	8415 N Clinton Park ,Fort Wayne
8419	ACCU-TEMP, INC	46554 Erb Dr ,Macomb
8420	ACCUTEST CORPORATION	2235 Route 130, Bldg B ,Dayton
8421	ACCUTHERM REFRIGERATION, INC.	11264 Monarch Street, Unit A ,Garden Grove
8422	ACCU-THERM, INC.	25 Industrial Dr ,Monroe City
8424	ACCUTITE FASTENERS INC	2449 Gundry Ave ,Signal Hill
8427	ACCUTRAN INC	8 Legion Drive ,Paris
8428	ACCUTRANS INC.	2740 Indiana Ave Ste 100 ,Kenner
8429	ACCUTREND DATA CORPORATION	7860 E Berry Pl Ste 200 ,Greenwood Village
8430	ACCUTREX PRODUCTS, INC.	112 Southpointe Blvd. ,Canonsburg
8431	ACCUTRON, INC.	149 Addison Road ,Windsor
8433	ACCUTRONICS, INC.	10 Elizabeth Drive ,Chelmsford
8434	ACCU-TUBE CORPORATION	2960 South Umatilla Street ,Englewood
8435	ACCUTURN CORPORATION	6510 Box Springs Blvd #A ,Riverside
8436	ACCUTURN PRECISION MFG., INC.	63 Bermar Pk. ,Rochester
8437	ACCU-TURN, INC.	C/O 555 Main Street, Suite 300 ,Racine
8438	ACCUTYPE MEDICAL SERVICES	10300 West 103rd Street ,Overland Park
8439	ACCUVAL ASSOCIATES, INCORPORATED	10218 N. Port Washington Road ,Mequon
8440	ACCUVANT, INC.	1125 17th Street Suite 1700 ,Denver
8443	ACCUVENT AIR, LLC	P.O. Box 1249 ,Tomball
8445	ACCUVISION EYE M.D. CAREGROUP, P.C.	100 Church Road ,Ardmore
8446	ACCUVOICE, INC.	343 Wainwright Dr. Ste 2E ,Northbrook
8447	ACCUWEATHER, INC.	385 Science Park Road ,State College
8448	ACCUWEB, INC.	P.O. Box 7816 ,Madison
8449	ACCUWELD, INC.	845 Buschong ,Houston
8451	ACCUWRITE FORMS AND SYSTEMS, INC.	265 Bahia Avenue ,Hershey
8452	ACCUZIP, INC.	3216 El Camino Real ,Atascadero
8453	ACD CUSTOM GRANITE INC	1304 S Roller Road ,Ocean
8455	ACD SYSTEMS OF AMERICA, INC	P.O.Box 94112 ,Seattle
8459	ACDI / VOCA	50 F Street NW Suite 1075 ,Washington
8460	ACDS, INC.	4 Fern Place ,Plainview
8461	ACE - PUERTO RICO	436 Walnut Street ,Philadelphia
8462	ACE & A HEATING & AIR CONDITION	2768 East College Avenue ,Decatur
8463	ACE & ACME INC	113 Adams St ,Medfield
8467	ACE ACADEMIC TUTORING	219-44 Jamaica Ave ,Queens Village
8468	ACE AIR CONDITIONING & HEATING SERVICE, INC.	3171-A Spring Street ,Fairfax
8471	ACE AIR, INC.	5157 E. 64th Street, Suite B ,Indianapolis
8472	ACE ALARMS, INC.	350 Wilson Pike Cir Ste 300 ,Brentwood
8473	ACE ALUMINUM	342 Route 9N, Ste 1 ,Manalapan
8474	ACE AND SON MOVING PICTURE COM	134 W 26th St Rm 603 ,New York
8477	ACE ANSWERING SERVICE, INC.	270 Walker Drive, Ste. 104 ,State College
8478	ACE APPLIANCE PARTS, INC.	3724 Airport Hwy. ,Toledo
8480	ACE ASPHALT OF ARIZONA, INC.	3030 South 7th Street ,Phoenix
8482	ACE AUTO BODY, INC.	911 Park Street ,Hartford
8483	ACE AUTO GLASS, INC.	2250 Kamehameha Highway ,Honolulu
8485	ACE AUTO REPAIR & TIRE CENTER, INC.	2560 San Ramon Valley Blvd. ,San Ramon
8486	ACE AUTO WRECKING, INC.	742 3rd Avenue ,Longview
8489	ACE AVIATION INC	289 E Perimeter Rd Ste A ,Renton
8491	ACE BANNER AND FLAG, INC.	107 West 27th Street ,New York
8494	ACE BINDERY CORP.	2323 Main Street ,Pittsburgh
8495	ACE BINDING COMPANY, INC.	3031 James St ,Baltimore
8496	ACE BIZ SERVICES, INC.	6713 Palmtree Ct ,Fair Oak
8497	ACE BLUEPRINTING, INC.	5144 NW 12Th Ave ,Fort Lauderdale
8500	ACE BONE, INC.	Ml Management Associates, Inc. ,New York
8503	ACE CALENDERING ENTERPRISES, INC.	1311 S. Wanamaker Ave ,Ontario
8504	ACE CANVAS & TENT COMPANY, INC.	5644 West Fort Street ,Detroit
8505	ACE CANVAS & TENT CORP	85-5 Air Park Drive ,Ronkonkoma
8506	ACE CAPITAL, LLC	2611 Highway 411 South ,Maryville
8507	ACE CARDIOVASCULAR ASSOCIATES	6410 Few Star Court ,Columbia
8508	ACE CARPENTRY, INC	10361 Residency Rd ,Manassas
8509	ACE CASH EXPRESS, INC.	1231 Greenway Drive ,Irving
8511	ACE CHECK CASHING INC	9015 Town Center Parkway #102 ,Bradenton
8512	ACE CHEMICAL PRODUCTS, INC.	8415 North 87th Street ,Milwaukee
8513	ACE CLEARWATER ENTERPRISES, INC.	19815 Magellan Drive ,Torrance
8514	ACE COFFEE BAR, INC.	601 E. Lake Street ,Streamwood
8515	ACE COMMUNITY CREDIT UNION	212 E Lincoln Way ,Ames
8516	ACE COMPANY, INC.	4095 Gekeler Lane ,Boise
8517	ACE COMPRESSOR PARTS & SERVICE, INC.	1177 Hwy. 45 N ,Mayfield
8518	ACE CONSTRUCTION COMPANY, INC.	1636 Popps Ferry Road #102 ,Biloxi
8520	ACE CONTRACTING ENTERPRISES IN	Po Box 896 ,Safety Harbor
8521	ACE CONTRACTING, INC.	1990 Coney Island Avenue ,Brooklyn
8523	ACE CONTROLS & INSTRUMENTATION	601 Upland Ave Ste 219 ,Upland
8524	ACE CONTROLS, INC.	23435 Industrial Park Dr. ,Farmington Hills
8527	ACE DENTAL CARE INC	4805 W Thomas Rd C ,Phoenix
8528	ACE DESIGNS, INC.	320 George Patterson Blvd ,Briston
8529	ACE DIAMOND & JEWELRY BROKERS, INC.	7110 Market Street ,Boardman
8530	ACE DISPOSAL INC	Po Box 2608 ,Salt Lake City
8531	ACE DISPOSAL, INC.	P.O. Box 2608 ,Salt Lake City
8532	ACE DORAN HAULING & RIGGING CO.	1601 Blue Rock ,Cincinnati
8533	ACE DRILL CORPORATION	2600 Maumee ,Adrian
8534	ACE DRUG INC	2131 Hollywood Blvd, Ste 104 ,Hollywood
8535	ACE ELASTOMERS	320 Bryant Blvd ,Rock Hill
8536	ACE ELECTRIC & LIGHTING	P.O. Box 166 ,Detroit Lakes
8537	ACE ELECTRIC COMPANY INC.	5608 Greendale Rd ,Richmond
8538	ACE ELECTRIC CONSTRUCTION INC	5704 Michael Court ,Rolling Meadows
8539	ACE ELECTRIC INC	Po Box 100 ,Hills
8540	ACE ELECTRIC, INC.	4387 Inner Perimeter Rd ,Valdosta
8543	ACE ELECTRICAL CONTRACTORS, INC.	5465 Highway 169 North ,Plymouth
8546	ACE ENDICO CORP.	80 International Blvd ,Brewster
8547	ACE ENGINEERING, INC.	1880 Wright Ave. ,La Verne
8548	ACE ENTERPRISES INCORPORATED	840 N. Third Street Suite 201 ,Milwaukee
8550	ACE ETHANOL	815 W. Maple Street ,Stanley
8551	ACE EXPEDITERS, INC.	2251 Lynx Lane, Suite 7 ,Orlando
8552	ACE EXPRESS, INC.	P.O. Box 10415 ,Glendale
8553	ACE EXTERMINATING CO	1920 Losantiville ,Cincinnati
8554	ACE FAB & WELDING LLC	2468 South 1620 West ,Ogden
8555	ACE FARM, INC	Po Box 447 ,Monroe
8556	ACE FENCE	727 North Glendora Avenue ,La Puente
8558	ACE FENCE & DECK, LLC	4459 Carroll Southern Rd ,Carroll
8559	ACE FILMS CORPORATION	280 S. Beverly Drive ,Beverly Hills
8561	ACE FIRE EQUIPMENT, INC	10705 Metric Blvd ,Austin
8562	ACE FIRE EXTINGUISHER SERVICE, INC.	5117 College Avenue ,College Park
8563	ACE FIRE SYSTEMS, INC.	2620 Western Ave. ,Las Vegas
8564	ACE FLOORING LLC	29 Sunset Road ,Scarborough
8565	ACE FLOORING SOLUTIONS, LLC	4850 Whirlwind Drive ,San Antonio
8566	ACE FORMS OF KANSAS, INC.	2900 North Rotary Terrace ,Pittsburg
8567	ACE FURNITURE & TV, INC.	2440 N 9th Street ,Lincoln
8568	ACE GALVANIZING, INC.	429 South 96th ,Seattle
8570	ACE GLASS INCORPORATED	1430 Northwest Boulevard ,Vineland
8572	ACE HARDWARE & BUILDING CENTER INC	P O Box 1280 ,Blue Ridge
8574	ACE HARDWARE AND LUMBER OF WYOMING, INC	2610 South Douglas Hwy ,Gillette
8577	ACE HARDWARE HOME CENTER OF ROUND LAKE, INC	659 W. Railroad Ave. ,Round Lake
8578	ACE HARDWARE HOME CENTERS, INC.	400 N. Center Street ,Rock Springs
8579	ACE HARDWARE OF CALUMET INC	334 5th St ,Calumet
8580	ACE HARDWARE OF CHATTANOOGA, INC	4921 Highway 58 ,Chattanooga
8583	ACE HARDWARE OF INVERNESS, INC	465 East Highlands Boulevard ,Inverness
8584	ACE HARDWARE OF NORTH WEBSTER INC	733 South Main Street ,North Webster
8588	ACE HOMECARE, LLC	9210 King Palm Drive, Suite 112 ,Tampa
8590	ACE HOTEL GROUP	7 W 30th Street ,New York
8591	ACE HOTEL NEW YORK	20 West 29th Street ,New York
8592	ACE HYDRAULIC SALES & SERVICE, INC.	P.O. Box 5097 ,Bakersfield
8594	ACE IMAGEWEAR	4120 Truman Road ,Kansas City
8595	ACE INA HOLDINGS INC.	436 Walnut Street ,Philadelphia
8596	ACE INA HOLDINGS, INC.	436 Walnut Street ,Philadelphia
8597	ACE INC	328 Storck Rd ,Fredericksburg
8601	ACE INFO SOLUTIONS, INC.	11490 Commerce Park Dr ,Reston
8602	ACE INSPECTION, LLC	152 Highway 133 Spur ,Crossett
8605	ACE IRON & METAL COMPANY	Po Box 2666 ,Kalamazoo
8606	ACE IRON & STEEL CORP	5118 North 124th Street ,Milwaukee
8607	ACE IRON INC	4322 Campina Place ,Pleasanton
8608	ACE IT TECHNOLOGIES	919 Calle Amanecer #N ,San Clemente
8609	ACE JEWELRY & LOAN	429 W. Entiat Ave. ,Kennewick
8611	ACE KITCHENS, INC.	50 Route 10 ,East Hanover
8612	ACE LAND SURVEYING LLC	Po Box 23172 ,Honolulu
8613	ACE LIPSON, M.D., P.C.	1120 19th Street, NW, Suite 200 ,Washington
8617	ACE MANUFACTURING INDUSTRIES	2325 Pamperin Road ,Green Bay
8618	ACE MARINE RIGGING & SUPPLY, INC.	600 Arendell St ,Morehead City
8619	ACE MARKETING & PROMOTIONS, INC.	600 Old Country Road, Suite 541 ,Garden City
8620	ACE MARKING DEVICES CORP.	3308 S. Dixie Highway ,W. Palm Beach
8621	ACE MART RESTAURANT SUPPLY CO.	2653 Austin Hwy ,San Antonio
8624	ACE MEDICAL GROUP, PLLC	744 Arden Lane, Ste 100 ,Rock Hill
8625	ACE MEDICAL SERVICES, INC.	90 Madison St., Suite 600 ,Worcester
8626	ACE MEDICAL, INC.	94-910 Moloalo Street ,Waipahu
8627	ACE MERIT, LLC	30 Garfield Pl ,Cincinnati
8628	ACE METAL CRAFTS CO.	484 Thomas Dr. ,Bensenville
8629	ACE METAL KRAFT CO. INC.	815 Mcbride Avenue ,Woodland Park
8630	ACE MOTOR ACCEPTANCE CORPORATION	111 Cupped Oak Dr Ste F ,Mattews
8631	ACE MOTOR SALES, INC.	487 Mantua Ave Rte 45 ,Woodbury
8632	ACE MOVING	8 Headley Place ,Fallsington
8633	ACE MOVING & STORAGE COMPANY, INC.	2400 34th Street ,Gulfport
8635	ACE ON THE LAKE	600 Paul Bunyan Drive Sw ,Bemidji
8638	ACE PAPER TUBE CORPORATION	4918 Denison Avenue ,Cleveland
8639	ACE PARK RIDGE, INC.	700 N Northwest Hwy ,Park Ridge
8643	ACE PAVING CO., INC.	P.O. Box 4520 ,Bremerton
8644	ACE PAYROLL SERVICES INC.	1860 Walt Whitman Road, Suite 600 ,Melville
8645	ACE PHYSICAL THERAPY & SPORTS MEDIC	2841 Hartland Rd, #401B ,Falls Church
8646	ACE PLASTICS, INC.	2112 Thrift Road ,Charlotte
8647	ACE PLUMBING & ROOTER, INC	2200 Jerrold Avenue ,San Francisco
8648	ACE PRECISION INDUSTRIES, INC.	925 Moe Dr. ,Akron
8649	ACE PRECISION INTERNATIONAL	Po Box 693 ,Marshalltown
8652	ACE PRODUCT MANAGEMENT GROUP, INC.	12801 West Silver Spring Road ,Butler
8653	ACE PRODUCTION TECHNOLOGIES, INC.	3010 N First St ,Spokane Valley
8654	ACE PRODUCTIONS INC	297 NE 59th Terr ,Miami
8656	ACE PUMP CORP	Po Box 13187 ,Memphis
8657	ACE RADIATOR, INC.	2319 W. Coliseum Blvd. ,Fort Wayne
8658	ACE RADON CORPORATION	7755 S Hickory Pl ,Littleton
8662	ACE RENTAL CENTER	502 Winchester St ,Keene
8663	ACE RENTS, INC.	70 South State Street ,Lindon
8664	ACE REPROGRAPHIC SERVICE INC.	74 E 30th St ,Paterson
8665	ACE RESTORATION & WATERPROOFING, INC.	620 E Walnut Ave ,Fullerton
8666	ACE RESTORATION CO.	557 Main Street ,Medford
8667	ACE ROBBINS, INC.	4022 Sr 6 East, Po Box 477 ,Tunkhannock
8668	ACE SALES CORP	P.O. Box 561126 ,Miami
8670	ACE SCREEN PRINTING	1800 East Lincoln Ave. #1C ,Fort Collins
8672	ACE SERVICES, INC.	1443 O. B. J. Road Po Box 460 ,Dunn
8673	ACE SIGNS, INC.	477 Cottage Street ,Springfield
8674	ACE SOLID WASTE, INC.	6601 Mckinley St NW ,Ramsey
8675	ACE SPECIALTY CO., INC.	695 Ensminger Road ,Tonawanda
8676	ACE SPEECH & LANGUAGE CLINIC, LLC	1133 Rankin Street, Suite 221 ,St. Paul
8677	ACE SPRINKLER, INC.	7032 North Dixie Drive ,Dayton
8678	ACE ST. LOUIS, LLC	2411 Callaway Park Rd ,Defiance
8682	ACE SURGICAL SUPPLY CO., INC.	1034 Pearl Street ,Brockton
8685	ACE TECH INC.	3271 Five Points Drive Ste 200 ,Auburn Hills
8686	ACE TECHNOLOGIES, INC DBA NUTMEG TECHNOLOGIES	279 Nutmeg Road South ,South Windsor
8687	ACE TECHNOLOGIES, LLC	7301 E. 90th Street, Suite 103 ,Indianapolis
8688	ACE TELEPHONE ASSOCIATION	207 E Cedar ,Houston
8689	ACE TELEPHONE COMPANY OF MICHIGAN, INC.	207 E. Cedar Street ,Houston
8690	ACE TEMPERATURE CONTROL, INC	30 Ward Street ,Worcester
8691	ACE THEATRICAL GROUP, LLC	208 East Houston Street ,San Antonio
8694	ACE TIRE AND AUTO SERVICE, INC	1414 38th Road ,Peru
8696	ACE TOOL MANUFACTURING CO, INC.	532 Mulberry Street ,Newark
8697	ACE TRANSFER COMPANY, INC.	1017 Hometown Street ,Springfield
8698	ACE TRIM CARPENTRY, INC	9441 Center Point Lane ,Manassas
8700	ACE TRUCK BODY, INC.	1600 Thrailkill Road ,Grove City
8701	ACE TRUCK EQUIPMENT COMPANY	1130 Newark Road ,Zanesville
8704	ACE TUBE BENDING	14 Journey ,Aliso Viejo
8707	ACE VENDING SERVICE, INC.	3417 Roger B. Chaffee Drive, S.E. ,Grand Rapids
8708	ACE WALCO TERMITE & PEST CONTROL SERVICE	138 East Edgar Rd ,Linden
8709	ACE WASTE SYSTEMS, INC.	19971 Womack Road ,Baton Rouge
8710	ACE WELDING	1325 S. Coast Hwy ,Oceanside
8713	ACE WIRE SPRING & FORM CO., INC.	1105 Thompson Avenue ,Mckees Rocks
8715	ACE WORLD COMPANIES, INC.	10200 Jacksboro Hwy ,Fort Worth
8716	ACE WORLDWIDE MOVING AND STORAGE	1900 E College Ave ,Cudahy
8717	ACE/AVANT CONCRETE CONSTRUCTION COMPANY, INC.	109 Seminole Drive ,Archdale
8718	ACEA BIOSCIENCES INC	6779 Mesa Ridge Road #100 ,San Diego
8719	ACEBRIGHT, INC.	13-15 Deangelo Dr., ,Bedford
8720	ACEC OF COLORADO	800 Grant St #100 ,Denver
8722	ACEC TEXAS	1001 Congress Ave Suite 200 ,Austin
8723	ACEC WASHINGTON	11061 NE 2nd St #250 ,Bellevue
8724	ACECAD SOFTWARE, INC.	825 Springdale Drive ,Exton
8725	ACECO MACHINE WORKS, INC.	4419 Federal Way ,Boise
8726	ACECO MACHINE,INC.	104 West Lantrip Street ,Kilgore
8727	ACECO, LLC	901 Stoddard Place ,Silver Spring
8728	ACECOM, INC.- SAN ANTONIO	14833 Bulverde Road ,San Antonio
8733	ACELERATED TRANSPORT & LOGISTI	111 E. Railroad Ave. ,Burns
8734	ACELERO LEARNING CAMDEN, INC.	63 West 125th Street ,New York
8735	ACELERO LEARNING MONMOUTH COUNTY HEAD START	63 West 125th Street ,Harlem
8736	ACELERO LEARNING, INC.	63 West 125th Street ,New York
8737	ACELLA CONSTRUCTION CORP.	62 Accord Park Dr ,Norwell
8738	ACELLA PHARMACEUTICALS, LLC	11675 Great Oaks Way, Suite 120 ,Alpharetta
8740	ACELO SOLUTIONS INC	22375 Broderick Dr Ste 125 ,Sterling
8741	ACELRX PHARMACEUTICALS, INC.	351 Galveston Dr ,Redwood City
8743	ACEMEDIA MARKETING GROUP, INC.	2120 Colorado Ave. ,Santa Monica
8747	ACENT LABORATORIES, LLC	3 Scott Lane ,Manorville
8748	ACENTEC INC	17815 Sky Park Cir Ste J ,Irvine
8749	ACENTECH INC.	33 Moulton Street ,Cambridge
8750	ACENTIA LLC	3130 Fairview Park Dr Ste 800 ,Falls Church
8753	ACENTRIA, INC.	4634 Gulf Starr Drive ,Destin
8754	ACENTRON TECHNOLOGIES, INC.	12028 Olympic Club Drive ,Charlotte
8755	ACENTRON, INC.	12028 Olympic Club Dr ,Charlotte
8756	ACEPEX MANAGEMENT CORPORATION	887 Mitten Road ,Burlingame
8757	ACEQ INVESTMENT, INC.	7120 Blue Hill Drive ,San Jose
8759	ACER AMERICA CORPORATION	333 West San Carlos St., Suite 1500 ,San Jose
8764	ACER LANDSCAPE SERVICES, INC.	P.O. Box 92485 ,Nashville
8765	ACERO HEALTH TECHNOLOGIES, INC.	8241 Backlick Rd. ,Lorton
8766	ACERO PRECISION	5149 West Chester Pike ,Newtown Square
8767	ACEROS DE AMERICA, INC.	Po Box 363273 ,San Juan
8768	ACERTUS CONSULTING GROUP, LLC	14817 W 95th St ,Lenexa
8769	ACES	15305 Doe Hill Court ,Woodbine
8770	ACES RISK MANAGEMENT CORP	1000 W Mcnab Rd ,Pompano Beach
8773	ACES, LLC	Po Box 2009 ,Rocky Mount
8774	ACESS DENTAL CARE PC	119 W South St ,Groton
8775	ACESS TO JUSTICE FOUNDATION	535 West Second Street ,Lexington
8776	ACESSE CORPORATION	100 Washington Avenue South ,Minneapolis
8777	ACETEC	6540 Lusk Blvd. No. 146 ,San Diego
8778	ACE-TECH AUTO CENTER INC	4334 W Pico Blvd ,Los Angeles
8779	ACETERRUS HOLDINGS, LLC	685 Parker Lakes Rd ,Bigfork
8780	ACE-TEX ENTERPRISES, LLC	7601 Central Avenue ,Detroit
8781	ACETO CORPORATION	4 Tri Harbor Ct ,Port Washington
8782	ACETO INC	7297 Hwy 15-501N ,Carthage
8783	ACETO, BONNER & PRAGER, P.C.	One Liberty Square ,Boston
8785	ACETYLENE SUPPLY CO INC	475 Route 9 South ,Woodbridge
8786	ACETYLON PHARMACEUTICALS INC	70 Fargo St Unit 205 ,Boston
8787	ACEVEDO CONSULTING, INCORPORATED	2605 West Atlantic Avenue ,Delray Beach
8791	ACEWARE SYSTEMS, INC.	7480 Dyer Road ,Manhattan
8792	ACF COMPONENTS & FASTENERS INC	31012 Huntwood Ave ,Hayward
8795	ACF INDUSTRIES, LLC	101 Clark Street ,St. Charles
8796	ACF INSURANCE SERVICES, INC.	1545 Hwy 70 West ,Garner
8797	ACF LLC	2020 7th St W ,Saint Paul
8801	ACFM INC	614 Carolina Ave. S. ,Statesville
8806	ACG BOSTON, INC.	301 Edgewater Place, Ste. 214 ,Wakefield
8808	ACG MEDICAL SUPPLY, INC.	3502 Lakeview Parkway ,Rowlett
8809	ACG NORTH AMERICA, INC.	120 Halcyon Drive ,Bristol
8810	ACG OF BOSTON LLC	420 Boylston Street ,Boston
8813	ACG TECHNOLOGIES, INC.	22521 Avenida Empresa, Suite 101 ,Rancho Santa Margarita
8814	ACG TEXAS HOLDINGS, LLC	2701 E. George Bush Highway ,Plano
8815	ACG TEXAS, LP	1778 North Plano Road, Suite 100 ,Richardson
8817	ACGI SHIPPING INC.	16400 Southcenter Pkwy ,Seattle
8818	ACGT, INC	35 Waltz Drive ,Wheeling
8819	ACH CHILD AND FAMILY SERVICES	1424 Summit Ave ,Fort Worth
8820	ACH FOAM TECHNOLOGIES, LLC	5250 North Sherman Street ,Denver
8821	ACH FOOD COMPANIES, INC.	7171 Goodlett Farms Parkway ,Memphis
8822	ACH HOMES, LLC	9675 SE 36th Street, Suite 105 ,Mercer Island
8824	ACH OF AMERICA, LLC	777 E Altamonte Dr ,Altamonte Springs
8828	ACHAOGEN INC.	7000 Shoreline Court, Suite 371 ,South San Francisco
8830	ACHARYA & SHARMA MEDICAL CORPORATION	1240 East Chapman Avenue ,Orange
8831	ACHARYA PLASTIC SURGERY CENTER, PLC	5121 N. Central Avenue ,Phoenix
8832	ACHATES POWER LLC	4060 Sorrento Valley Blvd ,San Diego
8837	ACHBERGER ORTHODONTICS	722 S. Sandusky Avenue ,Bucyrus
8838	ACHEIVEMENT THERAPY SERVICES, INC.	32531 N. Scottsdale Rd.,Ste 105-162 ,Scottsdale
8839	ACHELOUS PARTNERS, LLC	2429 Castilla Isle ,Fort Lauderdale
8840	ACHELPOHL ROOFING & SHEETMETAL, INC.	P.O. Box 206 ,Little Mountain
8841	ACHEN CONTRACTORS, L.L.C.	550 South 79th Street ,Chandler
8842	ACHEN-GARDNER	550 South 79th Street ,Chandler
8843	ACHEN-GARDNER CONSTRUCTION, LLC	550 South 79th Street ,Chandler
8844	ACHEN-GARDNER ENGINEERING, L.L.C.	550 South 79th Street ,Chandler
8848	ACHIEVA CREDIT UNION	1659 Virginia Street ,Dunedin
8849	ACHIEVA RESOURCES CORPORATION, INC.	Po Box 1252 ,Richmond
8850	ACHIEVA WELFARE BENEFIT PLAN	711 Bingham Street ,Pittsburgh
8851	ACHIEVE BUILDS CONFIDENCE INC	5277 W Paseo De Las Colinas ,Tucson
8852	ACHIEVE COMFORT MEDICAL EQUIPMENT & SUPPLY, INC.	370 S. Fairfax Ave. ,Los Angeles
8855	ACHIEVE FINANCIAL CREDIT UNION	P.O. Box 7030 ,Berlin
8858	ACHIEVE HUMAN SERVICES, INC.	3250A E 40th St ,Yuma
8860	ACHIEVE PHYSICAL THERAPY AND FITNESS, LLC	1940 SW Boulevard ,Vineland
8862	ACHIEVE REHAB, INC.	170 Lake Street ,Liberty
8863	ACHIEVE RENEWABLE	100 Cummings Center ,Beverly
8866	ACHIEVE SOLUTIONS, INC.	106 S Holmen Dr. Suite 2 ,Holmen
8867	ACHIEVE SPEECH & LANGUAGE	Achieve Speech Language ,Humble
8868	ACHIEVE, INC.	1400 16th Street, NW, Suite 510 ,Washington
8869	ACHIEVE-1, LLC	4501 Highwoods Parkway, Suite 460 ,Glen Allen
8870	ACHIEVE3000, INC.	1985 Cedar Bridge Ave. ,Lakewood
8872	ACHIEVEIT INC	Po Box 185 ,Corrales
8873	ACHIEVEIT, INC.	7399 Brandshire Lane ,Dublin
8875	ACHIEVEMENT AND REHABILITATION CENTERS INC	10250 NW 53 St ,Sunrise
8877	ACHIEVEMENT CENTER FOR CHILDREN	4255 Northfield Road ,Highland Hills
8878	ACHIEVEMENT CENTER, INC.	2420 W 23rd St ,Erie
8881	ACHIEVEMENT INCENTIVES & MEETINGS CORP.	64 River Road ,East Hanover
8883	ACHIEVEMENT PREPARATORY ACADEMY	908 Wahler Pl Se ,Washington
8884	ACHIEVEMENT PRODUCTS INC	8525 Westland West Blvd ,Houston
8885	ACHIEVEMENT REHABILITATION THR	3424 S Winding Path ,Inverness
8886	ACHIEVEMENT THERAPY	7 Mary Pitkin Path ,Shoreham
8888	ACHIEVEMINNEAPOLIS	111 3rd Ave S Ste 5 ,Minneapolis
8889	ACHIEVERS LLC	23 Geary Street, Suite 600 ,San Francisco
8890	ACHIEVING BETTER CONTROL INC	714 N Bethlehem Pike Ste 300 ,Lower Gwynedd
8892	ACHIEVING THE DREAM, INC.	8403 Colesville Road, Suite 450 ,Silver Spring
8893	ACHILLES AEROSPACE	2100 Enterprise Pkwy ,Twinsburg
8894	ACHILLES FOOT & ANKLE CTR, INC.	7660 E Parham Rd Ste 104A ,Henrico
8895	ACHILLES FOOT AND ANKLE ASSOCIATES, PA	1145 Beacon Ave., Suite B ,Manahawkin
8896	ACHILLES H R GROUP INC	12777 Jones Rd Ste 250 ,Houston
8899	ACHILLES USA, INC.	1407 80th Street Sw ,Everett
8900	ACHILLES, INC.	1490 S. Cherrybell ,Tucson
8901	ACHILLION PHARMACEUTICALS, INC.	300 George Street ,New Haven
8902	ACHIM IMPORTING CO., INC.	58 Second Avenue ,Brooklyn
8904	ACHORNS PHARMACY, INC.	5 Mohawk Trail ,Katonah
8907	ACHRONIX SEMICONDUCTOR CORPORATI	2953 Bunker Hill Lane ,Santa Clara
8912	ACI CAPITAL CO LLC	666 Third Avenue ,New York
8914	ACI COMMUNICATIONS, INC.	23307 66th Ave. South ,Kent
8915	ACI CONST. CO., INC	2959 S. Us 23 ,Alavada
8917	ACI CORK USA, INC.	2870 Cordelia Rd., Ste. 150 ,Fairfield
8918	ACI DEVELOPMENT CORPORATION	13136 Wexford Hollow Rd N ,Jacksonville
8920	ACI FINANCIAL, INC.	2662 Holcomb Bridge Road, Suite 314 ,Alpharetta
8923	ACI GROUP, LLC	1001 Mopac Circle, Suite 100 ,Austin
8924	ACI HEARING & BALANCE CENTER, INC.	315 South College Road, Suite 100 ,Lafayette
8925	ACI INDUSTRIES, LTD. L.P.	970 Pittsburgh Dr ,Delaware
8926	ACI INTERNATIONAL	844 Moraga Drive ,Los Angeles
8929	ACI MERCHANT SYSTEMS, LLC	Po Box 69 ,Langhorne
8933	ACI PARTS WAREHOUSING, INC.	330 32nd Street Se ,Wyoming
8938	ACI PRINTING SERVICES, INC.	1426 Aviation Blvd., Suite102 ,Redondo Beach
8939	ACI SERVICES, INC	125 Steubenville Avenue ,Cambridge
8940	ACI SUPPORT SPECIALIST, INC.	1027 Highway 70 West ,Garner
8941	ACI TECHNOLOGIES, INC.	One International Plaza, Suite 600 ,Philadelphia
8942	ACI TECHNOLOGY INC.	928 Benicia Avenue ,Sunnyvale
8943	ACI VEGAS	4463 Seneca Dr ,Okemos
8944	ACI WORLDWIDE CORP	6060 Coventry Drive ,Elkhorn
8945	ACI WORLDWIDE, INC.	6060 Coventry Drive ,Elkhorn
8946	ACI, INC.	175 W. Orangethorpe Avenue ,Placentia
8949	ACI, LTD.	931 Short St. ,Eau Claire
8958	ACIES GROUP, LLC	3 Spielman Road ,Fairfield
8960	ACIG INSURANCE COMPANY	2600 North Central Expressway ,Richardson
8961	ACINET COM INC	21621 Nordoff St ,Chatsworth
8962	ACIONYX INC.	20195 Stevens Creek ,Cupertino
8963	ACIPCO FEDERAL CREDIT UNION	Po Box 2727 ,Birmingham
8966	ACISION LLC	6404 International Parkway ,Plano
8967	ACIST MEDICAL SYSTEMS, INC.	7905 Fuller Road ,Eden Prairie
8968	ACISTEK CORPORATION	25279 Justice Dr ,Chantilly
8969	ACIUS CONSULTING GROUP, LLP	2591 Dallas Parkway ,Frisco
8970	ACK ACK NURSERY CO.	P.O. Box 2467 ,Loves Park
8971	ACK ASSET MANAGEMENT LLC	2 Overhill Road Suite 400 ,Scarsdale
8974	ACK RADIO SUPPLY COMPANY OF GEORGIA	554 Deering Road, NW ,Atlanta
8975	ACKCO, INC.	1616 E Indian School Rd Ste 440 ,Phoenix
8976	ACKER & JABLOW FABRICS, LTD.	535 8th Ave Fl 5 ,New York
8977	ACKER & SONS, INC.	10516 Summit Avenue ,Kensington
8980	ACKER DRILL CO., INC.	710 Shady Lane Road ,Chinchilla
8981	ACKER ELECTRIC COMPANY INC	P. O. Box 157 ,Anniston
8982	ACKER ENTERPRISES CORPORATION	1574 Coburg Rd ,Eugene
8987	ACKERLY BROWN LLP	782 Bantam Road ,Bantam
8989	ACKERMAN & ACKERMAN, P.C.	100 W. Long Lake, Suite 210 ,Bloomfield Hills
8993	ACKERMAN BROTHERS, INC.	200 South Linn Street ,Bay City
8994	ACKERMAN BROWN, PLLC	2101 L Street, NW ,Washington
8995	ACKERMAN ENGINEERING INC	17542 W 59th Ave Ste A ,Golden
8996	ACKERMAN HEATING & AIR	631 North Main Street ,Colfax
8999	ACKERMAN LAW OFFICE, P.C.	1201 S 6th St ,Springfield
9000	ACKERMAN LINK AND SARTORY PA	777 South Flagler Drive ,West Palm Beach
9001	ACKERMAN MARKETING, INC.	4910 S Gera Rd ,Frankenmuth
9004	ACKERMAN OIL CO. INC.	Po Box 806 ,Jasper
9005	ACKERMAN PLUMBING INC	2011 Whitfield Park Loop ,Sarasota
9006	ACKERMAN SECURITY SYSTEMS	1346 Oakbrook Drive Suite 175 ,Norcross
9007	ACKERMAN, LEVINE, CULLEN, BRICKMAN & LIMMER, LLP.	1010 Northern Blvd., Suite 400 ,Great Neck
9008	ACKERMAN, MCQUEEN, INC.	1601 N.W. Expressway, Suite 1100 ,Oklahoma City
9010	ACKERMANN & TILAJEF PC	1180 South Beverly Drive ,Los Angeles
9011	ACKERMANN PR INC.	1111 Northshore Drive Suite N-400 ,Knoxville
9012	ACKERMAN-PRACTICON, INC.	801 E. Charleston Road ,Palo Alto
9013	ACKERSON & YANN PLLC	401 W. Main St., Ste. 1200 ,Louisville
9014	ACKERSON KAUFFMAN FEX, PC	1701 K Street NW, Suite 1050 ,Washington
9015	ACKERSON VANDERHORST EYECARE CENTER IN.C	4555 Cemetery Road ,Hilliard
9016	ACKERSON-STEVENS, INC.	P.O. Box 120 ,Ware Shoals
9018	ACKILA, INC.	900 W. 17th Street, Suite B ,Santa Ana
9019	ACKLAM CONSTRUCTION COMPANY, LTD.	18932 State Highway 6 South ,College Station
9020	ACKLAND SPORTS MEDICINE, INC.	125 Parker Hill Avenue ,Boston
9022	ACKLEY REALTY, INC.	3264 Greenwald Way N ,Kissimmee
9024	ACKLEY, KOPECKY, & KINGERY, LLP	4056 Glass Road Ne ,Cedar Rapids
9025	ACKMAN BROS LANDSCAPING INC	1930 Silver Star Rd ,Orlando
9026	ACKMAN GLASS AND MIRROR CO., INC.	202 Elkhorn Road ,Williams Bay
9029	ACKMANN & DICKENSON, INC.	701 N Third Street Suite 108 ,Minneapolis
9030	ACKRE LAW FIRM, PLLP	Po Box 685 ,Cando
9032	ACLAIRO PHARMACEUTICAL DEVELOPMENT GROUP, INC.	1950 Old Gallows Road, Suite 300 ,Vienna
9033	ACLARA SOFTWARE INC.	C/O Esco Technologies Inc. ,Saint Louis
9035	ACLARO SOFTWORKS USA, INC.	11000 Richmond Avenue, Suite 180 ,Houston
9037	ACLD, INC.	807 South Oyster Bay Road ,Bethpage
9038	ACLOCHE LLC	1800 Watermark Drive Ste 430 ,Columbus
9039	ACLR, LLC	38705 Seven Mile Rd ,Livonia
9040	ACLS DIRECT LLC	108 Metropolitan Park Dr ,Liverpool
9044	ACM AVIATION, LLC	1162 Aviation Avenue ,San Jose
9045	ACM CAPITAL PARTNERS, LLC	200 South Biscayne Blvd., 7th Floor ,Miami
9046	ACM CARES, INC.	10214 Green Moss Drive S. ,Cordova
9050	ACM HEALTH TECHNOLOGIES, INC.	407 Wekiva Springs Rd #241 ,Longwood
9052	ACM MACHINING, INC.	11390 Gold Dredge Way ,Rancho Cordova
9056	ACM, L.L.C.	2122 E. Highland Ave, Suite 400 ,Phoenix
9057	ACMA COMPUTERS, INC.	1565 Reliance Way ,Fremont
9058	ACMAT CORPORATION	233 Main Street ,New Britain
9060	ACME AIR CONDITIONING COMPANY, INC.	2626 Central Ave ,St. Petersburg
9061	ACME AIRCRAFT SALES & SALVAGE, LLC	4791 Jay Road ,Boulder
9062	ACME ALTERNATE FUEL SYSTEMS, INC.	Po Box 2168 ,Mankato
9064	ACME ARCHITECTURAL HARDWARE	9821 Katy Freeway ,Houston
9065	ACME ARCHITECTURAL PRODUCTS, INC.	251 Lombardy Street ,Brooklyn
9067	ACME AUTO BODY REPAIRING INC	8 Cross Street ,Leominster
9068	ACME AUTO ELECTRIC, INC.	508 Baxter Avenue ,Louisville
9069	ACME AUTOMOTIVE CENTER, INC.	220 King Street ,Northampton
9070	ACME AWNING COMPANY	3206 Bloomington Avenue ,Minneapolis
9071	ACME BARRICADES LC	9800 Normandy Blvd. ,Jacksonville
9073	ACME BLOCK & BRICK INC.	248 Dayton Spur Rd ,Crossville
9075	ACME BOOKBINDING	100 Cambridge Street ,Charlestown
9078	ACME BUILDING MATERIALS, INC.	2097 Utley Rd ,Flint
9082	ACME CLAY PRODUCTS INC	Po Box 412 ,Mc Kees Rocks
9083	ACME CLEAN AIR, INC.	409 N. Pacific Coast Highway 736 ,Redondo Beach
9085	ACME CONCRETE PAVING, INC.	4124 E Broadway Ave ,Spokane
9089	ACME CONSTRUCTION SUPPLY CO., INC.	330 SE Salmon Street ,Portland
9091	ACME CONSTRUCTORS, INC.	11315 Bedford ,Houston
9093	ACME CONTINENTAL CREDIT UNION	13601 S Perry Ave ,Riverdale
9094	ACME CONTROL SERVICE, INC.	6140 W Higgins Ave ,Chicago
9095	ACME CORRUGATED BOX CO., INC.	2700 Turnpike Dr ,Hatboro
9096	ACME COSMETIC COMPONENTS, LLC	33-53 62nd Street ,Woodside
9097	ACME CRYOGENICS, INC.	2801 Mitchell Avenue ,Allentown
9106	ACME ELECTIRC COMPANY	1025 S. Kilroy ,Turlock
9107	ACME ELECTRIC	3353 Southgate Court Sw ,Cedar Rapids
9109	ACME ENGINEERING & MANUFACTURING CO	P O Box 978 ,Muskogee
9111	ACME ENVIRONMENTAL, INC.	2666 N. Darlington ,Tulsa
9114	ACME FEDERAL CREDIT UNION	34799 Curtis Blvd Ste B ,Eastlake
9115	ACME FENCE COMPANY, INC.	5323 Bragg Boulevard ,Fayetteville
9116	ACME FILMWORKS, INC.	6525 Sunset Blvd. Suite 10 ,Hollywood
9119	ACME FOOD SALES, INC.	Po Box 80525 ,Seattle
9120	ACME FOUNDRY INC	1502 Spruce Street ,Coffeyville
9121	ACME FURNITURE INDUSTRY, INC.	18895 E. Arenth Ave. ,City Of Industry
9122	ACME GALVANIZING,INC.	P. O. Box 340050 ,Milwaukee
9125	ACME GLASS AND MIRROR CO., INC.	1312 Louisville Avenue ,Monroe
9126	ACME GLASS COMPANY, INC.	810 S Washington Ave ,Bryan
9127	ACME GLOBAL LOGISTICS INC.	Po Box 349 ,Grayslake
9128	ACME GRAPHICS, INC.	320 49th Ave Dr Sw ,Cedar Rapids
9129	ACME GRINDING & MANUFACTURING INC	Po Box 509 ,Belvidere
9134	ACME HOTEL COMPANY	15 East Ohio ,Chicago
9137	ACME INDUSTRIAL COMPANY	441 Maple Ave ,Carpentersville
9138	ACME INDUSTRIAL PIPING, INC.	4301 Rossville Blvd ,Chattanooga
9140	ACME INDUSTRIAL, INC	326 - 328 Front Street ,Staten Island
9142	ACME INDUSTRIES OF WEST BABYLON, INC.	125 Gary Way ,Ronkonkoma
9144	ACME INTERNATIONAL ENTERPRISES, INC.	400 Lyster Avenue ,Saddle Brook
9145	ACME JANITOR AND CHEMICAL INC.	6209 South 29th Street Po Box 10066 ,Ft. Smith
9146	ACME LADDER & SUPPLY COMPANY, INC.	10101 Capital Street ,Oak Park
9147	ACME LIFT COMPANY, LLC	4751 E. Indigo Street ,Mesa
9148	ACME LINENMASTER, INC.	124 Ridgewood Avenue ,Hyannis
9149	ACME LOCK, INC.	925 Main Street ,Cincinnati
9150	ACME MACHINE & WELDING CO, LLC	46 Anchor Inn Road ,Punxsutawney
9152	ACME MANUFACTURING COMPANY	4240 North Atlantic Blvd. ,Auburn Hills
9153	ACME MANUFACTURING COMPANY INC.	2534 E 3707 N ,Twin Falls
9154	ACME MANUFACTURING COMPANY, INC.	4661 Monaco Street ,Denver
9155	ACME MANUFACTURING CORPORATION	6532 Tower Lane ,Claremore
9156	ACME MANUFACTURING, INC.	123 Industrial Parkway ,Anytown
9159	ACME MCCRARY CORPORATION	Po Box 1287 ,Asheboro
9160	ACME MECHANICAL CONTRACTORS OF VIRGINIA, INC.	8584 Virginia Meadows Drive ,Manassas
9162	ACME MECHANICAL CONTRACTORS, INC.	612 Volunteer Parkway ,Manchester
9165	ACME METAL CAP CO INC	33-53 62nd Street ,Woodside
9166	ACME METAL SPINNING, INC.	98 - 43rd Ave N.E. ,Fridley
9168	ACME MICRO SYSTEM, INC.	44153 S Grimmer Blvd ,Fremont
9170	ACME MOTORS, INC.	2050 U.S. Highway 130 ,Monmouth Junction
9171	ACME MOVERS & STORAGE CO., INC.	5030 Mattie Street ,Morehead City
9173	ACME OPERATIONS, LLC	2512 River Rd ,Piedmont
9174	ACME PACIFIC REPAIRS INC	1347 Fulton Place ,Fremont
9176	ACME PALLET INC.	P.O. Box 1438 ,Holland
9179	ACME PLASTIC MACHINERY OF WORCESTER, INC.	30 Mill Street ,Rochdale
9180	ACME PLASTICS, INC.	Attn Patricia Hill ,Woodland Park
9184	ACME POWERWASHING, INC.	15590 Powerline Road ,Holley
9185	ACME PRECAST CO. INC.	590 Thomas B Landers Road ,West Falmouth
9192	ACME ROLLING STEEL DOOR CORP.	1099 Linden Avenue ,Ridgefield
9195	ACME SAMPLE BOOKS, INC.	2410 Schirra Pl ,High Point
9196	ACME SCENIC & DISPLAY, INC	7737 NE Killingsworth St ,Portland
9197	ACME SCREW COMPANY, INC.	1201 West Union Avenue ,Wheaton
9198	ACME SIGN CO., INC.	1504 West 4th Street ,Davenport
9199	ACME SIGN, INC.	1313 Vernon Street ,N. Kansas City
9201	ACME SPECIAL EVENTS, INC	5340 Harbor Street ,Commerce
9204	ACME STUDIOS, INC.	P.O. Box 89 ,Kula
9205	ACME SYSTEMS MANAGEMENT, INC.	310 Hudson St ,Hackensack
9208	ACME TRAILER CO., LLC	6330 San Vicente Blvd., Suite 400 ,Los Angeles
9209	ACME TRUCK BRAKE & SUPPLY, CO.	2333 Arthur Avenue ,Elk Grove Village
9210	ACME TRUCK LINE, INC.	200 Westbank Expy ,Gretna
9211	ACME TUBE BENDING CO. INC.	3180 West 11 Mile Rd ,Berkley
9215	ACME WHOLESALE, INC.	1191 Chestnut Street ,Newton
9216	ACME WIRE PRODUCTS CO., INC.	7 Broadway Extension ,Mystic
9217	ACME WIRE PRODUCTS, LLC	2915 S. 18th Avenue ,Broadview
9219	ACMEWARE INC	333 Elm Street Suite 225 ,Dedham
9220	ACMG FEDERAL CREDIT UNION	1753 Milton Ave ,Solvay
9221	ACMOS, INC.	1407 York Road, Suite 305 ,Lutherville
9222	ACMP FOUNDATION	1133 Broadway - Room 810 ,New York
9224	ACN, INC.	1000 Progress Place Ne ,Concord
9225	ACNB BANK	P.O. Box 3129 ,Gettysburg
9226	ACO FURNITURE INC.	2121 Laurelwood Road ,Santa Clara
9227	ACO INC.	23333 Commerce Drive ,Farmington Hills
9228	ACO MECHANICAL, LTD	P.O. Box 3637 ,Bryan
9230	ACO POLYMER PRODUCTS, INC.	P.O. Box 245 ,Chardon
9231	ACO PROPERTY ADVISORS INC	178 Elm St ,Saratoga Springs
9232	ACO SERVICES, INC.	22 Allegheny Ave Suite 204 ,Towson
9233	ACOCK ASSOCITES ARCHITECT, LLC	383 North Front Street ,Columbus
9234	A-COM ENTERPRISES, INC.	7521 Veterans Parkway ,Columbus
9235	ACOM SOLUTIONS, INC	2850 E 29th Street ,Long Beach
9236	ACOMA ANIMAL CLINIC	6666 West Peoria Avenue, Suite 122 ,Glendale
9240	ACOMM INC.	6160 Summit Dr N ,Brooklyn Center
9241	ACOMOCLITIC LASER & WAX STUDIO	265 S. Harlan Street ,Lakewood
9243	ACON INVESTMENTS, L.L.C.	1133 Connecticut Ave NW Ste 700 ,Washington
9245	ACON WATCH CROWN COMPANY	Po Box 800 ,Garfield
9247	ACONEX NORTH AMERICA INC	1111 Bayhill Drive ,San Bruno
9248	A-CONNECT US INC	100 Franklin Street 9th Floor ,Boston
9249	ACOPIA, LLC	306 Northcreek Blvd Ste 100 ,Goodlettsville
9250	ACOPIAN TECHNICAL COMPANY	Po Box 638 ,Easton
9251	ACOR MATERIALS, LTD	710 E. Cypress, Suite B ,Monrovia
9252	ACOR ORTHOPAEDIC, INC.	18530 S Miles Rd ,Cleveland
9253	ACORD COMPANIES	Po Box 492 ,Chandler
9254	ACORD CORPORATION	One Blue Hill Plaza 15th Floor ,Pearl River
9257	A-CORE CONCRETE CUTTING, INC.	5360 South Riley Lane ,Murray
9258	ACOREA ENTERPRISES, INC.	8325 Murphy Road ,Fulton
9260	ACORN ASSOCIATES ARCHITECTURE, LTD.	4400 E. Broadway Blvd., Suite 505 ,Tucson
9262	ACORN DENTAL ASSOCIATES, P.A.	100 Centre Boulevard, Suite J ,Marlton
9263	ACORN DENTAL CLINIC	2185 Fairway Lane ,Oak Harbor
9265	ACORN DEVELOPMENT CORPORATION	400 Cresson Blvd Suite 105 ,Oaks
9267	ACORN ELECTRICAL SPECIALISTS, INC.	Po Box 550 ,Piney Flats
9268	ACORN ENGINEERING COMPANY, INC.	Po Box 3527 ,City Of Industy
9269	ACORN GARAGE, INC.	417 North Hoyne Avenue ,Chicago
9270	ACORN GRAPHICS INC	1365 No Railroad Avenue ,Staten Island
9271	ACORN GROUP, INC.	1 N Pennsylvania St ,Indianapolis
9272	ACORN INDUSTRIAL PRODUCTS COMPANY	520 Hertzog Blvd ,King Of Prussia
9274	ACORN INVESTORS, LLC	One Audubon Street Suite 500 ,New Haven
9275	ACORN LEARNING CENTER, INC.	40 Deer Creek Lane ,Danville
9277	ACORN MEADOW DESIGNS LLC	445 Grange Road ,North Smithfield
9278	ACORN MEDIA GROUP, INC.	8515 Georgia Avenue ,Silver Spring
9280	ACORN MILLWORKS, INC.	25175 State Hwy 18 ,Deerwood
9281	ACORN MINISTORAGE, INC.	189 Sebastian Blvd. ,Sebastian
9282	ACORN MONTESSORI CHARTER SCHOOL, INC.	8556 E Loos Dr ,Prescott Valley
9283	ACORN NILES CORP.	6200 N Lincoln Ave ,Chicago
9284	ACORN OFFICE PRODUCTS, LLC	706 Route 15 South ,Lake Hopatcong
9285	ACORN OUTDOOR SERVICES	342 Bobwhite Drive ,Lufkin
9286	ACORN PEDIATRICS, LLC	1934 Stadium Drive Suite A ,Bozeman
9289	ACORN PRODUCTS CORPORATION	27 Pleasant Ave. ,Ilion
9291	ACORN RECORDING SOLUTIONS INC	Po Box 987 ,Plaistow
9292	ACORN RESEARCH, LLC	6555 Quince Road, Suite 400 ,Memphis
9293	ACORN SALES COMPANY INC	1506 Tomlyn Street ,Richmond
9294	ACORN STAIRLIFTS, INC.	7335 Lake Ellenor Drive ,Orlando
9296	ACORN TECHNOLOGY CORP.	23103 Miles Road ,Cleveland
9297	ACORN, INC. D/B/A COLUMBIAN AGENCY	P.O. Box 39, 1005 Laraway Road ,New Lenox
9298	ACORN-GENCON PLASTICS, LLC.	13818 Oaks Avenue ,Chino
9299	ACOS ENERGY, LLC	548 Nc Hwy 801 N ,Advance
9300	ACOSTA & SKAWSKI, P.C.	400 S County Farm Road ,Wheaton
9301	ACOSTA & WILLIAMS L.L.C.	884 Town Center Drive ,Langhorne
9302	ACOSTA INC.	5815 Callaghan Road, Suite 100 ,San Antonio
9303	ACOSTA INCORPORATED	3915 Stuart Andrew Blvd ,Charlotte
9306	ACOSTA SALES AND MARKETING	6600 Corporate Center Parkway ,Jacksonville
9307	ACOSTA VALUATION SOLUTIONS	28 Willowpond Way ,Penfield
9308	ACOSTA, INC.	6600 Corporate Center Parkway ,Jacksonville
9311	ACOUSTECH SUPPLY INC.	1710 South 106th St. ,West Allis
9312	ACOUSTI ENGINEERING COMPANY OF FLORIDA	4656 34th Street Sw ,Orlando
9313	ACOUSTIC BLUEPRINT LLC	303 Strawberry Hill Avenue ,Norwalk
9314	ACOUSTIC CEILING & PARTITION CO., INC.	3500 Ellsworth Road ,Ann Arbor
9315	ACOUSTIC CEILING & PARTITION OF OHIO, INC.	7680 Fishel Drive North ,Dublin
9316	ACOUSTIC CEILING PRODUCTWS LLC	555 Bell Street ,Neenah
9317	ACOUSTIC DIMENSIONS, INC	145 Huguenot Street Suite 406 ,New Rochelle
9318	ACOUSTIC EMISSION CONSULTING, INC.	5000 San Juan Avenue, Suite D ,Fair Oaks
9319	ACOUSTIC MEDSYSTEMS, INC.	208 Burwash Ave ,Savoy
9320	ACOUSTIC TECHNOLOGIES, INC.	C/O 555 Main Street, Suite 300 ,Racine
9321	ACOUSTIC TECHNOLOGY, INC.	30 Jeffries St ,East Boston
9322	ACOUSTICA, INC.	Po Box 728 ,Oakhurst
9323	ACOUSTICAL CEILING SUPPLY CO, INC	4400 York St ,Metairie
9325	ACOUSTICAL CEILINGS, INC.	920 Hemsath Road Suite 103 ,St. Charles
9329	ACOUSTICAL SHEET METAL	2600 Production Road ,Virginia Beach
9330	ACOUSTICAL SOCIETY OF AMERICA	1305 Walt Whitman Road ,Melville
9331	ACOUSTICAL SOLUTIONS, INC.	2420 Grenoble Rd ,Richmond
9333	ACOUSTICAL SPRAY INSULATORS	Po Box 625 ,Allentown
9335	ACOUSTICAL SYSTEMS, INC.	P.O. Box 146 ,Vandalia
9337	ACOUSTICRAFT, INC.	P. O. Box 3178 ,Lake Havasu City
9340	ACOUSTICS BY WASHBURN LLC	465 Prairie View Cir ,Fairfax
9341	ACOUSTICS GROUP, INC.	2102 Business Center Drive ,Irvine
9345	ACOUSTICSHEEP, LLC	2001 Peninsula Drive ,Erie
9346	ACOUSTICWORKS, INC.	Po Box 460896 ,Escondido
9349	ACOUSTILOG, INC	19 Mercer Street ,New York
9350	ACP COMMUNICATIONS CORP.	41 Elm Street ,Stoneham
9352	ACP DAYCARE, INC.	1211 Walton Bluff Parkway ,Midlothian
9355	ACP HEALTH CARE RESOURCES, INC	5750 Homeward Way ,Sugar Land
9356	ACP INC.	8125 Humphrey Hill Dr ,Concord
9358	ACP LLC	4617 Benson Ave Ste A ,Baltimore
9359	ACP OF DELAWARE INC	225 49th Avenue Drive Sw ,Cedar Rapids
9360	ACP REALTY GROUP INC.	460 Park Ave Fl 11 ,New York
9361	ACP REALTY SERVICES	444 Brickell Ave ,Miami
9363	ACP SECURITIES, LLC	444 Brickell Avenue ,Miami
9365	ACP SHEET METAL CO., INC.	P.O. Box 14709 ,Oklahoma City
9367	ACP WATERJET INC	325 A New Boston Street ,Woburn
9369	ACPRODUCTS, INC.	3551 Plano Parkway ,The Colony
9371	ACQUA POOLS LTD., INC.	44 Central Avenue ,Midland Park
9374	ACQUADATA ENTRY SERVICES, INC.	3040 E Tremont Ave ,Bronx
9376	ACQUAVELLA CHIARELLI SHUSTER LLP	517 Route One Suite 1000 ,Iselin
9377	ACQUAVELLA GALLERIES, INC.	18 E 79th St ,New York
9379	ACQUAVIVAS PHARMACY	1555 Port Malabar Blvd N.E. ,Palm Bay
9380	ACQUERELLO, INC.	1722 Sacramento Street ,San Francisco
9383	ACQUEST REALTY ADVISORS, INC.	40701 Woodward Avenue, Ste 100 ,Bloomfield Hills
9385	ACQUILANO LESLIE INCORPORATED	1600 Stout Street, Suite 200 ,Denver
9388	ACQUIRE DIRECT MARKETING, INC.	12620 Race Track Road ,Tampa
9389	ACQUIRE MEDIA VENTURES, INC.	3 Becker Farm Rd. ,Roseland
9390	ACQUIRE, INC.	19 Cushing Street ,Wellesley Hills
9392	ACQUIRED DATA SOLUTIONS, INC.	5272 River Rd Ste 510 ,Bethesda
9394	ACQUIRED REALTY & INVESTMENTS	2005 Vista Parkway Suite 102 ,West Palm Beach
9396	ACQUIRER RISK MANAGEMENT SOLUTIONS, INC	6609 Westborough Drive ,Raleigh
9397	ACQUIRGY, INC.	877 Executive Center Drive, Ste 300 ,St. Petersburg
9398	ACQUIS CONSULTING GROUP, LLC	299 Broadway Ste 1200 ,New York
9402	ACQUISITION LIFE CYCLE MANAGEMENT LLC	107 Harrison Ct ,Warner Robins
9403	ACQUISITION LOGISTICS, LLC	502 Branway Drive ,Richmond
9404	ACQUISITION MANAGEMENT GROUP, LLC	4509 Knight Rd Ste B-1 ,Macon
9405	ACQUISITION MANAGEMENT, INC.	4509 Knight Rd Ste B-1 ,Macon
9406	ACQUISITION RESEARCH & LOGISTICS	120 Waterfront Street ,National Harbor
9410	ACQUISITION TITLE AND SETTLEMENT AGENCY, INC.	3140 Chaparral Drive Sw ,Roanoke
9414	ACQUITECH, INC.	9101 Silverrun Court ,Fairfax Station
9415	ACQUITY GROUP, LLC	500 West Madison ,Chicago
9416	ACR	185-I Industrial Parkway ,Branchburg
9418	ACR ELECTRONICS, INC.	5757 Ravenswood Road ,Fort Lauderdale
9419	ACR ENGINEERING, INC.	600 Pinnacle Court ,Norcross
9423	ACR SALES AND SERVICE, INC.	1757 Benbow Court ,Apopka
9424	ACR SERVICES	1330 W 25th St ,San Bernardino
9427	ACR SYSTEMS INC.	250 Munoz Rivera Ave ,San Juan
9429	ACRA AEROSPACE, INC.	2121 Via Burton Way ,Anaheim
9430	ACRA CONTROL, INC.	26845 Point Lookout Road ,Leonardtown
9431	ACRA ELECTRIC, INC.	842 S.E. 46th Lane ,Cape Coral
9432	ACRA INCORPORATED	11 El Verano ,Orinda
9434	ACRANOM MASONRY, INC.	80 Industrial Park Road ,Middlefield
9435	ACRATEX INDUSTRIES INC	P O Box 2437 ,Lufkin
9436	ACRC	Post Office Box 505 ,Newland
9437	ACRC ARIZONA CLINICAL RESEARCH	1825 N Kolb Rd ,Tucson
9438	ACRE LAND SURVEYING	9140 Baltimore St NE Suite 100 ,Blaine
9440	ACRE REALTY LTD	303 S Bluemound Drive ,Appleton
9441	ACRE VIEW PET HOSPITAL,PLLC	1900 S Bryant Ave ,Edmond
9442	ACRECENT FINANCIAL CORPORATION	Po Box 23063 ,San Juan
9443	ACREDALE ANIMAL HOSPITAL, INC.	Post Office Box 64037 ,Virginia Beach
9446	ACREE OIL CO INC.	272 W Currahee St ,Toccoa
9447	ACRES & SON PLUMBING, INC.	5701 Houchin Street ,Naples
9448	ACRES GROUP	610 West Liberty Street ,Wauconda
9450	ACRES LAND TITLE AGENCY, INC.	P.O. Box 769, 55 Essex Street ,Millburn
9451	ACRES MILL VETERINARY CLINIC	2460 Ball Ground Highway ,Canton
9452	ACRI COMMERCIAL REALTY INC.	290 Perry Highway ,West View
9454	ACRILEX, INC.	230 Culver Ave ,Jersey City
9455	ACRISON, INC.	20 Empire Boulevard ,Moonachie
9456	ACRISURE BUSINESS OUTSOURCING SERVICES, LLC	5664 Prairie Creek Dr. ,Caledonia
9457	ACRISURE, LLC	5664 Prairie Creek Drive ,Caledonia
9458	ACRISURE, LLC D/B/A WINE SERGI INSURANCE	5664 Prairie Creek Drive ,Caldonia
9459	ACRO ASSOCIATES, INC.	1990 Olivera Road, Suite A ,Concord
9460	ACRO AUTOMATION SYSTEMS, INC	2900 West Green Tree Road ,Milwaukee
9461	ACRO CONSULTANTS	941 S. Atlantic Blvd. 221 ,Monterey Park
9462	ACRO DISPLAY	3251 Fox Street ,Philadelphia
9463	ACRO FAB LTD	Po Box 184 ,Hannibal
9469	ACRO METAL STAMPING CO.	2200 W. Cornell St. ,Milwaukee
9471	ACRO SERVICE CORP.	39209 W. Six Mile Rd. ,Livonia
9472	ACRO TECHNOLOGIES INC.	9600 Escarpment Blvd #745-7 ,Austin
9473	ACRO TOOL & DIE COMPANY	325 Morgan Avenue ,Akron
9474	ACROAMATICS, INC.	5385 Hollister, Bldg 5 ,Santa Barbara
9475	ACRODYNE CORPORATION	23399 Commerce Dr. ,Farmington Hills
9476	ACROFAB, INC.	130 E. Roosevelt ,Zeeland
9477	ACROLINX NORTH AMERICA, INC.	3979 Freedom Circle - Suite 300 ,California
9479	ACROMATIC PLASTICS CRISCI TOOL AND DIES, INC.	32 Jungle Road ,Leominster
9480	ACROMETIS, LLC	400 Chesterfield Parkway, Suite 100 ,Malvern
9482	ACRON US MANAGEMENT, INC.	2424 E 21st St, Ste 150 ,Tulsa
9484	ACRONYM MEDIA, INC.	350 Fifth Avenue, Suite 6520 ,New York
9486	ACROPOLIS INVESTMENT MANAGEMENT, LLC	14755 Outer Forty Suite 100 ,St. Louis
9487	ACROPOLIS TECHNOLOGY GROUP	300 Hunter Ave, Ste 103 ,St. Louis
9488	ACROSCIENCE, INC.	486 Vista Del Norte ,Walnut
9489	ACROSONIC	12819 SE 38th Street, Suite 52 ,Bellevue
9492	ACROSS BORDERS MANAGEMENT CONSULTING GROUP	141 Waterman Avenue ,Mt Dora
9495	ACROSS THE WORLD ADOPTIONS	395 Taylor Blvd Suite 116 ,Pleasant Hill
9497	ACROTECH, INC.	Po Box 466 ,Lake City
9498	ACROTEKS, INC.	Post Office Box 14081 ,Tallahassee
9499	ACROW CORPORATION OF AMERICA	181 New Road - Suite 202 ,Parsippany
9500	ACROWIRE LLC	3120 North Davidson St ,Charlotte
9501	ACROWOOD CORPORATION	4425 South 3rd Avenue ,Everett
9502	ACRS 2000 CORP.	2601 NW Expressway ,Oklahoma City
9503	ACRT, INC.	1333 Home Avenue ,Akron
9505	ACRYLATEX COATINGS AND RECYCLI	1001 W Kirkwall Rd ,Azusa
9510	ACRYLUX PAINT MANUFACTURING COMPANY	6010 Powerline Road ,Fort Lauderdale
9511	ACRYMAX TECHNOLOGIES INC.	221 Brooke Street ,Media
9514	ACS ACTUARIAL CONSULTING SERVICES	16 North Kings Hwy ,Cherry Hill
9516	ACS BENEFIT SERVICES, INC.	8025 North Point Blvd., Ste. 100 ,Winston-Salem
9519	ACS CONSTRUCTION INC	501 N Orlando Ave Ste 313 ,Winter Park
9520	ACS CONTROLS CORPORATION	4704 Roseville Road, #101 ,North Highlands
9521	ACS ENTERPRISES, INC.	123 Pacific Street ,Pomona
9522	ACS INDUSTRIAL SERVICES INC	9 Schilling Rd Ste 210 ,Hunt Valley
9523	ACS INDUSTRIES, INC.	2151 Mogadore Road ,Kent
9525	ACS INFRASTRUCTURE DEVELOPMENT INC	1 Alhambra Plaza, Suite 1200 ,Coral Gables
9526	ACS INTERNATIONAL INC	429 Moon Clinton Road ,Coraopolis
9527	ACS MANUFACTURING, INC.	1601 Commerce Boulevard ,Denison
9529	ACS NORTHWEST INC.	33400 8th Avenue So. ,Federal Way
9530	ACS OF GEORGIA, LLC	3812 Green Industrial Way ,Chamblee
9531	ACS QUANTUM STRATEGIES LLC	1215 K Street #940 ,Sacramento
9532	ACS SECURITY SYSTEMS	403 Tresca Road ,Jacksonville
9534	ACS SOFTWARE, INC.	Po Box 449 ,Torrance
9536	ACS TECHNOLOGIES GROUP, INC.	180 Dunbarton Drive ,Florence
9537	ACS TESTING INCORPORATED	7409 SW Tech Center Drive, Ste 145 ,Tigard
9540	ACS, LLC	4102 S Avenue 3 1/2 E ,Yuma
9541	ACSEL MEDICAL SOLUTIONS	2876 Guardian Lane ,Virginia Beach
9542	ACSEL MEDICAL SOLUTIONS, LLC	2876 Guardian Lane ,Virginia Beach
9543	ACSELLERATE, INC.	5445 Oceanus Drive, Suite 101 ,Huntington Beach
9546	ACSIS, INC.	9 East Stow Road ,Marlton
9548	ACSYS, INC.	111 Anza Blvd. Suite 400 ,Burlingame
9551	ACT 1 SYSTEMS, INC.	21031 Ventura Blvd., Suite 1020 ,Woodland Hills
9553	ACT AMBULLETTE	19 Granite Avenue ,Staten Island
9554	ACT BUSINESS MACHINES, INC.	109 Signal Mountain Rd ,Chattanooga
9558	ACT ELECTRONICS INC	18315 32nd Ave N ,Plymouth
9559	ACT ELECTRONICS, INC.	1800 Walt Whitman Rd ,Melville
9560	ACT ENGINEERS, INC.	1 Washington Blvd ,Robbinsville
9562	ACT EXPRESS INC	2753 Waters Rd Sw ,Atlanta
9563	ACT FULFILLMENT LLC	3155 Universe Drive ,Mira Loma
9564	ACT FULFILLMENT, INC.	3155 Universe Drive ,Mira Loma
9565	ACT HOME HEALTH SERVICES, INC.	1121 South 11th Street ,Philadelphia
9568	ACT III COMMUNICATIONS	100 N. Crescent Dr. ,Beverly Hills
9569	ACT INDEPENDENT TURBO SERVICES, INC.	8525 Freeland Street ,Houston
9570	ACT INSURANCE SERVICES INC.	1322 Potrero Grande Dr ,Rosemead
9572	ACT LEASING INC	215 Salem Street, Suite 10 ,Woburn
9577	ACT ONCOLOGY LLC	11 Partridge Rd ,Flemington
9578	ACT ONE MAILING LIST SERVICES	100 Cummings Center ,Beverly
9579	ACT ONE RESEARCH SERVICES, INC.	213 W. Institute Place, Suite 502 ,Chicago
9580	ACT PIPE AND SUPPLY, INC.	6950 West Sam Houston Pkwy North ,Houston
9581	ACT PRODUCTIONS, INC.	407 Lincoln Road ,Miami Beach
9583	ACT SIGN LLC	53 Church St ,Hartford
9584	ACT SPECIALTY CHEMICALS, INC.	117 Beech Bark Ln. ,Towson
9585	ACT SPORTS INC	Po Box 782343 ,San Antonio
9586	ACT TELECONFERENCING SERVICES, INC.	1526 Cole Blvd., Suite 300 ,Golden
9587	ACT TELECONFERENCING, INC.	1526 Cole Boulevard ,Lakewood
9590	ACT TWO, INC.	2107 S. Walton Blvd. ,Bentonville
9591	ACT, INC.	500 Act Drive ,Iowa City
9593	ACTA MEDICAL SERVICES, INC	17480 Holiday Drive ,Morgan Hill
9595	ACTA, INC	2790 Skypark Drive ,Torrance
9596	ACTAGRO, LLC	P.O. Box 309 ,Biola
9597	ACTALL SECURITY PRODUCTS	2360 Lawrence St ,Denver
9598	ACTANO, INC.	1120 East Long Lake Road ,Troy
9599	ACTANT INC	7 E Lancaster Ste 230 Ardmore ,Ardmore
9600	ACTAS INTERNATIONAL- PR, INC.	Urb Lomas Verdes 2M-8 Ave Laurel ,Bayamon
9601	ACTAVIS INC.	Morris Corporate Center Iii, ,Parsippany
9602	ACTAVIS TOTOWA LLC	Morris Corporate Center Iii ,Parsippany
9603	ACTAVIS, INC.	Morris Corporate Center Iii ,Parsippany
9605	ACT-CESS USA INCORPORATED	74 Prescott Turn ,Clark
9606	ACTCO METROLOGY SERVICES	Rd 3 ,Meadville
9607	ACTCO TOOL & MFG. CO.	P.O. Box 675 ,Meadville
9609	ACTEGA KELSTAR, INC.	950 S. Chester Avenue ,Delran
9610	ACTEGA WIT, INC.	125 Technology Drive ,Lincolnton
9613	ACTELION CLINICAL RESEARCH, INC.	1820 Chapel Avenue West, Suite 300 ,Cherry Hill
9614	ACTELION PHARMACEUTICALS US 5000 SHORELINE COURT	Suite 200 ,South San Francisco
9615	ACTELION PHARMACEUTICALS US, INC.	5000 Shoreline Ct., Ste. 200 ,S. San Francisco
9617	ACTEON NETWORKS LLC	165 Indiana Ave ,Fort Washington
9618	ACTEON, INC.	124 Gaither Drive ,Mount Laurel
9620	ACTFL	1001 N Fairfax St Ste 200 ,Alexandria
9621	ACTFOREX, INC.	110 Wall Street, Suite 7-2 ,New York
9623	ACTI FULL INCORPORATED	8500 SW Warm Springs ,Tualatin
9624	ACTIA CORPORATION	52765 Bridger Court ,Elkhart
9625	ACTIAN CORPORATION	500 Arguello Street #200 ,Redwood City
9626	ACTIANCE, INC.	1400 Seaport Blvd. ,Redwood City
9630	ACTIFIO, INC	333 Wyman Street ,Waltham
9631	ACTIFY, INC.	150 Post St., Ste. 660 ,San Francisco
9632	ACTIGRAPH, LLC	49 E Chase Street ,Pensacola
9634	ACTIMIZE INC.	1359 Broadway ,New York
9636	ACTINIUM PHARMACEUTICALS, INC.	391 Lafayette Street ,Newark
9637	ACTINVER SECURITIES, INC.	5075 Westheimer Road ,Houston
9638	ACTIO SOFTWARE CORPORATION	30 International Dr Ste 201 ,Portsmouth
9639	ACTIO, INC.	16 Oak Street ,Roswell
9644	ACTION AGENCY INC	400 Jericho Turnpike ,Jericho
9645	ACTION AIR CONDITIONING SERVICE, INC.	868 Kraft St. ,Clarksville
9646	ACTION AIR CONDITIONING, INC.	8524 Paseo Alameda Ne ,Albuquerque
9650	ACTION ASPECT, INC.	33439 Mulholland Hwy ,Malibu
9651	ACTION ASPHALT MAINTENANCE INC	22466 Dove Springs Dr ,Grass Valley
9652	ACTION AUTO GROUP, LLC	180 Route 202 And 31 ,Flemington
9653	ACTION AUTO PARTS OF ST PAUL INC	106 Arlington Ave E ,Saint Paul
9654	ACTION AUTO REPAIR, INC.	497 East 3900 South ,Salt Lake City
9655	ACTION AUTOMATIC DOOR & GATE	11360 Metro Pkwy ,Fort Myers
9657	ACTION AUTOMATION & CONTROLS, INC.	10 Larsen Way ,North Attleboro
9658	ACTION AUTOMATION, INC.	5160 West 125th Place ,Alsip
9659	ACTION AUTOMOTIVE GROUP, INC.	807 D Street ,Ramona
9660	ACTION AUTOMOTIVE, INC.	1300 High Street ,Portsmouth
9661	ACTION BAG COMPANY	1001 Entry Drive ,Bensenville
9662	ACTION BARRICADE COMPANY LLC	Po Box 11009 ,Phoenix
9663	ACTION BATTERY WHOLESALERS, INC.	484 County Road Vv ,Somerset
9664	ACTION BICYCLE USA, INC.	217 Washington Ave ,Carlstadt
9665	ACTION BLOWER & EQUIPMENT INC.	7199 S Franklin Way ,Centennial
9666	ACTION BLUEPRINT COMPANY, INC.	2075 Monroe Dr Ne ,Atlanta
9667	ACTION BOX CO., INC.	6207 North Houston Rosslyn Road ,Houston
9671	ACTION BUSINESS SUPPLIERS INC	275 Gold Rush Rd ,Lexington
9673	ACTION CALL SERVICES INC.	2108 Breezy Point Drive ,Mount Pleasant
9674	ACTION CAPITAL CORPORATION	230 Peachtree Street ,Atlanta
9675	ACTION CARE AMBULANCE, INC.	14854 E Hinsdale Ave Ste H ,Centennial
9676	ACTION CARTING ENVIRONMENTAL SERVICES, INC.	300 Frank W Burr Blvd, Suite 39 ,Teaneck
9680	ACTION COLLECTION SERVICE	P.O. Box 7355 ,East Brunswick
9681	ACTION COLLECTION SERVICE, INC	1325 S Vista Avenue ,Boise
9684	ACTION COMPACTION SERVICES, INC.	4020 S. 15th Avenue ,Phoenix
9686	ACTION CONTRACTORS	121 S Olsen Avenue ,Tuscon
9687	ACTION COUNCIL OF MONTEREY COUNTY, INC.	295 Main Street, Suite 300 ,Salinas
9688	ACTION COUPLING & EQUIPMENT, INC.	8248 County Road 245 ,Holmesville
9689	ACTION COURIER SERVICES INC	22140 76th Ave S ,Kent
9690	ACTION COURIERS, INC.	7200 S Alton Way, #A-240 ,Centennial
9691	ACTION DATA SERVICES, INC.	17 Sherwood Lane ,Fairfield
9692	ACTION DAY NURSERIES / PRIMARY PLUS	3030 Moorpark Avenue Building D ,San Jose
9694	ACTION DELIVERY SERVICE, INC.	2431 Greenup Avenue ,Ashland
9698	ACTION DOOR, INC.	201 East Granger ,Brooklyn Heights
9699	ACTION DRIVES & BEARINGS INC	Po Box 264 ,East Hanover
9700	ACTION DRYWALL INC	2608 Woodberry Court ,Columbia
9704	ACTION ELECTRIC INC	79 Longview Dr ,Portland
9705	ACTION ELECTRIC INC.	1034 West Devon Ave ,Elk Grove Village
9706	ACTION ELECTRIC SALES CO., INC	3900 N Rockwell St ,Chicago
9707	ACTION ELECTRICAL CONTRACTING, INC. DBA ACTION ELECTRIC	1717 Keosauqua Way ,Des Moines
9708	ACTION ELEVATOR, INC.	963 Van Duzer Street ,Staten Island
9710	ACTION ENVELOPE	5300 New Horizons Blvd ,Amityville
9711	ACTION ENVIRONMENTAL GROUP, INC.	300 Frank W Burr Blvd ,Teaneck
9712	ACTION ENVIRONMENTAL MANAGEMENT SERVICES, INC.	5777 Madison Avenue, Suite #350 ,Sacramento
9713	ACTION ENVIRONMENTAL, LLC	Po Box 243843 ,Anchorage
9715	ACTION EQUIPMENT COMPANY, INC.	P.O. Box 3100 ,Newberg
9717	ACTION EQUIPMENT SALES CO., INC.	5801 S. Harding Street ,Indianapolis
9719	ACTION EXPEDITING, INC.	135 S. Main St. Ste 400 ,Madison
9720	ACTION FABRICATION & TRUCK EQUIP	1476 L And R Industrial Blvd ,Tarpon Springs
9721	ACTION FABRICATORS, INC.	3760 East Paris Ave Se ,Grand Rapids
9722	ACTION FACILITIES MANAGEMENT, INC	115 Malone Drive ,Morganton
9723	ACTION FAST FREIGHTWAYS INC	Aff Inc ,Jersey City
9725	ACTION FIGURE LABS INC.	2223 Willowby Drive ,Houston
9727	ACTION FINANCIAL PLANNING, INC.	191 North Ave. ,Mt. Clemens
9729	ACTION FIRE ALARM, LLC	3709 Interstate Highway 35 ,Waxahachie
9730	ACTION FLOOR SYSTEMS LLC	4781 S Us Hwy 51N ,Mercer
9731	ACTION FOOD SALES INC	8401 University Exec. Park ,Charlotte
9732	ACTION FOR A BETTER COMMUNITY, INC.	550 East Main St. ,Rochester
9733	ACTION FOR BOSTON COMMUNITY DEVELOPMENT, INC.	178 Tremont Street ,Boston
9734	ACTION FOR CHILDREN	78 Jefferson Ave ,Columbus
9735	ACTION FOR CHILDREN NORTH CAROLINA	3109 Poplarwood Ct, Ste 300 ,Raleigh
9736	ACTION FOR EASTERN MONTANA	P. O. Box 1309 ,Glendive
9737	ACTION FOR ENTERPRISE	4600 N. Fairfax Dr., Suite 304 ,Arlington
9742	ACTION GLASS, INC	1110 NE Pine Island Road, Ste 33 ,Cape Coral
9743	ACTION GRAPHIX	1843 Atlantic Blvd. ,Jacksonville
9744	ACTION GYPSUM SUPPLY	Po Box 40010 ,Houston
9746	ACTION HEATING & AIR CONDITIONING, INC.	6120 Cottonwood Drive ,Fitchburg
9747	ACTION HOME NURSING SERVICES, INC.	1190 Suncast Lane #6 ,El Dorado Hills
9748	ACTION HOUSING, INC.	425 6th Ave Ste 950 ,Pittsburgh
9749	ACTION IN COMMUNITY THROUGH SERVICE OF PRINCE WILLIAM, INC.	Po Box 74 ,Dumfries
9753	ACTION INDUSTRIES INC	6453 Fig Street ,Arvada
9754	ACTION INDUSTRIES, LTD.	12625 Berea Rd ,Cleveland
9755	ACTION INTEGRATED	Po Box 43610 ,Baltimore
9757	ACTION IRON & METAL INC	3345 West 31st Street ,Chicago
9758	ACTION IRON WORKS, INC.	11001 Sutter Ave ,Pacoima
9762	ACTION LABS, INC.	35258 Moorbrook Road ,Palm Desert
9765	ACTION LANDSCAPE, INC.	10638 Watterson Trail ,Jeffersontown
9766	ACTION LANDSCAPING, INC.	2858 Seckman Road ,Imperial
9767	ACTION LAW LLC	2825 East Cottonwood Parkway, ,Salt Lake City
9768	ACTION LAWN SERVICE, INC.	44 Route 31 South ,Pennington
9769	ACTION LEAD SOLUTIONS INC	2232 N Clybourne 3rd Floor ,Chicago
9770	ACTION LEARNING CORPORATION	19226 Oak Grove Ave ,Prior Lake
9771	ACTION LEARNING SYSTEMS, INC.	135 South Rosemead Blvd ,Pasadena
9772	ACTION LOCK & KEY, INC.	17 Cambridge Street ,Burlington
9773	ACTION LOGISTICS INC	815 Greenview Drive ,Grand Prairie
9774	ACTION LOGISTICS, LLC	16235 W. Ryerson ,New Berlin
9775	ACTION MACHINE INC	Po Box 700120 ,Tulsa
9776	ACTION MACHINE, INC.	1847 Prairie Avenue ,South Bend
9777	ACTION MACHINED PRODUCTS, INC.	1355 Bangor Street ,Copiague
9778	ACTION MACHINERY CO., INC.	2320 Highland Avenue ,Bethlehem
9780	ACTION MANAGEMENT CORPORATION	915 S. Grand Traverse Street ,Flint
9782	ACTION MANUFACTURING COMPANY	190 Rittenhouse Circle ,Bristol
9784	ACTION MAT & TOWEL RENTAL, LTD.	Po Box 87 ,Warren
9785	ACTION MEAT DISTRIBUTORS	1920 S. Starpoint ,Houston
9786	ACTION MECHANICAL, INC.	14 St. Joseph Street ,Rapid City
9788	ACTION METAL CO., INC.	602 Willow Grove Road ,Stony Point
9789	ACTION METAL FABRICATORS, INC.	1951 Old Covington Rd Ne ,Conyers
9790	ACTION MINING, INC.	1117 Shaw Mines Road ,Meyersdale
9791	ACTION MOLD AND MACHINING, INC.	3120 Ken-O-Sha Industrial Court ,Grand Rapids
9792	ACTION MOTOR SPORTS, INC	1355 East Lincoln Rd. ,Idaho Falls
9793	ACTION MOVING SERVICES	12400 Washburn Ave South ,Burnsville
9794	ACTION NETWORK	2920 N Green Valley Parkway Bldg 4 ,Henderson
9795	ACTION NISSAN, INC. DBA ROCKLAND NISSAN	608 East Route 303 ,Blauvelt
9796	ACTION OF ENTERPRISE, LLC	301 Plaza Drive ,Enterprise
9797	ACTION OFFICE SUPPLIES INC	Po Box 277 ,Adelphia
9799	ACTION ON SMOKING AND HEALTH	701 4th Street, NW 3rd Floor ,Washington
9801	ACTION ONSITE, INC.	212 Wedgewood Circle ,Calimesa
9802	ACTION OVERHEAD DOOR, INC.	18077 Murphy Lake Blvd. ,Prior Lake
9804	ACTION PACKAGING SYSTEMS INC	374 Somers Road ,Ellington
9805	ACTION PACKAGING, INC.	2160 North Main Street ,Washington
9806	ACTION PACKAGING, LLC	6995 Southbelt Drive ,Caledonia
9807	ACTION PARTNERS, INC.	5000 Bartizan Dr. ,Holly Springs
9808	ACTION PAVING, INC.	12414 NE 99th Street ,Vancouver
9810	ACTION PERSONNEL, INC.	5427 Peters Creek Road ,Roanoke
9811	ACTION PEST CONTROL, INC.	P.O. Box 5759 ,Evansville
9812	ACTION PHYSICAL MEDICINE AND	850 Brookforest Unit F ,Shorewood
9813	ACTION PHYSICAL THERAPY & REHABILITATION, INC.	609 W. Liberty Street ,Hubbard
9814	ACTION PHYSICAL THERAPY & REHABILITATION, PLLC	2506 N Harrison St ,Shawnee
9815	ACTION PHYSICAL THERAPY PARTNE	680 E Romie Ln ,Salinas
9816	ACTION PLASTICS, INC.	14720 Main Street ,Rogers
9817	ACTION PLUMBING SUPPLY CO.	5411 NW 15 St ,Margate
9821	ACTION POTENTIAL REHABILITATION	6119 Deltona Blvd. ,Spring Hill
9822	ACTION PRINTING OF NORMAN, INC.	3400 Charleston Road ,Norman
9824	ACTION PRODUCTS MARKETING CORP.	6250 NW Beaver Drive, Suite 1 ,Johnston
9825	ACTION PROFESSIONALS, INC.	591 12Th Street ,Paso Robles
9828	ACTION PROTECTIVE GROUP, INC.	31 Richmond Street ,Rochester
9829	ACTION PUMP COMPANY	170 Chicago St ,Cary
9830	ACTION RADIO & COMM., INC	11133 86th Ave N ,Maple Grove
9831	ACTION REAL ESTATE LLC	11551 Nuckols Rd Ste D ,Glen Allen
9833	ACTION REHAB NETWORK, INC.	P.O. Box 191 ,Niles
9834	ACTION REHAB, INC.	863 Halekauwila St ,Honolulu
9835	ACTION RENTAL CENTER, INC.	4535 Broadway ,Allentown
9836	ACTION RENTALS & SALES, INC.	1861 North Eastman Road ,Kingsport
9837	ACTION RESEARCH CORPORATION	34-A Freedom Ct ,Greer
9838	ACTION RESOURCE INC.	20803 Valley Blvd., #206 ,Walnut
9839	ACTION RESOURCES INC	40 County Road 517 ,Hanceville
9840	ACTION ROOFING, INC.	22801 Lockness Avenue ,Torrance
9841	ACTION ROTARY DIE, INC.	1208 W. National Avenue ,Addison
9842	ACTION RUBBER AND INDUSTRIAL SUPPLY INCORPORATED	140 Woodland Avenue ,Rochelle Park
9843	ACTION RUBBER CO., INC.	601 Fame Rd. ,West Carrollton
9844	ACTION SAFE & LOCK	21916 Greentree Terrace ,Sterling
9846	ACTION SALES & MARKETING INC.	2863 Hedberg Drive ,Minnetonka
9847	ACTION SALES & METAL CO., INC.	1625 E. Pacific Coast Highway ,Wilmington
9848	ACTION SALES WEST INC.	24007 Ventura Blvd Suite 285 ,Calabasas
9849	ACTION SCREEN PRINTING INC.	650 Parkway ,Broomall
9850	ACTION SECURITY INC	2430 Cinnabar Loop ,Anchorage
9851	ACTION SERVIC CORPORATION	Po Box 364866 ,San Juan
9852	ACTION SERVICES GROUP, INC.	525 Turner Industrial Way ,Aston
9856	ACTION SNOWPLOW & LAWNCARE INC	568 Foothill Drive Suite 11 ,Kamas
9857	ACTION SPA PARTS, INC.	536 Raleigh Avenue ,El Cajon
9859	ACTION SPINE AND PAIN CENTER PC	3610 West Market Street # 108 ,Akron
9861	ACTION SPORTS OF MINNESOTA	850 Florida Avenue South ,Golden Valley
9862	ACTION SPRING COMPANY	3003 E. Apache ,Tulsa
9863	ACTION STAINLESS & ALLOYS, INC.	1505 Halsey Way ,Carrollton
9864	ACTION STORE FRONTS INC.	263 Union Boulevard ,West Islip
9865	ACTION SUPPLY COMPANY, INC.	1401 Calcon Hook Road ,Sharon Hill
9867	ACTION SUPPLY PRODUCTS, INC.	1065 Montour West Industrial Park ,Coraopolis
9868	ACTION SUPPLY, INC.	1413 Stagecoach Road ,Seaville
9869	ACTION SYSTEMS, INC.	1734 Elton Road ,Silver Spring
9870	ACTION TARGET, INC.	P.O. Box 636 ,Provo
9871	ACTION TECHNOLOGY, INC.	3121 East Boundary Court ,Midlothian
9872	ACTION TERMITE AND PEST CONTROL	1913 Hooper Avenue ,Toms River
9874	ACTION TITLE COMPANY	2699 Stirling Road, Suite C-204 ,Ft. Lauderdale
9875	ACTION TITLE RESEARCH LLC	21 The Terrace 1st Fl ,Rutherford
9876	ACTION TITLE SERVICES LLC	3733 Tamiami Trl N ,Naples
9878	ACTION TOOL & MANUFACTURING INC.	5573 Sandy Hollow Rd ,Rockford
9880	ACTION TOOL SERVICE, INC.	2202 Mingee Drive ,Hampton
9883	ACTION TRAINING SYSTEMS, INC.	1040 NE Hostmark St #100 ,Poulsbo
9885	ACTION TREE SVC INC	Po Box 4527 ,Warren
9886	ACTION TRUCK CENTER INC	211 Ross Clark Circle Ne ,Dothan
9887	ACTION UNLIMITED	100 Domino Dr ,Concord
9889	ACTION WAREHOUSE LTD	1500 Delaware Street ,Des Moines
9890	ACTION WATER SPORTS	4144 Lincoln Blvd. ,Marina Del Rey
9892	ACTION WINDOW CLEANING CO., INC.	Po Box 320 ,Rensselaer
9893	ACTION WINDOWS INC	1621 Blanding Blvd Ste 102 ,Middleburg
9898	ACTIONABLE INTELLIGENCE TECHNOLOGIES, INC.	Po Box 325 ,Mclean
9901	ACTIONAIDS, INC.	1216 Arch St Fl 6 ,Philadelphia
9902	ACTIONCOACH USA, INC.	5781 S Fort Apache Rd ,Las Vegas
9903	ACTIONET, INC.	2600 Park Tower Drive ,Vienna
9904	ACTIONLINK, LLC	2279 Romig Road ,Akron
9908	ACTIS-GRANDE, RONAN & COMPANY, LLC	30 Main Street Suite 500 ,Danbury
9909	ACTIUM CONSULTING INC	Po Box 4631 ,El Dorado Hills
9911	ACTIV FINANCIAL SYSTEMS	120 E Liberty Dr Ste 200 ,Wheaton
9913	ACTIVANT SOLUTIONS, INC.	804 Las Cimas Parkway Suite 200 ,Austin
9914	ACTIVAR, INC.	7808 Creekridge Circle Suite 200 ,Minneapolis
9916	ACTIVATE INC	9520 SW Nimbus Avenue ,Beaverton
9917	ACTIVATE MARKETING SERVICES, LLC	28 2nd Street 3rd Fl ,San Francisco
9918	ACTIVATE NETWORKS INC	1 Newton Executive Park ,Newton
9919	ACTIVATE PROMOTIONAL MARKETING, LLC	13325 South Point Blvd., Suite 100 ,Charlotte
9921	ACTIVATOR SYSTEMS INC	1321 El Finito Way ,Santa Ana
9922	ACTIVCARE LIVING, INC	9619 Chesapeake Dr ,San Diego
9926	ACTIVE AERO GROUP, INC.	2068 E Street ,Belleville
9927	ACTIVE AGING, INC.	1034 Park Ave. ,Meadville
9928	ACTIVE AIR FREIGHT, LLC	1600 Ridgeview Circle ,Auburn
9929	ACTIVE AIR, INC.	3050 Industrial Lane, Suite 101 ,Broomfield
9931	ACTIVE BODY CHIROPRACTIC	8945 W. Post Road ,Las Vegas
9932	ACTIVE BOLT & SCREW COMPANY, INC	730 South Main ,Memphis
9933	ACTIVE BROADBAND NETWORKS, INC.	20 Speen Street ,Framingham
9934	ACTIVE BUILDING LLC	615 2nd Ave Suite 700 ,Seattle
9935	ACTIVE CAPTIVE MANAGEMENT, LLC	16485 Laguna Canyon Rd., Suite 250 ,Irvine
9937	ACTIVE CARE CHIROPRACTIC PLLC	3201 E. Memorial ,Edmond
9939	ACTIVE CHIROPRACTIC	915 Main Street, Suite 101 ,Evansville
9941	ACTIVE COMMUNICATIONS, INC.	P.O. Box 5945 ,Eagle
9944	ACTIVE CONSTRUCTION, INC.	P.O. Box 430 ,Puyallup
9945	ACTIVE CONSULTING GROUP INC	18 Carter Road ,Shrewsbury
9946	ACTIVE DATA EXCHANGE, INC	190 Brodhead Road ,Bethlehem
9948	ACTIVE DATA SOLUTIONS	25 Hull Street ,Warwick
9949	ACTIVE DAY, INC.	6 Neshaminy Interplex Suite 401 ,Trevose
9951	ACTIVE DISPOSAL SERVICE	Po Box 1115 ,Somerville
9952	ACTIVE DOOR & WINDOW CO INC	222A E Annt St ,Punta Gorda
9953	ACTIVE EDGE PHYSICAL THERAPY &	2020 8th Ave Ste D ,West Linn
9954	ACTIVE ELECTRIC, INC.	1885 Southtown Blvd. ,Dayton
9955	ACTIVE ELECTRICAL SUPPLY COMPANY	4240 W. Lawrence Avenue ,Chicago
9956	ACTIVE ENDPOINTS, INC.	3 Enterprise Drive ,Shelton
9958	ACTIVE ENVIRONMENTAL TECHNOLOGY, INC.	203 Pine Street ,Mount Holly
9960	ACTIVE EXCAVATING & WRECKING, INC.	817 E. North Street ,Elburn
9961	ACTIVE FAMILY CHIROPRACTIC, LLC	11790 Baron Cameron Avenue, Suite J ,Reston
9969	ACTIVE FOOT & ANKLE CARE CENTER	4-14 Saddle River Rd. Suite 101 ,Fair Lawn
9970	ACTIVE FOOT & ANKLE CARE, LLC	300 S. Dorsett ,Troy
9974	ACTIVE HEALTH CHIROPRACTIC	1523 2nd Avenue North ,Fort Dodge
9976	ACTIVE HOME CARE SERVICES, INC.	401 N. Stemmons ,Sanger
9977	ACTIVE IMAGING SERVICES, LLC	7098 Industrial Highway ,Macon
9979	ACTIVE INTEREST MEDIA, INC.	300 Continental Blvd Suite 650 ,El Segundo
9980	ACTIVE LEARNING INC	Po Box 2307 ,Brentwood
9981	ACTIVE LIFE INC.	1530 E. Chevy Chase Dr., 205 ,Glendale
9983	ACTIVE LIVING CHIROPRACTIC, INC.	303 Plaza Drive ,Greenville
9984	ACTIVE LOGISTICS INC	35 Lyman St ,Northborough
9985	ACTIVE MANUFACTURING CORP	17127 Hickory Street ,Spring Lake
9986	ACTIVE MARKETING GROUP, INC.	871 Midpoint Dr ,O Fallon
9989	ACTIVE MIND FUEL, LLC	73 Newark Pompton Tpk. ,Riverdale
9990	ACTIVE MINERALS INTERNATIONAL, LLC	34 Loveton Cr ,Sparks
9991	ACTIVE MOTIF	1914 Palomar Oaks Way, Suite 150 ,Carlsbad
9992	ACTIVE MOTION PHYSICAL THERAPY	1325 S. Colorado Blvd. # 206 ,Denver
9993	ACTIVE NET, LLC	4406 Wellington Blvd. ,Alexandria
9994	ACTIVE NETWORK, LLC	10182 Telesis Ct Ste 300 ,San Diego
9997	ACTIVE PARENTING PUBLISHERS, INC.	1220 Kennestone Circle Suite 130 ,Marietta
9999	ACTIVE PHYSICAL THERAPY NEVADA LLC	3594 West Plumb Lane Suite B ,Reno
10002	ACTIVE PLUMBING SUPPLY COMPANY	216 Richmond Street ,Painesville
10003	ACTIVE PODIATRY	6820 Parkdale Place ,Indianapolis
10004	ACTIVE POLICY SOLUTION	9909 Inglemere Drive ,Bethesda
10005	ACTIVE POWER, INC.	2128 West Braker Lane, Bk12 ,Austin
10006	ACTIVE PRODUCTION AND DESIGN INC	1300 Logan Circle NW ,Atlanta
10009	ACTIVE RISK INC.	13221 Woodland Park Drive ,Herndon
10010	ACTIVE SALES CO., INC.	8743 Sorensen Avenue ,Santa Fe Springs
10011	ACTIVE SCREW AND FASTENER	5215 Old Orchard Rd., Suite 700 ,Skokie
10012	ACTIVE SIGNAL TECHNOLOGIES, INC.	611 Q Hammonds Ferry Road ,Linthicum
10013	ACTIVE SOLUTIONS, LLC	315 S. Roman Street ,New Orleans
10014	ACTIVE SPECTRUM INC.	1191 Chess Dr., Ste F ,Foster City
10016	ACTIVE SPORTS INC-THE HOUSE	200 S Owasso Blvd ,Saint Paul
10018	ACTIVE TECH INC	9 Hillrise ,Trabuco Canyon
10020	ACTIVE TELESOURCE, INC.	4099 SE International Way ,Milwaukie
10022	ACTIVE TRANSPORTATION ALLIANCE	9 W Hubbard Street #402 ,Chicago
10023	ACTIVE TREATMENT SYSTEMS, INC.	6301 Angelo Court, Suite 9 ,Loomis
10025	ACTIVE VIDEO NETWORKS, INC.	333 West San Carlos Street ,San Jose
10026	ACTIVE VISION INC.	711-6 Koehler Ave ,Ronkonkoma
10028	ACTIVE WEB GROUP, INC.	30 Oser Ave Ste 500 ,Hauppauge
10029	ACTIVE WEBSITE, LLC	575 Union Boulevard ,Lakewood
10031	ACTIVEAID, INC.	101 Activeaid Rd ,Redwood Falls
10033	ACTIVECARE PHYSICAL THERAPY LL	1613 Walnut Street ,Cary
10037	ACTIVEPRIME INC	800 West El Camino Real Ste180 ,Mountain View
10038	ACTIVES INTERNATIONAL, LLC	6 Pearl Court Unit G ,Allendale
10039	ACTIVE-SEMI, INC.	One Allen Center Suite 330 ,Allen
10040	ACTIVEWORLDS INC.	Po Box 27740 ,Las Vegas
10041	ACTIVIDENTITY, INC.	6623 Dumbarton Circle ,Fremont
10042	ACTIVISION BLIZZARD	3100 Ocean Park Blvd ,Santa Monica
10044	ACTIVITIES PRESS, INC.	7181 Industrial Park Blvd. ,Mentor
10045	ACTIVITY LINK SYSTEMS, LLC	P.O. Box 3025 ,Kahului
10046	ACTIVMED PRACTICES & RESEARCH, INC.	421 Merrimack St., Ste. 203 ,Methuen
10047	ACTIVSTYLE	1701 Broadway Street Ne ,Minneapolis
10048	ACTIVTRAX, LLC	Po Box 60560 ,Potomac
10049	ACTIVUS SOLUTIONS, L.L.C.	13 Prince Henry Drive, Suite 1 ,Randolph
10050	ACTIVX BIOSCIENCES, INC.	11025 North Torrey Pines Road ,La Jolla
10051	ACTIX, INC.	1390 Timberlake Manor Pkwy ,Chesterfield
10052	ACTON & SNYDER, LLP	11 East North Street ,Danville
10054	ACTON CORPORATION	109 Foothills Parkway, Suite 113 ,Chelsea
10055	ACTON DENTAL ASSOCIATES, P.C.	179 Great Road ,Acton
10056	ACTON FAMILY DENTAL CARE INC	249 Central Street ,Acton
10057	ACTON FORD, INC.	76 Powdermill Road ,Acton
10058	ACTON INTERNATIONAL LTD.	5760 Cornhusker Hwy Suite 1 ,Lincoln
10059	ACTON LINCOLN MERCURY, INC.	196 Great Road ,Acton
10061	ACTON MANAGEMENT, INC.	Po Box 2350 ,Acton
10063	ACTON METAL PROCESSING CORPORATION	41 Athletic Field Road ,Waltham
10064	ACTON MICKELSON ENVIRONMENTAL, INC	1107 Investment Blvd. ,El Dorado Hills
10065	ACTON PHARMACEUTICALS INC	C/O Meda Pharmaceuticals Inc. ,Somerset
10066	ACTON PHARMACY, INC.	563 Massachusetts Avenue ,Acton
10068	ACTON ROAD PEDIATRICS, LLC	2409 Acton Rd Ste 171 ,Birmingham
10069	ACTON TECHNOLOGIES, INC.	100 Thompson Street ,Pittston
10071	ACTON VETERINARY CLINIC PC	470 Youngs Ridge Rd ,Acton
10072	ACTON, INC.	2025 Heritage Park Drive ,Oklahoma City
10073	ACTORS EQUITY ASSOCIATION	165 West 46th Street ,New York
10074	ACTORS FEDERAL CREDIT UNION	165 W. 46th Street ,New York
10077	ACTRON ENTITIES, INC.	2868 Chelsea Place North ,Clearwater
10078	ACTRON MANUFACTURING, INC.	1841 Railroad St ,Corona
10080	ACTRON STEEL, INC.	P.O. Box 966 ,Traverse City
10081	ACTRONICS, INC.	166 Bear Hill Road ,Waltham
10082	ACTRONIX INC.	476 West Industrial Park Road ,Flippin
10083	ACTS COMMUNICATION INC.	109 Countryside Lane ,Cary
10084	ACTS FLEET MAINTENANCE SERVICE, INC	7917 Coppock Rd ,Corryton
10086	ACTS MEDIA INC.	2380 Wycliff St ,Saint Paul
10087	ACTS OF GRACE, INC.	3010 Woodland View Drive ,Kingwood
10088	ACTS RETIREMENT-LIFE COMMUNITIES, INC.	P.O. Box 90 ,West Point
10089	ACTS, INC.	797 Main St S ,New Ellenton
10090	ACTS93, INC.	28202 Cabot Road, Suite 300 ,Laguna Niguel
10092	ACTUAL SIZE, INC.	16000 Ventura Blvd., Suite 900 ,Encino
10093	ACTUALIZE CONSULTING, LLC	1252 Center Harbor Pl. ,Reston
10094	ACTUANT CORPORATION	N86 W12500 Westbrook Crossing ,Menomonee Falls
10098	ACTUARIAL BENEFITS & DESIGN COMPANY	1523 Huguenot Road ,Midlothian
10099	ACTUARIAL BENEFITS CORP.	2790 Skypark Drive Suite 300 ,Torrance
10100	ACTUARIAL CAREERS INC	11 Martine Ave Fl 9 ,White Plains
10102	ACTUARIAL CONSULTANTS, INC.	2377 Crenshaw Blvd Ste 350 ,Torrance
10103	ACTUARIAL CONSULTING GROUP, INC.	10 Pointe Drive, Suite 155 ,Brea
10106	ACTUARIAL CONSULTING SERVICES, INC.	200 John James Audubon Parkway ,Amherst
10108	ACTUARIAL DESIGNS & SOLUTIONS, INC.	200 Us Route One, Suite 120 ,Scarborough
10111	ACTUARIAL INSURANCE CONSULTANTS, LTD.	381 Highway 20 ,Loganville
10112	ACTUARIAL MANAGEMENT RESOURCES, INC.	4964 University Parkway ,Winston-Salem
10114	ACTUARIAL RESEARCH CORPORATION	6928 Little River Turnpike, Suite E ,Annandale
10115	ACTUARIAL RESEARCH GROUP INC	11511 Katy Fwy Ste 354 ,Houston
10116	ACTUARIAL RESOURCES CORPORATION	4080 Mcginnis Ferry Road ,Alpharetta
10117	ACTUARIAL RESOURCES CORPORATION OF KANSAS	6720 West 121st Street Suite 200 ,Overland Park
10118	ACTUARIAL RISK MANAGEMENT, LTD.	6500 River Place Blvd ,Austin
10119	ACTUARIAL SERVICE COMPANY, P.C.	5669 Martell ,Troy
10120	ACTUARIAL SERVICES GROUP, INC.	16200 Addison Road, Suite 120 ,Addison
10121	ACTUARIAL SOLUTIONS CORP.	113 Deerlake Drive ,Asheville
10122	ACTUARIAL STRATEGIES & TACTICS, INC.	1777 Botelho Drive, Suite 390 ,Walnut Creek
10123	ACTUARIAL SYSTEMS CORPORATION	209 South Olive Avenue ,West Palm Beach
10124	ACTUARIES & BENEFIT CONSULTANTS, INC.	4590 North State Road 75 ,North Salem
10126	ACTUATE CORPORATION	951 Mariners Island Blvd. ,San Mateo
10127	ACTUATED MEDICAL, INC.	310 Rolling Ridge Drive ,Bellefonte
10129	ACTUATOR SPECIALTIES, INC.	1620 Rose St. ,Monroe
10130	ACTU-LUM USA INC.	2830 Bell Wood Road ,Mcintyre
10133	ACTUS MANUFACTURING, INC.	240 Arlington Avenue East ,St. Paul
10134	ACU CUT INC	200 Town Line Road ,Southington
10135	ACU SPEC INC	14425 Kester Court ,San Martin
10136	ACUATIVE CORPORATION	30 Two Bridges Road ,Fairfield
10137	ACUCAL INCORPORATED	11090 Industrial Road ,Manassas
10138	ACUCELA INC.	1301 2nd Ave ,Seattle
10140	ACU-DATA BUSINESS PRODUCTS, INC.	1572 Route 23 North ,Butler
10142	ACUFF & ASSOCIATES, INC.	210 Westwood Place ,Brentwood
10143	ACUFF ACCOUNTING & TAX SERVICES,	1920 Highway 81 Sw ,Loganville
10145	ACUFF HOMES CO., INC.	P.O. Box 24166 ,Stanley
10146	ACUFF HOMES, INC.	Post Office Box 38295 ,Colorado Springs
10147	ACUFF ORTHODONTICS, INC	300 Walnut Grove Rd. ,Cartersville
10149	ACUFOCUS, INC.	32 Discovery Suite 200 ,Irvine
10150	ACUITAS, INC.	1360 Peachtree Street, Suite 950 ,Atlanta
10153	ACUITY ADVISORS AND CPAS, LLP	454 New Holland Ave. Suite 200 ,Lancaster
10155	ACUITY BRANDS, INC.	1170 Peachtree Street Ne ,Atlanta
10156	ACUITY CAPITAL MANAGEMENT LLC	60 Arch Street ,Greenwich
10157	ACUITY CONSULTING GROUP, LLC	125 Whipple Street ,Providence
10158	ACUITY CONSULTING, INC.	6910 Richmond Highway - Suite 500 ,Alexandria
10159	ACUITY HEALTHCARE LP	10200 Mallard Creek Road, Suite 300 ,Charlotte
10160	ACUITY HOLDING, INC.	5055 Keller Springs Rd ,Addison
10161	ACUITY HUMAN RESOURCES, LLC	111 Aberdeen Drive ,Cranberry Twp
10164	ACUITY MEDICAL INC	511 Pride Of Baltimore Drive ,Arnold
10165	ACUITY MEDICAL, INC	3565 Ids Center 80 South 8th St ,Minneapolis
10166	ACUITY NEUROLOGY, S.C.	3200 Westhill Dr Ste 101 ,Wausau
10167	ACUITY PARTNERS, INC.	82 Beechwood Rd ,Wellesley
10168	ACUITY SOLUTIONS INCORPORATED	7320 SW Hunziker Street ,Tigard
10171	ACUITY, A MUTUAL INSURANCE COMPANY	2800 S Taylor Dr ,Sheboygan
10172	ACUITY, INC.	1300 Pennsylvania Avenue NW ,Washington
10173	ACUITYBIO CORPORATION	200 Upland Rd ,Newton
10174	ACULAB INC.	100 River Ridge Drive ,Boston
10175	ACULABS, INC.	2 Kennedy Blvd. ,East Brunswick
10177	ACUMED LLC	5885 NW Cornelius Pass Road ,Hillsboro
10178	ACUMEN	452 2nd St. SE, Ste 1275 ,Cedar Rapids
10179	ACUMEN BUILDING ENTERPRISE, INC.	7770 Pardee Lane, Suite 200 ,Oakland
10180	ACUMEN CONSULTING, INC.	230 Fairfield Ave ,Bellevue
10181	ACUMEN CORPORATION	8730 Stony Point Parkway, Suite 185 ,Richmond
10182	ACUMEN DATA SYSTEMS, INC.	2223 Westfield St ,West Springfield
10184	ACUMEN ENGINEERING, INC.	12808 South 600 East ,Draper
10185	ACUMEN FINANCIAL ADVISORS,	8500 Normandale Lake Blvd. ,Bloomington
10186	ACUMEN FINANCIAL GROUP LLC	4026 Trey Dr ,Houston
10187	ACUMEN FINANCIAL SERVICES GROUP, P.C.	2 Centerpoint Drive ,Lake Oswego
10188	ACUMEN INTERNATIONAL INC.	17449 Village Green Drive ,Houston
10189	ACUMEN LEARNING LLC	226 N. Orem Blvd ,Orem
10192	ACUMEN RESEARCH AND CONSULTING,	621 River Road ,Yardley
10193	ACUMEN SCIENTIFIC	275 Elderberry Drive ,Goleta
10194	ACUMEN SOLUTIONS, INC.	1660 International Drive ,Mclean
10196	ACUMEN, INC.	4554 E Inverness Avenue ,Mesa
10197	ACUMENCE LLC	2139 W. Roscoe ,Chicago
10198	ACUMENCE, INC.	2139 W. Roscoe ,Chicago
10199	ACUMENT GLOBAL TECHNOLOGIES	6125 E. 18 Mile Road ,Sterling Heights
10200	ACUMENT INVESTMENTS INC	1505 W Granada Ct ,Ontario
10201	ACUMENTRA HEALTH, INC.	2020 SW 4th Ave Ste 520 ,Portland
10203	ACUMIUM LLC	717 John Nolen Drive ,Madison
10205	ACUO TECHNOLOGIES, LLC	8009 34th Avenue South ,Bloomington
10208	ACUPATH LABORATORIES, INC.	28 S Terminal Drive ,Plainview
10210	ACUPOLL PRECISION RESEARCH, INC.	8500 Broadwell Road ,Cincinnati
10211	ACUPOWDER INTERNATIONAL, LLC	901 Lehigh Avenue ,Union
10213	ACUPUNCTURE & CHIROPRACTIC CENTER, PC	716 South Second Street ,Springfield
10214	ACUPUNCTURE & WELLNESS CENTER	18870 8th Ave NE S -108 ,Poulsbo
10215	ACUPUNCTURE AND WELLNESS CENTER OF NAPLES, LLC	5683 Naples Blvd ,Naples
10217	ACUPUNCTURE HEALTH NETWORK	3121 Wilmington Road, #2 ,New Castle
10218	ACUPUNCTURE PLUS, LLC	930 Logan St #205 ,Denver
10220	ACUPUNCTURE WELLNESS CENTER, INC.	612 Wells Street, Ste. A ,Lake Geneva
10221	ACURA OF BATON ROUGE	13550 Airline Hwy. ,Baton Rouge
10222	ACURA OF BELLEVUE	13424 NE 20th Street ,Bellevue
10223	ACURA OF OCEAN	909 Route 35N ,Ocean
10224	ACURA PHARMACEUTICALS INC	616 N North Court Suite 120 ,Palatine
10226	ACUREN INSPECTION	705 Albany St ,Dayton
10227	ACUREN INSPECTION, INC.	30 Main Street, Suite 402 ,Danbury
10228	ACUREN USA, INC.	30 Main Street, Suite 402 ,Danbury
10229	ACURIAN, INC.	2 Walnut Grove Drive ,Horsham
10230	ACU-RITE, INC.	333 E. State Park Way ,Schaumburg
10231	ACUSCRIBE COURT REPORTERS, INC.	1601 Rio Grande, Suite 443 ,Austin
10232	ACU-SERVE CORP	2020 Front St Ste 205 ,Cuyahoga Falls
10233	ACUSHNET COMPANY	333 Bridge Street ,Fairhaven
10234	ACUSHNET RUBBER COMPANY, INC. D.B.A. PRECIX	744 Belleville Avenue ,New Bedford
10235	ACUSIS	Four Smithfield Street ,Pittsburgh
10236	ACUSPHERE, INC.	99 Hayden Ave ,Lexington
10237	ACUSPORT CORPORATION	One Hunter Place ,Bellefontaine
10239	ACUSTRIP, COMPANY INC	124 E Main Street ,Denville
10240	ACUSYS INC	4401 Ford Ave Ste 100 ,Alexandria
10241	ACUTE CARE EXPERTS, INC.	39 Milltown Road ,East Brunswick
10242	ACUTE CARE HEALTH SYSTEM	500 River Avenue, Suite 150 ,Lakewood
10248	ACUTE CARE VETERINARY CLINIC, INC.	411 Vaughn Road ,Martinez
10252	ACUTE NURSING SOLUTIONS LLC	1301 E University Drive Ste 104 ,Tempe
10254	ACUTEC PRECISION MACHINING, INC.	16891 State Highway 198 ,Saegertown
10255	ACUTECH GROUP INC	Dba Acutech Consulting Group ,Vienna
10256	ACUTECH LLC	25831 Pierina Dr ,Elkhart
10258	ACUTEK SERVICES INC	5335 Sand Dr ,West Olive
10260	ACUTHERM LLC	1766 Sabre St ,Hayward
10262	ACUTRANS,LLC	3374 N University ,Provo
10264	ACUTRONIC USA, INC.	700 Waterfront Drive ,Pittsburgh
10265	ACUVEST BROKERS, LLC	427 Bedford Rd Ste 170 ,Pleasantville
10266	ACUVEST GLOBAL ADVISORS	3100 Oak Rd. #380 ,Walnut Creek
10267	ACV LOGISTICS LLC	8560 Siempre Viva Rd Ste 1 ,San Diego
10268	ACV, INC.	C/O Cpi-Qpc, Inc. ,Great Bend
10271	ACVREP	4732 N Oracle Rd Ste 217 ,Tucson
10272	ACVU, INC.	850 North Kolb Road ,Tucson
10274	ACW GROUP, LLC	1000 Bishop St Ste 600 ,Honolulu
10275	ACW HEALTHCARE, INC.	148 Kings Highway West ,Haddonfield
10276	ACW INC	524 Highway 20 North ,Hines
10278	ACW SOLUTIONS, INC.	8906 Wall St. #401 ,Austin
10280	ACXIOM CORPORATION	601 East Third Street ,Little Rock
10281	ACXIOX	87 Olympic Drive NW ,Seattle
10282	ACXIUS STRATEGIC CONSULTING, LLC	2 Jade Drive ,Morganville
10283	ACY COMMUNICATIONS, INC.	342 Hower St., Ne ,Canton
10284	ACZ LABORATORIES, INC.	2773 Downhill Drive ,Steamboat Springs
10285	ACZ, INC.	503 Pennsylvania Avenue ,Charleston
10287	AD AND C MANAGEMENT COMPANY	Po Box 673 ,College Park
10292	AD ASTRA ROCKET COMPANY	141 W Bay Area Blvd ,Webster
10293	AD BIOTECH SOLUTIONS	27 Dryrock Ave 7 Floor ,Boston
10294	AD BLOCKS, INC.	P O Box 2310 ,Biddeford
10295	AD CORPORATION	1301 West President George Bush Hwy ,Richardson
10296	AD EASE, INC.	170 Laurel Street ,San Diego
10299	AD GRAPHICS, INC.	3101 West Mcnab Road ,Pompano Beach
10300	AD HAWK INC.	13310 Arrowsprings Drive ,Reno
10301	AD HOC COMMUNICATIONS INC.	38 Laurel Trail South ,Dawsonville
10302	AD IDEAS OF WISCONSIN, INC.	741 Vanderperren Way ,Green Bay
10303	AD INK, LLC	1266 East Main Street - Suite 700R ,Stamford
10304	AD LUBOW, LLC	One Penn Plaza ,New York
10305	AD MANAGEMENT GROUP	7851 Metro Parkway, Suite 121 ,Bloomington
10306	AD METHODS HALPERN 7 EURICH, ADVERTISING, INC.	811 West Jericho Turnpike Ste 109E ,Smithtown
10307	AD PLANET, INC.	26 Edwards Drive ,Brewster
10308	AD PLANNING & MANAGEMENT, INC.	421 Broad Street ,Utica
10309	AD PLUS INC	747 Third Avenue ,New York
10310	AD READY	107 NE 64th Street ,Seattle
10311	AD SALES, INC.	12220 Birmingham Hwy ,Milton
10312	AD SERVICES INC	9701 Richmond Ave Ste 122 ,Houston
10315	AD TAPE AND LABEL COMPANY INC	W140 N9504 Fountain Blvd ,Menomonee Falls
10316	AD TECH SEAL, INC.	590 West Central Ave, Unit B ,Brea
10317	A-D TECHNOLOGIES	11400 Parkside Dr ,Knoxville
10319	AD VALOREM INC	W170N5167 Shagbark Road ,Menomonee Falls
10320	AD VALOREM SOLUTIONS LLC	351 California Street, Suite 900 ,San Francisco
10321	AD VALOREM SPECIALISTS LLC	Po Box 366 ,Addison
10322	AD VALOREM TAX, INC.	1931 Rohlwing Road #A ,Rolling Meadows
10325	AD WEAR INC.	3338 Parkway Blvd ,Salt Lake City
10326	AD&M, INC.	23 Industrial Way ,Trenton
10328	AD/SOLUTIONS GROUP, INC.	1200 Harger Road, Suite 203 ,Oak Brook
10330	ADA ARCHTECTS, INC.	17710 Detroit Ave. ,Lakewood
10332	ADA BODY SHOP, INC.	5363 East Fulton ,Ada
10334	ADA CARBON SOLUTIONS, LLC	1460 W. Canal Court ,Littleton
10335	ADA COMMUNICATIONS INC	1108 Tidewater Drive ,Norfolk
10336	ADA COMPLIANCE CONSULTANTS, INC.	P.O. Box 6716 ,Folsom
10338	ADA ENGINEERING, INC.	271 Main Street Suite L01 ,Stoneham
10341	ADA HOSPITAL FOR ANIMALS, INC	1770 Grand River Dr Ne ,Ada
10345	ADA MANAGEMENT, INC.	385 Garrisonville Rd ,Stafford
10351	ADA PEDIATRICS PA	650 North Cole Road ,Boise
10352	ADA PEDIATRICS, P.A.	650 N Cole Road ,Boise
10353	ADA PRODUCTS COMPANY INC	2350 W Florist Ave ,Milwaukee
10355	ADA S. MCKINLEY COMMUNITY SERVICES, INC.	1359 West Washington Boulevard ,Chicago
10356	ADA SOLUTIONS, INC.	10 Elizabeth Drive Unit 5 ,Chelmsford
10358	ADA TECHNOLOGIES, INC.	805 E North Ave ,Ada
10360	ADAC PLASTICS, INC.	5920 Tahoe Dr Se ,Grand Rapids
10361	ADACEL SYSTEMS INC.	9677 Tradeport Dr ,Orlando
10364	ADACORE TECHNOLOGIES, INC.	104 Fifth Avenue ,New York
10365	ADA-ES, INC.	9135 South Ridgeline Boulevard ,Highlands Ranch
10366	ADAGE CAPITAL MANAGEMENT LP	200 Clarendon St., 52nd Floor ,Boston
10368	ADAGE TECHNOLOGIES, INC.	10 South Riverside Plaza ,Chicago
10370	ADAGIO COLLECTION LLC	6803 South 300 West ,Midvale
10371	ADAGIO GRAPHICS, LLC	628 E. Parent Ave., Suite 506 ,Royal Oak
10372	ADAGIO GROUP, INC.	5517 Channel Isle Drive ,Plano
10373	ADAGIO HEALTH INC	960 Penn Avenue, Suite 600 ,Pittsburgh
10380	ADAIR & MYERS, PLLC	3120 Southwest Freeway ,Houston
10381	ADAIR CAPITAL, LLC	1430 Broadway, Suite 803 ,New York
10383	ADAIR COUNTY AMBULANCE DISTRICT	606 W. Potter Avenue ,Kirksville
10384	ADAIR COUNTY GOVERNMENT	106 W Washington ,Kirksville
10386	ADAIR COUNTY HEALTH DEPARTMENT	1001 S. Jamison ,Kirksville
10389	ADAIR ENGINEERING, INC.	1031 Longview Avenue ,Pismo Beach
10391	ADAIR FUNERAL HOMES, INC.	1050 N Dodge Blvd ,Tucson
10392	ADAIR GROUP, INC.	2825 N. Speer Blvd. ,Denver
10393	ADAIR HOMES, INC.	1101 SE Tech Center Drive ,Vancouver
10395	ADAIR LAW FIRM, LLC	4914 Cahaba River Road ,Birmingham
10398	ADAIR PRINTING COMPANY	7850 Second St ,Dexter
10400	ADAIR, MORRIS & OSBORN, PC	325 N St. Paul St ,Dallas
10403	ADALET /SCOTT FETZER COMPANY	4801 West 150th Street ,Cleveland
10404	ADALSAN, INC.	50 Jericho Turnpike ,Jericho
10405	ADAM & BING P.C.	12611 Jones Rd. ,Houston
10406	ADAM & MCDONALD, P.A.	Po Box 7190 ,Shawnee Mission
10407	ADAM A WESCHLER & SON INC.	905 E St NW ,Washington
10409	ADAM B LECRONE PC	Wall Street Plaza 123 N Crockett ,Sherman
10410	ADAM BARLOW LAW P.C.	1013 S. Stapley Dr. ,Mesa
10411	ADAM BLOCK DESIGN, LLC	25252 Mawson Dr ,Laguna Hills
10412	ADAM BRODERICK IMAGE GROUP, INC.	89 Danbury Road ,Ridgefield
10413	ADAM BUTLER TEAM, INC.	14915 S. Quivira Rd ,Olathe
10416	ADAM C. MOORE, DDS, PLLC	701 Mordecai Towne Place ,Raleigh
10420	ADAM CREASE SHIPPING INC	4747 36th St ,Long Island City
10421	ADAM D KARNS MD	5901 W Olympic Blvd Ste 208 ,Los Angeles
10424	ADAM D. COHEN MD PC	2800 Marcus Avenue ,New Hyde Park
10427	ADAM DASH	48 Grove St Ste 304 ,Somerville
10428	ADAM DAVIS DMD LLC	1150 Crater Lake Ave Ste I ,Medford
10429	ADAM DIESBURG, DDS	1927 NE Baker Street ,Mcminnville
10430	ADAM DOLLE INCORPORATED	200 West 20th Street ,New York
10433	ADAM EIDEMILLER, INC.	56 Sheraton Drive, Suite 100 ,Greensburg
10434	ADAM ELECTRONICS, INC.	652 Ajax Drive ,Madison Heights
10435	ADAM EQUIPMENT INC	26 Commerce Drive ,Danbury
10438	ADAM FRIEDMAN ASSOCIATES LLC	28 West 44th St ,New York
10443	ADAM GOODMAN DMD	440 East 57th St ,New York
10445	ADAM HILL CO	142 Utah Ave ,South San Francisco
10446	ADAM INFORMATION TECHNOLOGIES	402 Gammon Place, Suite 270 ,Madison
10447	ADAM J BARR DDS PA	980 Mount Homer Rd ,Eustis
10449	ADAM J RUBINSTEIN MD PA	19495 Biscayne Blvd # 200-201 ,Aventura
10450	ADAM J. BARD MD LLC	2150 Black Rock Tpke. ,Fairfield
10452	ADAM J. BRESSLER, DDS P.A.	8381 Seminole Blvd. ,Seminole
10455	ADAM J. FRIEDER, D.D.S.	401 W 7th Street ,Frederick
10456	ADAM J. JANETTE DDS, INC.	77 Casa Street Suite 101 ,San Luis Obispo
10459	ADAM J. WEISS, D.M.D., P.C.	C/O P.O. Box 819 ,Blue Bell
10460	ADAM K SMITH	402 E 65th Street ,New York
10463	ADAM L. WILDING, DC PC D/B/A/ COMMONWEALTH FAMILY CHIROPRACTIC	140 Professional Circle ,Williamsburg
10464	ADAM LEITMAN BAILEY PC	120 Broadway 17th Fl ,New York
10466	ADAM LEVINE PRODUCTIONS, INC.	10960 Wilshire Blvd. 5th Floor ,Los Angeles
10469	ADAM M. GOODMAN, STANDING CHAPTER 13 TRUSTEE	260 Peachtree St NW Ste 200 ,Atlanta
10470	ADAM M. HOGAN, D.D.S., P.C.	2021 Pleasure House Road ,Virginia Beach
10471	ADAM M. KOTLAR, LLC	1913 Greentree Road ,Cherry Hill
10473	ADAM M. ROTUNDA, MD, A PC	1100 Quail Street ,Newport Beach
10474	ADAM MATTHEWS, INC.	2104 Plantside Drive ,Louisville
10476	ADAM MESH TRADING GROUP, LLC	118 East 28th Street, Suite 207 ,New York
10483	ADAM R GLINN, ESQ, L.L.C.	800 Inman Avenue ,Colonia
10484	ADAM R. KOLKER, M.D., P.C	710 Park Avenue ,New York
10486	ADAM R. WEST, INC.	60 Brook Street ,Croton-On-Hudson
10488	ADAM RAUZMAN DDS PC	164 Warburton Ave ,Hawthorne
10490	ADAM ROSS CUT STONE, INC.	1003 Broadway ,Albany
10491	ADAM ROSS LITTMAN, P.A.	1801 Lee Road, Suite 320 ,Winter Park
10493	ADAM S. COLOMBO, D.D.S., P.A.	7301 Mission Road, Suite 317 ,Prairie Village
10495	ADAM S. KAUFMAN, INC.	28879 Chagrin Blvd. ,Woodmere
10500	ADAM SPIEGELMAN	111 Sutter Street #1800 ,San Francisco
10501	ADAM STEWART DBA MOORAD, CLARK & STEWART	1020 15th St., Suite 22 ,Modesto
10506	ADAM TATTELBAUM MD PC	3203 Tower Oaks Blvd ,Rockville
10507	ADAM TOOL AND MANUFACTURING COMPANY	900 North Larch ,Elmhurst
10508	ADAM TYBERG D.D.S. P.C. DBA DENTAL CARE OF SHERWOOD	21000 Southwest Dahke Lane ,Sherwood
10509	ADAM W BULL ATTORNEY AT LAW	160 E Chestnut St ,Asheville
10510	ADAM W. BRAZUS, MD, PC	8433 Harcourt Road, Suite 305 ,Indianapolis
10514	ADAM WILLIAMS FINE ART, LTD.	24 East 80th Street ,New York
10521	ADAMAS CAPITAL MANAGEMENT, L.L.C.	The Pilot House At Lewis Wharf ,Boston
10522	ADAMAS DIAMOND CORPORATION	10 South Highway 27 ,Somerset
10523	ADAMAS PHARMACEUTICALS, INC.	2200 Powell Street, Suite 220 ,Emeryville
10524	ADAMAS, LLC	8391 Market Street ,Boardman
10525	ADAMBA IMPORTS INTERNATIONAL, INC.	585 Meserole Street ,Brooklyn
10527	ADAMCZYK LAW OFFICES	304 Ross Street, Ste 300 ,Pittsburgh
10528	ADAMEC CYCLE SALES COMPANY, INC.	8909 Baymeadows Road ,Jacksonville
10529	ADAM-EVE PLUMBING & DRAIN INC.	1180 Tibbetts Wick Road ,Girard
10530	ADAMI, SHUFFIELD, SCHEIHING & BURNS, PC	9311 San Pedro Avenue ,San Antonio
10534	ADAMO & ASSOCIATES INC	21060 Homestead Rd Ste 120 ,Cupertino
10536	ADAMO CONSTRUCTION, INC.	11980 Woodside Avenue, Suite 5 ,Lakeside
10537	ADAMO DEMOLITION COMPANY	320 East Seven Mile Road ,Detroit
10538	ADAMO, INC.	19 Shadow Wood Circle ,Monroe
10539	ADAMOWSKI & ADAMOWSKI, P.C.	536 Hawthorn Street ,Dartmouth
10540	ADAMS & ADAMS, INC.	2125 Acushnet Avenue ,New Bedford
10543	ADAMS & ASSOCIATES, INC.	175 Cascade Court, Suite A ,Rohnert Park
10544	ADAMS & BROWN COUNTIES ECONOMIC OPP ORTUNITIES, INC.	406 W Plum St ,Georgetown
10545	ADAMS & CIARMELLO AUTOMOTIVE	872 Lincoln Ave ,West Chester
10548	ADAMS & DIACO, P.A.	101 East Kennedy Boulevard ,Tampa
10549	ADAMS & FOGG OIL EQUIPMENT CO	309 Us Route 1 ,Falmouth
10551	ADAMS & GRAHAM LLP	134 E. Van Buren ,Harlingen
10552	ADAMS & JORDAN, P.C.	P.O. Box 928 ,Macon
10554	ADAMS & OREILLY, INC.	1855 VeteranS Park Drive ,Naples
10555	ADAMS & PETERSEN CPAS LLC	1689 East 1400 South, Suite 100 ,Clearfield
10557	ADAMS & RUXTON CONSTRUCTION COMPANY	P.O. Box 390 ,West Springfield
10558	ADAMS & SON, INC.	44 South Street ,Auburn
10559	ADAMS & UFFELMAN LLP	Hall Street Station ,Beaverton
10560	ADAMS & WENDT, INC.	461 North Gilbert Road ,Mesa
10563	ADAMS ADAMS & EPPERLY DDS PC	4315 Grove Avenue ,Richmond
10566	ADAMS AND ASSOCIATES	570 Fifth Street, Suite 140 ,Lincoln
10567	ADAMS AND ASSOCIATES, INC.	10400 Little Patuxent Parkway ,Columbia
10570	ADAMS AND GARTH STAFFING	2119 Berkmar Drive ,Charlottesville
10572	ADAMS AND REESE LLP	701 Poydras St Ste 4500 ,New Orleans
10574	ADAMS ASSOCIATES ARCHITECTURE, INC.	126 N. Main Street ,Mooresville
10576	ADAMS AUTOMOTIVE, INC.	1797 West St. ,Annapolis
10579	ADAMS BANK & TRUST	121 N Jeffers ,North Platte
10580	ADAMS BELL ADAMS, PC	28 Main Street East Suite 600 ,Rochester
10582	ADAMS BEVERAGE, INC.	3116 John D. Odom Road ,Dothan
10583	ADAMS BOOK CO., INC.	537 Sackett Street ,Brooklyn
10584	ADAMS BROADWELL JOSEPH & CARDOZO A PROFESSIONAL CORPORATION	601 Gateway Blvd Ste 1000 ,South San Francisco
10586	ADAMS BROTHERS	8401 Axe Handle Rd ,Milford Center
10587	ADAMS BROTHERS, INC.	1600 Northside Drive, NW, Suite 200 ,Atlanta
10588	ADAMS BURKE & ASSOCIATES, LLC	14615 Manchester Road ,Manchester
10589	ADAMS CABLE EQUIPMENT, INC.	9635 Widmer ,Lenexa
10590	ADAMS CAMPBELL CO., LTD.	15343 Proctor Avenue ,City Of Industry
10591	ADAMS CAPITAL INC	4046 Keswick Dr Se ,Atlanta
10592	ADAMS CAPITAL MANAGEMENT, INC.	500 Blackburn Avenue ,Sewickley
10593	ADAMS CATTLE COMPANY	P O Box 218 ,Maple Hill
10594	ADAMS CHEVROLET	1517 Pulaski Hwy ,Havre De Grace
10596	ADAMS CHIROPRACTIC INC. PS	3561 NW Anderson Hill Road ,Silverdale
10597	ADAMS COMMUNICATION & ENGINEERING	10740 Parkridge Blvd Suite 700 ,Reston
10598	ADAMS COMMUNITY BANK	2 Center Street ,Adams
10599	ADAMS COMMUNITY ECONOMIC DEVELOPMENT CORPORATION	710 Davis Avenue ,Corning
10600	ADAMS CONSTRUCTION CO	P.O. Box 657 ,Arapahoe
10601	ADAMS CONSTRUCTION CO.	P.O. Box 12627 ,Roanoke
10603	ADAMS CONSULTING ENGINEERS, INC.	Po Box 131599 ,Tyler
10604	ADAMS CONTRACTING COMPANY	224 Sweetwater Road ,Robbinsville
10606	ADAMS COUNTY ANIMAL HOSPITAL	8020 Sheridan Boulevard ,Arvada
10608	ADAMS COUNTY BANK	401 North Smith Street ,Kenesaw
10611	ADAMS COUNTY COMMUNICATION CENTER, INC.	7321 Birch St ,Commerce City
10613	ADAMS COUNTY NURSERY, INC.	P.O. Box 108 ,Aspers
10614	ADAMS COUNTY OFFICE FOR AGING, INC.	318 W Middle St ,Gettysburg
10616	ADAMS COUNTY S.P.C.A.	11 Goldenville Road ,Gettysburg
10617	ADAMS COUNTY WINERY	251 Peach Tree Road ,Orrtanna
10618	ADAMS COUNTY YOUTH INITIATIVE	1500 E 128th Ave ,Thornton
10619	ADAMS DENTAL CENTER	8251 Northwoods Drive, Suite A ,Lincoln
10620	ADAMS DENTAL LABORATORY. INC.	255 N. Wilson Street., Suite B ,Nipomo
10622	ADAMS DESIGN ASSOCIATES, INC.	2 20th Street North, Suite 940 ,Birmingham
10623	ADAMS DESIGNERS	1726 South Richey ,Pasadena
10624	ADAMS DOOR CO. OF DES MOINES	6355 N.E. 14th St. ,Des Moines
10625	ADAMS EADDY & ASSOCIATES, INC.	Post Office Box 5595 ,Columbia
10627	ADAMS ELECTRIC COMPANY, INC.	401 N. Greene Street ,Grfeensboro
10628	ADAMS ELECTRIC INC	606 North Main ,Pratt
10629	ADAMS ELECTRIC INC.	504A Nathan Lane ,Elkhorn
10630	ADAMS ELECTRONICS, INC.	7130 Edinger Avenue ,Huntington Beach
10631	ADAMS EMPLOYMENT SERVICES LLC	5955 Crossroads Commerce Pkwy ,Wyoming
10632	ADAMS ESQ.	77 Solano Sq, 194 ,Benicia
10633	ADAMS EUROPEAN CONTRACTING INC.	589 Johnson Avenue ,Brooklyn
10634	ADAMS EXPEDITING SERVICE	1413 Hoffman Canal Ave ,Wildwood
10635	ADAMS EXTERMINATORS, INC.	1702 West Town Road ,Albany
10636	ADAMS EXTRACT & SPICE, LLC	P.O. Box 1726 ,Gonzales
10637	ADAMS FACE VENEER CO., INC.	100 Babcock Street ,Malvern
10638	ADAMS FAIRACRE FARMS, INC.	765 Dutchess Tpke ,Poughkeepsie
10640	ADAMS FARM ANIMAL HOSPITAL, P.A.	5502 Adams Farm Lane ,Greensboro
10641	ADAMS FARMS, INC.	165 16th St Ne ,Reynolds
10642	ADAMS FH, INC.	502 West Michigan Ave. ,Paw Paw
10643	ADAMS FINANCIAL GROUP, INC.	C/O Allstate, 709 Sycamore Avenue ,Tinton Falls
10646	ADAMS FOODMART, INC.	500 Lake Cook Rd 350 ,Deerfield
10648	ADAMS GALLINAR, P.A.	1000 Brickell Avenue ,Miami
10650	ADAMS GOLF, INC.	2801 East Plano Parkway ,Plano
10652	ADAMS GRANITE COMPANY	Po Box 126 ,Barre
10654	ADAMS GROUP ARCHITECTS, PA	11111 Carmel Commons Blvd. ,Charlotte
10656	ADAMS HALL ASSET MANAGEMENT, LLC	4200 East Skelly Drive, Suite 950 ,Tulsa
10657	ADAMS HANOVER ENT, LLC	250 Fame Avenue Suite 201 ,Hanover
10658	ADAMS HENDON CARSON CROW & SAENGER P.A.	72 Patton Avenue ,Asheville
10659	ADAMS HOEFER HOLWADEL, LLC	400 Poydras Street, Suite 2450 ,New Orleans
10660	ADAMS HOLCOMB LLP	1875 I Street, NW ,Washington
10661	ADAMS HORSE & PET SUPPLIES INC	1318 Us Route 202 ,Winthrop
10662	ADAMS INDUSTRIES INC.	1655 Industrial Ave ,Sidney
10663	ADAMS INDUSTRIES, INC.	1945 North 30th Street ,Milwaukee
10664	ADAMS INN LLC	1746 Lanier Place NW ,Washington
10667	ADAMS INSURANCE SERVICE, INC.	427 W 20th Street ,Houston
10669	ADAMS INVESTMENT COMPANY	4100 South East Adam Road ,Bartlesville
10672	ADAMS KEEGAN INC.	6055 Primacy Parkway Suite 300 ,Memphis
10673	ADAMS KESSLER A PROFESSIONAL L	2566 Overland Ave. Ste 730 ,Los Angeles
10674	ADAMS LAND AND CATTLE CO.	327 South First ,Broken Bow
10676	ADAMS LASALLE REALTY LLC	300 S Wacker Dr Ste 1680 ,Chicago
10677	ADAMS LAW FIRM, P.C.	455 Route 304, Suite 105 ,Bardonia
10678	ADAMS LAW GROUP	6004 Brownsboro Park Blvd Ste A ,Louisville
10679	ADAMS LIFE BROKERAGE, INC.	1408 Gables Ct ,Plano
10681	ADAMS LUMBER COMPANY, INC.	6052 Adams Road ,Cattaraugus
10683	ADAMS MACHINERY MOVERS, INC.	P.O. Box 661 ,Ellenwood
10684	ADAMS MAGNETIC PRODUCTS COMPANY	888 Larch Avenue ,Elmhurst
10687	ADAMS MANUFACTURING & ENGINEERING	8641 North 79th Avenue ,Peoria
10688	ADAMS MARKETING & SALES, INC	Suite 378 ,Huntington Beach
10690	ADAMS MARKETING GROUP, INC.	4380 St. Johns Parkway ,Sanford
10691	ADAMS MARTIN & ASSOCIATES PA	3801 Barrett Drive Suite 201 ,Raleigh
10695	ADAMS MENDEL ALLISON CONSTRUCTION, INC.	4891 Independence St ,Wheat Ridge
10696	ADAMS MFG. CORP.	P.O. Box 1, 109 West Park Road ,Portersville
10697	ADAMS MORTGAGE CAPITAL	470 Long Pond Road, Suite 200 ,Rochester
10700	ADAMS OUTDOOR ADVERTISING	500 Colonial Center Pkwy, Ste 120 ,Roswell
10701	ADAMS OUTDOOR ADVERTISING INC.	500 Colonial Center Parkway ,Roswell
10704	ADAMS PEST CONTROL, INC	922 Highway 55 ,Medina
10705	ADAMS PLASTICS, L.P.	501 North Homan Avenue ,Chicago
10706	ADAMS PLUMBING AND HEATING, INC.	P.O. Box 126 ,Adams
10712	ADAMS QB, INC.	7000 N Mopac Expy 2nd Fl ,Austin
10714	ADAMS REMCO, INC.	2612 Foundation Drive ,South Bend
10715	ADAMS RESIDENTIAL CONTRACTING	9616 Roosevelt Way Ne ,Seattle
10716	ADAMS RESOURCES AND ENERGY, INC.	Po Box 844 ,Houston
10719	ADAMS ROBINSON ENTERPRISES, INC.	2735 Needmore Road ,Daytona
10720	ADAMS ROOFING PROFESSIONALS INC	495 Crossen Ave ,Elk Grove Village
10721	ADAMS SAMARTINO AND COMPANY, P.C.	P.O. Box 273 ,Bristol
10722	ADAMS SERVICES INC.	353 Taunton Avenue ,East Providence
10723	ADAMS SOUTHEASTERN CONSTRUCTION, LLC	323 Whisper Park Drive ,Wilmington
10726	ADAMS STATE BANK	P.O. Box 106 ,Adams
10728	ADAMS STEPNER WOLTERMANN & DUSING	40 West Pike Street ,Covington
10729	ADAMS STEPNER WOLTERMANN & DUSING PLLC	40 W Pike St ,Covington
10731	ADAMS STREET PARTNERS LLC	One North Wacker Drive ,Chicago
10733	ADAMS STREET PARTNERS, LLC	One North Wacker Drive ,Chicago
10734	ADAMS STREET PUBLISHING COMPANY	1120 Adams St. ,Toledo
10737	ADAMS SWATEK, LLC	22 West State Street ,Geneva
10739	ADAMS THE PLACE FOR RIBS, INC.	P.O. Box 323 ,Severna Park
10740	ADAMS THERMAL SYSTEMS	47920 5th St ,Canton
10741	ADAMS TRANSFER & STORAGE CO. INC.	795 Georgia Ave ,Gainesville
10742	ADAMS TRANSIT INC	Po Box 338 ,Friesland
10744	ADAMS TRUCKING & SUPPLY INC	3700 Us Rte 60 E ,Barboursville
10745	ADAMS USA, INC.	P.O. Box 489 ,Cookeville
10746	ADAMS VALUATION CORPORATION	One Trans Am Plaza Drive, Suite 150 ,Oakbrook Terrace
10747	ADAMS VALVES INC.	12303 Cutten Road ,Houston
10748	ADAMS WAREHOUSE AND DELIVERY	3701 Yale Street ,Houston
10749	ADAMS WATER CONDITIONING INC.	326 E. Jefferson Street ,Plymouth
10750	ADAMS WEALTH ADVISORS, LLC	1160 Windsor Dr ,Logan
10751	ADAMS WHOLESALE COMPANY	101 Nashville Road ,Rocky Mount
10752	ADAMS WOOD PRODUCTS, INC.	5436 Jeffery Lane ,Morristown
10753	ADAMS WOOD TURNING, INC.	216 Woodbine Street ,High Point
10754	ADAMS, BELANGER & LOSTRACCO, P. C.	305 E. Main St. ,Nacogdoches
10755	ADAMS, BROWN, BERAN & BALL, CHARTERED	Bank Of America Bldg, 2006 Broadwa ,Great Bend
10756	ADAMS, CHAPMAN COMPANY	13 Foodmart Road ,Boston
10758	ADAMS, ELMORE AND FISK, PLC	2 North Main Street ,Chatham
10759	ADAMS, FERRONE & FERRONE	4333 Park Terrace Drive, Suite 200 ,Westlake Village
10760	ADAMS, FISHER & CHAPPELL, P.L.L.C.	122 Court Street South ,Ripley
10761	ADAMS, GILMORE & LYNCH, INC.	3118 Bellwood Drive ,Birmingham
10763	ADAMS, HEMINGWAY & WILSON, LLP	544 Mulberry St ,Macon
10764	ADAMS, INC.	17330 Wright Street, Suite 101 ,Omaha
10766	ADAMS, JENKINS & CHEATHAM, P.C.	231 Wylderose Dr ,Midlothian
10767	ADAMS, MORGENTHALER & CO., INC. DBA AMC ENGINEERS	701 East Tudor Road, Suite 250 ,Anchorage
10768	ADAMS, NASH & HASKELL, INC.	3940 Olympic Blvd., Suite 40 ,Erlanger
10769	ADAMS, REHMANN & HEGGAN ASSOC	850 S White Horse Pike ,Hammonton
10771	ADAMS, UMBACH, DAVIDSON, & WHITE, LLP	205 South 9th Street ,Opelika
10772	ADAMS/COOGLER, P.A.	1555 Palm Beach Lakes Blvd ,West Palm Beach
10773	ADAMS/MALLORY CONSTRUCTION CO., INC.	740 S. Van Buren, Suite A ,Placentia
10774	ADAMS/NYE/BECHT LLP	222 Kearny Street ,San Francisco
10775	ADAMS-BICKEL ASSOCIATES, INC	P.O. Box 441 ,Royersford
10777	ADAMS-HANOVER UROLOGY ASSOC., P.C.	195 Stock Street ,Hanover
10779	ADAMSKI MOROSKI MADDEN CUMBERLAND & GREEN LLP	Post Office Box 3835 ,San Luis Obispo
10780	ADAMSKI PEEK PHOTOGRAPHY LLC	Po Box 680520 ,Park City
10784	ADAMSON AND CO. P.A.	252 Magnolia Avenue ,Winter Haven
10785	ADAMSON BROTHERS, INC	102 S Walnut St ,Ottawa
10786	ADAMSON CONSULTING SERVICES, INC.	161 Manningham Dr ,Madison
10787	ADAMSON ELECTRIC, INC.	3229 Unicorn Road ,Bakersfield
10788	ADAMSON ENGINEERING, L.L.C.	2427 Earl Rudder Fwy South ,College Station
10790	ADAMSON FORD, L.L.C.	1922 2nd Avenue South ,Birmingham
10792	ADAMSON INSURANCE & ASSOCIATES, INC.	2111 South West Woodside Court ,Ankeny
10793	ADAMSON MOTORS, INC.	4800 Highway 52 North ,Rochester
10794	ADAMS-PERFECT FUNERAL HOMES, INC.	1650 New Road ,Northfield
10796	ADAMSTOWN VETERINARY HOSPITAL, LLC	2481 North Reading Road ,Denver
10799	ADAMWORKS, LLC	7367 S Revere Pkwy Unit 2 ,Centennial
10800	ADAMY VALUATION ADVISORS, INC.	161 Ottawa Ave NW, Suite 408 ,Grand Rapids
10803	ADAO GLOBAL LLC	2712 Meister Place ,Round Rock
10804	ADAP.TV	1 Waters Park Dr. ,San Mateo
10805	ADAPA & AGASTYA MEDICAL ASSOCIATES	652 W 11th Street, Suite 137 ,Tracy
10806	ADAPCHAIN, INC.	275 Firehorne Drive ,West Chester
10807	ADAPCO, INC	550 Aero Lane ,Sanford
10808	ADAPT	548 SE Jackson St Ste 3 ,Roseburg
10811	ADAPT COURSEWARE, LLC	17 Schoen Place ,Pittsford
10812	ADAPT ENGINEERING	615 8th Ave S ,Seattle
10813	ADAPT OF AMERICA, INC.	323 Consort Dr ,Ballwin
10814	ADAPT PLASTICS, INC.	7949 Forest Hills Road ,Rockford
10815	ADAPT TECHNOLOGY LLC	2619 Bond St ,Rochester Hills
10816	ADAPT, INC.	5610 Rowland Road ,Minnetonka
10817	ADAPT-ABILITY, INC.	9355 Dielman Industrial Dr ,Saint Louis
10818	ADAPTABLE COMPUTER LLC	95 Ledge Rd Unit 7 ,Seabrook
10819	ADAPTABLE SYSTEMS CORPORATION	1000 Miller Court West ,Norcross
10820	ADAPTASOFT, INC.	106 E. Montgomery ,Francesville
10821	ADAPTECH CORPORATION	301 Mission Ave., Suite 505 ,Oceanside
10822	ADAPTER RESOURCES, LLC	32405 Aurora Road ,Solon
10824	ADAPTEVA, INC.	1666 Massachusetts Avenue ,Lexington
10825	ADAPTIGROUP LLC	33 N. Dearborn Street ,Chicago
10826	ADAPTIK CORPORATION	1495 Valley Center Pkwy ,Bethlehem
10827	ADAPTIVA	Po Box 53102 ,Bellevue
10830	ADAPTIVE COMMUNICATIONS, LLC	230 Commerce Way, Suite 100 ,Portsmouth
10831	ADAPTIVE COMMUNITY APPROACH PROGRAM , INC	121 Wisconsin Ave ,Waukesha
10832	ADAPTIVE COMPUTING ENTERPRISES, INC	1712 S East Bay Blvd Ste 300 ,Provo
10834	ADAPTIVE DIGITAL POWER INC	1879 Lundy Ave ,San Jose
10835	ADAPTIVE DIGITAL TECHNOLOGIES, INC.	525 Plymouth Rd Suite 316 ,Plymouth Meeting
10837	ADAPTIVE ENGINEERING & FABRICATION, INC.	1921 Petra Lane ,Placentia
10839	ADAPTIVE EQUIPMENT COMPANY	3425 S. Clarkson Street ,Englewood
10840	ADAPTIVE GROWTH INC	4204 Royal St. Anne Court ,Saint Charles
10843	ADAPTIVE MANUFACTURING TECHNOL	181 Remington Blvd ,Ronkonkoma
10844	ADAPTIVE METHODS, INC.	5860 Trinity Parkway, Suite 200 ,Centreville
10845	ADAPTIVE MICRO SYSTEMS, LLC	7840 North 86th Street ,Milwaukee
10846	ADAPTIVE MICRO-WARE, INC.	6917 Innovation Blvd. ,Fort Wayne
10847	ADAPTIVE NETWORKS, INC	123 Highland Ave ,Needham
10848	ADAPTIVE NURSING AND HEALTHCARE SERVICES, INC.	702 North Shore Drive ,Jeffersonville
10850	ADAPTIVE PATH, LLC	Pier One, Bay 2 ,San Francisco
10851	ADAPTIVE PLANNING, INC.	3350 W. Bayshore ,Palo Alto
10852	ADAPTIVE SOLUTIONS INCORPORATE	2 Kiel Ave Suite 185 ,Kinnelon
10856	ADAPTIVE TECHNOLOGIES, INC.	14224 Plank Street ,Fort Wayne
10857	ADAPTIVE TECHNOLOGY SOLUTIONS	3171C Beavervu Drive ,Beavercreek
10859	ADAPTIVE WIRELESS SOLUTIONS, LLC	577 Main Street ,Hudson
10861	ADAPTIVEMALL.COM, LLC	15 South Second Street ,Dolgeville
10866	ADAPTURE STRUCTURAL ENGINEERING, INC.	28 Second Street, 3rd Floor ,San Francisco
10867	ADAPX, INC.	2200 Alaskan Way, Suite 130 ,Seattle
10868	ADAQUEST, INC.	14450 NE 29th Pl., Ste. 220 ,Bellevue
10869	ADAR, LLC	7370 N Lincoln Ave 200 ,Lincolnwood
10870	ADARA MEDIA INC	800 W El Camino Real ,Mountain View
10871	ADARA NETWORKS INC.	2150 North 1st Street ,San Jose
10872	ADARAND CONSTRUCTORS, INC.	2720 East Las Vegas ,Colorado Springs
10877	ADAS, LLC	5297 Main Road ,Sweet Valley
10878	ADASHEK AND WILKES, L.L.P. DBA DESERT PERINATAL ASSOCIATES	5761 S. Ft. Apache ,Las Vegas
10879	ADASHI SYSTEMS LLC	1114 Washingtonville Drive ,Baltimore
10882	ADASPHERE	Po Box 81 ,Staunton
10886	ADAX MACHINE CO., INC.	5 Flagstone Drive ,Hudson
10887	ADAX, INC.	2900 Lakeshore Avenue ,Oakland
10888	ADAYANA, INC.	3500 Depauw Boulevard ,Indianapolis
10889	ADB AIRFIELD SOLUTIONS LLC	977 Gahanna Pkwy ,Gahanna
10890	ADB CABLE, INC.	10901 W 120th Ave Suite 230 ,Broomfield
10893	AD-BASE GROUP, INC.	8 Penn Center West Suite 101 ,Pittsburgh
10896	ADBRITE	731 Market Street ,San Francisco
10897	ADC & HAS MANAGEMENT SERVICES, INC.	15600 Jfk Blvd., Suite 110 ,Houston
10900	ADC ENGINEERING TECHNOLOGY, INC	268 E Gardena Blvd. ,Gardena
10901	ADC ENGINEERING, INC	1226 Yeamans Hall Road ,Hanahan
10902	ADC FLOORING	2744 Emanuel Church Rd., ,West Columbia
10904	ADC INFORMATION TECHNOLOGIES, INC.	950 Michigan Ave. ,Columbus
10905	ADC L.P.	1720 S Wolf Rd ,Wheeling
10906	ADC MANAGEMENT SERVICES, INC.	355 South Teller Street Ste 200 ,Lakewood
10909	ADC TECHNOLOGIES, INC.	2 Executive Cir Ste 125 ,Irvine
10911	ADCAMP, INC.	1353 Flowood Drive ,Flowood
10912	ADCAP NETWORK SYSTEMS, INC.	10400 Old Alabama Road Connector ,Alpharetta
10915	ADCARE EDUCATIONAL INSTITUTE, INC.	5 Northampton Street ,Worcester
10916	ADCARE HEALTH SYSTEMS, INC.	1145 Hembree Road ,Roswell
10918	ADCARE HOSPITAL OF WORCESTER, INC	107 Lincoln Street ,Worcester
10919	ADCARE, INC.	107 Lincoln Street ,Worcester
10920	AD-CENTIVES WEST, INC.	40 West Gregson Avenue ,Salt Lake City
10921	ADCENTRIC ENTERPRISES, LLC	309 Potrero Avenue ,San Francisco
10923	ADCHEM CORP.	1852 Old Country Rd ,Riverhead
10924	ADCHEM, INC.	369 Progress Drive ,Manchester
10926	ADCI LLC	2 Wisconsin Cir Ste 700 ,Chevy Chase
10929	ADCO CLEANING PRODUCTS LLC	900 W Main Street ,Sedalia
10930	ADCO COMPANIES, LTD.	1089 Royal Mile ,Birmingham
10932	ADCO ELECTRIC, INC.	P. O. Box 7395 ,Jackson
10934	ADCO GENERAL CORPORATION	P.O. Box 40007 ,Denver
10935	ADCO HOLDINGS, INC.	257 Castleberry Industrial Dr ,Cumming
10938	ADCO PLASTIC CORPORATION	1256 Sandtown Road ,Marietta
10939	ADCO PRO CLEANING SUPPLY CO.	5285 Fox Street ,Denver
10940	ADCO PRODUCTS, INC.	4401 Page Ave, Po Box 457 ,Michigan Center
10941	ADCO SALES INCORPORATED	29333 Clayton Ave ,Wickliffe
10943	ADCO USA INC.	2 Rewe Street ,Brooklyn
10944	ADCOCK & ADCOCK, INC.	P O Box 338 ,Ellisville
10947	ADCOCK FINANCIAL GROUP, INC.	402 W. Hawthorne Street ,Dalton
10949	ADCOCK-ADCOCK PROPERTY & CASUALTY AGENCY, INC	315 W Fletcher Ave ,Tampa
10952	ADCOLOR INC.	950 Brookstown Ave. ,Winston-Salem
10953	ADCOLOR, INC.	620 Adcolor Drive ,Lexington
10955	ADCOM TECHNOLOGIES, INC.	1406 N 11th St ,Sheboygan
10956	ADCOM, INC.	2160 Kingston Court ,Marietta
10957	ADCOMM INC.	89 Leuning St. ,South Hackensack
10958	ADCON BUILDERS, INC.	671 Oak Grove, Suite Q ,Menlo Park
10959	ADCON ENGINEERING CO.	20102 Progress Drive ,Strongsville
10960	ADCONION MEDIA INC	3301 Exposition Boulevard ,Santa Monica
10961	ADCOR INDUSTRIES, INC.	234 South Haven Street ,Baltimore
10964	ADCOTRON EMS, INC.	12 Channel St ,Boston
10965	ADCRAFT CLUB OF DETROIT	15 E Kirby St Apt 418 ,Detroit
10966	ADCRAFT PRINTWEAR CO., INC.	801 South Third St. ,Clinton
10968	ADCRAFT, INC.	2656 Washington ,St. Louis
10969	ADCS CLINICS, LLC	151 Southhall Lane, Suite 300 ,Maitland
10971	ADD APARTMENTS, INC.	148 Willow Dr. ,Dunkirk
10973	ADD INC.	311 Summer Street ,Boston
10974	ADD ON SYSTEMS, INC.	100 NW 63rd St. ,Oklahoma City
10975	ADD SOFTWARE LLC	3222 Henrydale St ,Auburn Hills
10976	ADD STAFF, INC.	2118 Hollow Brook Drive ,Colorado Springs
10977	ADD VENTURES INC.	966 Worthington Ridge ,Berlin
10978	ADD/ADHD DIAGNOSTIC & TREATMENT CENTER	1524 Independence Parkway ,Plano
10979	ADD/ADHD TREATMENT CENTER, LLC	3620 Trail Walker Drive ,Plano
10980	ADD2NET, INC.	1360 N. Hancock St. ,Anaheim
10981	ADDA CLEVENGER SCHOOL	180 Fair Oaks Street ,San Francisco
10982	ADDA USA CORPORATION	1502 W. Yale Ave ,Orange
10983	ADDABBO & GREENBERG	118-21 Queens Blvd ,Forest Hills
10984	ADD-A-DECK, INC.	6408 Mallory Drive ,Richmond
10985	ADDARIOS PLUMBING, HEATING, COOLING & ELECTRICAL, LLC	20 Cooper Street ,Lynn
10986	ADDASTAFF CONSULTING, INC.	1777 Borel Place ,San Mateo
10988	ADDAX TECHNOLOGIES LLC	230 Pepes Farm Rd Suite A ,Milford
10989	ADDCO, LLC DBA IMAGO NORTH AMERICA	240 Arlington Avenue East ,St. Paul
10991	ADDED DIMENSIONS INC.	Pmb 454 347 9th Street ,San Francisco
10993	ADDED INCENTIVES INC.	600 Academy Drive Suite 130 ,Northbrook
10994	ADDED SALES COMPANY	795 Mittel Drive ,Wood Dale
10995	ADDEO & ASSOCIATES, P.A.	1 Industrial Way West ,Eatontown
10997	ADDEO, POLACCO & ASSOCIATES, LLC	1 Industrial Way West ,Eatontown
10998	ADDEPAR	1215 Terra Bella Ave. ,Mountain View
11000	ADDER CORPORATION	24 Graf Road ,Newburyport
11001	ADDESSI JEWELERS, INC.	387 Main Street ,Ridgefield
11002	ADDI LLC	1339 Broadway St. ,Pearland
11003	ADDICTION COUNSELING & EDUCATION SERVICES, INC. DBA EMERGENCE	2149 Centennial Plaza ,Eugene
11004	ADDICTION PROFESSIONALS CERTIFICATION BOARD	1200 Tices Lane ,East Brunswick
11005	ADDICTION RECOVERY INSTITUTE	31 N Union St ,Pawtucket
11006	ADDICTION RECOVERY RESOURCES I	4933 Wabash Street ,Metairie
11007	ADDICTION RECOVERY SERVICES PLLC	539 Islington Street ,Portsmouth
11008	ADDICTION RECOVERY SYSTEMS LLC	150 Onix Drive ,Kennett Square
11009	ADDICTION RECOVERY, INC.	P.O. Box 546 ,Crownsville
11013	ADDICTS REHABILIATION CENTER	2015 Madison Avenue ,New York
11015	ADDINGTON OIL CORPORATION	P. O. Box 125 ,Gate City
11016	ADDION, INC.	2342 Spotswood Pl. ,Boulder
11017	ADDIS CONSULTING INC.	13303 Tamarack Rd ,Silver Spring
11019	ADDIS GROUP, INC.	2612 8th Sreet, Suite A ,Berkeley
11020	ADDIS INC	1720 Peachtree St NW Ste 314 ,Atlanta
11021	ADDISON ANIMAL HOSPITAL, INC.	222 SW Cr 252 B ,Lake City
11022	ADDISON AUTOMATICS INC	113 First Street ,Harmon
11026	ADDISON BUILDING MATERIALS, INC.	3201 South Busse Road ,Arlington Heights
11027	ADDISON CAPITAL CO., INC.	301 Oxford Valley Road ,Yardley
11030	ADDISON CLARK, LLC	5101 Monument Avenue, Suite 201 ,Richmond
11032	ADDISON COMMERCIAL REAL ESTATE INC	8411 Baymeadows Way Suite 300 ,Jacksonville
11033	ADDISON CONDOMINIUM	1500 S Ocean Blvd ,Boca Raton
11035	ADDISON CONSTRUCTION SUPPLY, INC.	6201 S. Adams ,Tacoma
11036	ADDISON COUNTY HOME HEALTH & HOSPICE, INC.	P.O. Box 754 ,Middlebury
11037	ADDISON DENTAL ASSOCIATES	4045 Orchard Rd ,Smyrna
11038	ADDISON DESIGN COMPANY, INC.	48 Wall St Fl 9 ,New York
11039	ADDISON ELECTRIC INC	502 Factory Road ,Addison
11041	ADDISON FABRICATORS, INC.	Po Box 330 ,Addison
11042	ADDISON FOODS, INC.	16415 Addison Road, Suite 135 ,Addison
11045	ADDISON GROUP	125 S. Wacker Dr. ,Chicago
11047	ADDISON LAW FIRM	5400 Lbj Freeway Ste 1325 ,Dallas
11048	ADDISON MACHINE ENGINEERING, INC.	1301 Industrial Street ,Reedsburg
11049	ADDISON PLASTICS CO., INC.	6 Exeter Court ,Lincolnshire
11052	ADDISON RESERVE COUNTRY CLUB	7201 Addison Reserve Blvd ,Delray Beach
11054	ADDISON SMITH MECHANICAL CONTRACTORS	110 Kingsbridge Dr ,Carrollton
11058	ADDISONMCKEE, INC.	1637 Kingsview Drive ,Lebanon
11059	ADDISON-PENZAK JEWISH COMMUNITY CENTER OF SILICON VALLEY	14855 Oka Road Suite 201 ,Los Gatos
11061	ADDITECH, INC.	10925 Kinghurst St Ste 500 ,Houston
11062	ADDITION TECHNOLOGY INC	820 Oak Creek Drive ,Lombard
11064	ADDITIVE SYSTEMS, INC.	407 S. Main ,Broken Arrow
11065	ADDITON, HIGGINS, PENDLETON & ASHE	11610 N Community House Rd Ste 200 ,Charlotte
11066	ADDIVANT USA LLC	4 Mountainview Terrace ,Danbury
11070	ADDO COMMUNICATIONS INC	12121 Willshire Blvd ,Los Angelea
11071	ADDOCO, INC.	Atsb, Po Box 938 ,Dubuque
11072	ADDOLUX LLC	5525 South 900 East ,Salt Lake City
11073	ADD-ON COMPUTER PERIPHERALS, LLC	30400 Esperanza ,Rancho Santa Margarita
11074	ADDON TECHNOLOGIES, INC.	17197 N. Laurel Park Dr, Ste 513 ,Livonia
11076	ADDONS, INC.	1510 W. Canal Court ,Littleton
11078	ADDTHIS, INC.	1595 Spring Hill Road ,Vienna
11079	ADDUCCI, DORF, LEHNER, MITCHELL & BLANKENSHIP, P.C.	150 North Michigan Avenue ,Chicago
11080	ADDUCI, MASTRIANI & SCHAUMBERG	1133 Connecticut Avenue, NW ,Washington
11081	ADDUS HEALTHCARE, INC.	2300 Warrenville Road ,Downers Grove
11083	ADDVENTURE PRODUCTS INC	8675 Miralani Drive ,San Diego
11084	ADDX CORPORATION	4900 Seminary Road, Suite 570 ,Alexandria
11086	ADDY, BUSH AND ASSOCIATES, P.C.	342 St. Mary Street ,Pekin
11088	ADE INCORPORATED	P.O. Box 660 ,Clarkston
11089	ADE, INC.	1430 E. 130th Street ,Chicago
11090	ADEC, INC	Po Box 398 ,Bristol
11091	A-DEC, INC.	2601 Crestview Drive ,Newberg
11092	ADECCO USA, INC.	10151 Deerwood Park Blvd ,Jacksonville
11093	ADECCO, INC.	10151 Deerwood Park Blvd ,Jacksonville
11094	ADEE PLUMBING & HEATING, INC.	5457 Crenshaw Boulevard ,Los Angeles
11108	ADEL ROOTSTEIN USA, INC.	205 West 19th Street ,New York
11109	ADEL SEED & FEED, INC	P O Box 534 ,Ocilla
11112	ADELAIDE GRAYSON, LLC	6723 Landon Lane ,Bethesda
11115	ADELAIDE SERVICES, INC.	639 Pennsylvania Road ,Arden
11117	ADELANTE CAPITAL MANAGEMENT LLC	555 12Th Street, Suite 2100 ,Oakland
11118	ADELANTE CONSULTING, INC.	430 W Highway 6 ,Los Lunas
11119	ADELANTE DEVELOPMENT CENTER, INC.	3900 Osuna Road Ne ,Albuquerque
11121	ADELANTE HEALTHCARE, INC.	9520 W Palm Ln Ste 200 ,Phoenix
11122	ADELANTO HEALTHCARE VENTURES, LLC	401 W 15th Street Suite 840 ,Austin
11124	ADELBERG LABORATORIES INC	16821 Oak View Dr ,Encino
11125	ADELBERG, RUDOW, DORF & HENDLER, LLC	7 Saint Paul Street, Suite 600 ,Baltimore
11128	ADELE BRADY BOLSON CPA PS	2330 - 130th Ave NE Ste 200 ,Bellevue
11131	ADELE HUNT, INC	1007 Slocum Street ,Dallas
11132	ADELE KNITS, INC.	3304 Old Lexington Road ,Winston Salem
11135	ADELHARDT CONSTRUCTION CORP.	One Penn Plaza ,New York
11136	ADELI & TOLLEN LLP	11859 Wilshire Blvd. Suite 500 ,Los Angeles
11137	ADELIA CHUNG	190 Dowsett Avenue ,Honolulu
11141	ADELL COOPERATIVE UNION	606 Tower Ave P.O. Box 69 ,Adell
11143	ADELL, HARRIMAN & CARPENTER, INC.	2700 Post Oak Blvd., Suite 1200 ,Houston
11144	ADELLCO MANAGEMENT LLC	18 West 27th Street ,New York
11146	ADELMAN & COMPANY PC	3103 Philmont Ave Ste 314 ,Huntingdon Valley
11150	ADELMAN GERMAN, P.L.C.	8245 N. 85th Way ,Scottsdale
11153	ADELMAN LUMBER COMPANY	4925 Harrison Street ,Pittsburgh
11154	ADELMAN MAINTENANCE CORP. OF MILWAUKEE	1001 S. 84th Street ,West Allis
11155	ADELMAN SAND & GRAVEL, INC.	34 Bozrah St ,Bozrah
11156	ADELMAN TRAVEL SYSTEMS, INC.	6980 N. Port Washington Rd ,Milwaukee
11159	ADELMAN, SHEFF & SMITH, LLC	180 Admiral Cochrane Dr Ste 370 ,Annapolis
11163	ADELPHI ACADEMY	8515 Ridge Boulevard ,Brooklyn
11164	ADELPHI AUTO WORKS	197 Osborne Road ,Harrison
11165	ADELPHI KITCHENS, INC	300 E Penn Avenue ,Robesonia
11167	ADELPHI TECHNOLOGY, INC.	2003 East Bayshore Road ,Redwood City
11168	ADELPHI UNIVERSITY	1 South Avenue ,Garden City
11169	ADELPHI VALUES	290 Congress Street ,Boston
11171	ADELPHIA GRAPHIC SYSTEMS, INC.	302 Commerce Drive ,Exton
11173	ADELPHIA METALS I, LLC	1930 E. Marlton Pike ,Cherry Hill
11174	ADELPHIA PLUMBING & HEATING CORP.	4955 Lancaster Avenue ,Philadelphia
11175	ADELPHIA SEAFOOD	3024 Penn Avenue ,Reading
11176	ADELPHIA STEEL EQUIPMENT CO., INC.	7372 State Road ,Philadelphia
11177	ADELPHIC, INC	1601 Trapelo Road ,Waltham
11178	ADELPHOI USA	1119 Village Way ,Latrobe
11179	ADELPHOI USA, INC.	352 Main Street ,Latrobe
11180	ADELPHOI, USA	1119 Village Way ,Latrobe
11182	ADELSHEIM VINEYARD, LLC	16800 NE Calkins Lane ,Newberg
11184	ADELSON GALLERIES, INC.	730 5th Avenue ,New York
11185	ADELSON, LORIA & WEISMAN, P.C.	20 Park Plaza Suite 820 ,Boston
11186	ADELSPERGER ORTHODONTICS	670 Patrick Place ,Brownsburg
11187	ADELSTEIN & KALINER LLC	350 S Main St ,Doylestown
11188	ADELSTEIN LISTON LLC	222 W. Ontario Street, Suite 600 ,Chicago
11189	ADELSTEIN, SHARPE & SERKA, LLP	Po Box 5158 ,Bellingham
11191	ADELWERTH BUS CORPORATION	417 Montauk Hwy, P.O.Box 705 ,Eastport
11192	ADEMA & ADEMA LTD	2180 N Causeway Blvd ,Mandeville
11194	ADENA CORPORATION	1310 W. Fourth St. ,Mansfield
11195	ADENA HEALTH SYSTEM	272 Hospital Road ,Chillicothe
11196	ADENA UTILITIES ENGINEERING, INC	10250 Alliance Road Suite 118 ,Blue Ash
11197	ADENEO CORP	3150 Richards Road, Suite 210 ,Bellevue
11199	ADENNA, INC.	201 S. Milliken Ave. ,Ontario
11202	ADEPT COMMUNITY SERVICES INC	124 Dunbridge Dr ,Palm Harbor
11203	ADEPT CONSUMER TESTING, INC.	345 North Maple Drive, Ste 325 ,Beverly Hills
11205	ADEPT ENGINEERING SOLUTIONS, LLC	Po Box 130443 ,Ann Arbor
11206	ADEPT FASTENERS INC	28709 Industry Dr ,Valencia
11208	ADEPT MACHINE TOOLS, INC.	152 Ostwalt Amity Road ,Troutman
11210	ADEPT PLASTIC FINISHING, INC.	29883 Beck Road ,Wixom
11211	ADEPT PROCESS SERVICES INC	Po Box 2130 ,Imperial Beach
11213	ADEPT TECHNOLOGIES LLC	510 Warren St ,Hackettstown
11214	ADEPT TECHNOLOGIES, LLC	2865 Wall Triana ,Huntsville
11215	ADEPT TECHNOLOGY, INC.	5960 Inglewood Drive ,Pleasanton
11216	ADEPT, INC.	2374 Maritime Drive ,Elk Grove
11217	ADEPTIA, INC.	343 W. Erie, Ste. 440 ,Chicago
11218	ADEPT-MED INTERNATIONAL, INC.	665 Pleasant Valley Road ,Diamond Springs
11220	ADEPTSOURCE LLC	205 Cowal Drive South ,Spicewood
11221	ADEPTUS PARTNERS LLC	733 Route 35 ,Ocean
11224	ADERA, INC	8805 Tamiami Trail N Ste 324 ,Naples
11225	ADERANT NORTH AMERICA, INC.	500 Northridge Road, Suite 800 ,Atlanta
11227	ADERAS, INC.	11911 Freedom Drive, Suite 580 ,Reston
11229	ADERHOLT & FUGIT PC	600 Vestavia Parkway Suite 140 ,Birmingham
11230	ADERHOLT SPECIALTY CO., INC.	1557 Cummins Drive ,Modesto
11232	ADES DESIGN BUILDERS INC	Po Box 2425 ,Evergreen
11234	ADESIS INC.	27 Mccullough Dr ,New Castle
11236	ADESO	1250 24th Street, Ste 300 ,Washington
11237	ADESSO SOLUTIONS LLC	3701 Algonquin Rd Ste 270 ,Rolling Mdws
11239	ADESTINN	12 Long Lake Rd, Bldg 5 ,Mahtomedi
11240	ADESTO TECHNOLOGIES CORPORATION	1250 Borregas Avenue ,Sunnyvale
11241	ADESYS CONSULTING, LLC	6405 Century Ave ,Middleton
11244	ADEX USA, LLC	Po Box 227188 ,Miami
11246	ADEY FAMILY DENTISTRY, P.C.	120 Lafayette Street ,Kennett Square
11247	ADF CABLE CONSTRUCTION INC	7049 Creek Run Rd ,Harrisburg
11248	ADF ENGINEERING, INC.	228 Byers Road Suite 202 ,Miamisburg
11249	ADF FOODS USA, LTD	405 Allerton Avenue ,South San Francisco
11250	ADF INDUSTRIES, INC.	2718 Wilbur Cross Highway ,Berlin
11251	ADF INTERNATIONAL	1900 Great Bear Ave. ,Great Falls
11252	ADF, INC.	1550 West Mahalo Place ,Rancho Dominguez
11254	ADFARM USA, INC.	P.O. Box 2012 ,Fargo
11256	ADFILM LTD.	8035 Lake Winds Drive ,Oak Harbor
11257	ADFITECH, INC.	3001 Technology Drive ,Edmond
11258	ADFLEX CORPORATION	300 Ormond Street ,Rochester
11259	ADFP MANAGEMENT	350 Passaic Avenue, 2nd Floor ,Fairfield
11264	ADG INC	888 W Ash St ,San Diego
11265	ADG INCORPORATED	2490 Black Rock Turnpike, Ste 338 ,Fairfield
11267	ADG, INC.	116 East Sheridan - Suite 100 ,Oklahoma City
11270	ADGEO, INC	8770 Rose Ave ,Brentwood
11271	ADGILITY SOLUTIONS, INC.	525 Vine Street ,Cincinnati
11272	ADGO, INC.	3988 Mcmann Road ,Cincinnati
11274	ADGRAPHIX LLC	423 Hanley Industrial Ct ,Saint Louis
11277	ADH HEALTH PRODUCTS INC	215 N Route 303 ,Congers
11280	ADHARMONICS, INC.	One Kendall Square ,Cambridge
11283	ADHEREX, INC.	68 Tw Alexander Drive ,Durham
11284	ADHESA PLATE MANUFACTURING CO.	P. O. Box 84723 ,Seattle
11285	ADHESION WEALTH ADVISOR SOLUTIONS, INC.	5935 Carnegie Blvd., Suite 100 ,Charlotte
11286	ADHESIVE & EQUIPMENT, INC.	955 West River Center Drive, Ne ,Comstock Park
11288	ADHESIVE COMPOUNDERS, INC.	326 SW 5th Street ,Des Moines
11289	ADHESIVE SERVICES COMPANY	6730 Northwinds Dr ,Houston
11290	ADHESIVE TAPES INTERNATIONAL	5 Shelter Rock Road ,Danbury
11292	ADHESIVES RESEARCH, INC.	400 Seaks Run Road ,Glen Rock
11293	ADHESIVES TECHNOLOGY CORP	450 E Copans Rd ,Pompano Beach
11294	ADHEVA INC	Po Box 80211 ,San Marino
11295	ADHEZION BIOMEDICAL, LLC	1 Meridian Blvd., Suite 1B02 ,Wyomissing
11297	ADI COMPLIANCE CONSULTING, INC.	3919 Old Lee Hwy ,Fairfax
11298	ADI CONSTRUCTION OF VIRGINIA LLC	5407-A Port Royal Road ,Springfield
11299	ADI CORPORATION	1044 116th Ave. NE. Ste A5 ,Bellevue
11300	ADI DESIGN GROUP, INC.	851 Pohukaina St., Bldg C, Bay 3 ,Honolulu
11301	ADI ENGINEERING, INC.	3445 Seminole Trail Box 290 ,Charlottesville
11302	ADI LLC	200 Canal View Blvd Ste 100 ,Rochester
11304	ADI SHUTTLE GROUP, LLC	6544 Highland Rd. ,Waterford
11305	ADI STRATEGIES, INC.	268 Bush St. Ste 1600 ,San Francisco
11306	ADI TECHNOLOGIES, INC.	1487 Chain Bridge Road ,Mclean
11308	ADI, LLC	36 Precision Drive ,North Springfield
11310	ADIB ANTOINE CHIDIAC, M.D., P.A.	2100 N.E. 36th St., Suite 201 ,Lighthouse Point
11313	ADICIO, INC	2382 Faraday Ave Ste 350 ,Carlsbad
11314	ADIDAS AMERICA, INC.	5055 N. Greeley Ave. ,Portland
11316	ADIENT HEALTH, INC.	4215 Tierra Rejada Road ,Moorpark
11320	ADIMAB, LLC	7 Lucent Dr ,Lebanon
11321	ADIMPACT CORPORATE SIGNAGE	16620 Aston Street ,Irvine
11322	AD-IN, INC.	1980 E. 116th St., Suite 325 ,Carmel
11324	ADINA R&D, INC.	37 Woodbine Road ,Belmont
11327	ADINO, INC.	360 W Alden Court ,Chicago Heights
11328	ADINOLFI & LIEBERMAN, P.A.	4 Kings Highway East ,Haddonfield
11329	ADINSTRUMENTS, INC.	2205 Executive Circle ,Colorado Springs
11330	ADIO PHARMACY DISTRIBUTION SERVICES PLLC	150 Raleigh Srive ,Elizabethtown
11331	ADIP ELECTRIC INC	782 Sand Creek Circle ,Weston
11332	ADIPOGEN	11588 Sorrento Valley Rd ,San Diego
11336	ADIRA CONSTRUCTION, INC.	1512 Technology Drive ,Chesapeake
11341	ADIRONDACK AUTO SERVICES, INC	7504 Us Rt 9 ,Elizabethtown
11342	ADIRONDACK BANK	185 Genesee Street, 11th Floor ,Utica
11343	ADIRONDACK BEVERAGES CORP.	701 Corporations Park ,Scotia
11344	ADIRONDACK CABLING, INC	10 Petra Lane ,Albany
11345	ADIRONDACK COMBUSTION TECHNOLOGIES, INC	Po Box 278 ,Duanesburg
11346	ADIRONDACK COMMUNITY ACTION PROGRAMS, INC.	7572 Court Street, Suite 2 ,Elizabethtown
11347	ADIRONDACK DENTAL GROUP P.C	1753 Rt 9 ,Clifton Park
11350	ADIRONDACK DIAGNOSTIC IMAGING, INC.	C/O Steven Powers ,Naples
11351	ADIRONDACK ELECTRONICS, INC.	1991 Central Avenue ,Albany
11352	ADIRONDACK ENERGY PRODUCTS INC	17 Junction Rd ,Malone
11356	ADIRONDACK FAMILY FOOT CARE	25 Degrandpre Way ,Plattsburgh
11357	ADIRONDACK FINANCIAL SERVICES	185 Genesee St ,Utica
11358	ADIRONDACK FISHERIES, INC.	1040 Route 55 ,Eldred
11359	ADIRONDACK GIRL SCOUT COUNCIL	8 Mountain View Lane ,Albany
11360	ADIRONDACK GROUP, LLC	100 Colonial Way ,West Chester
11363	ADIRONDACK HISTORICAL ASSOCIATION	Po Box 99 ,Blue Mountain Lake
11364	ADIRONDACK INTERNAL MEDICINE & PEDIATRICS, P.C.	2249 State Route 86 ,Saranac Lake
11365	ADIRONDACK LIFE, INC.	12961 Nys Route 9N ,Jay
11366	ADIRONDACK MANOR HOMES FOR ADULTS	4 Chelsea Place Suite 101 ,Clifton Park
11370	ADIRONDACK MEDICAL HEALTH CARE ASSOCIATES, PLLC	145 Kenwood Avenue ,Oneida
11373	ADIRONDACK MOUNTAIN CLUB INC	814 Goggins Road ,Lake George
11376	ADIRONDACK NETWORKS, INC.	9 Lee Street ,Utica
11377	ADIRONDACK NEUROLOGY ASSOCIATES, PC	454 Glen Street ,Glens Falls
11379	ADIRONDACK OBSTETRICS & GYNECOLOGY PC	101 Ridge Street ,Glens Falls
11380	ADIRONDACK ORAL & MAXILLOFACIAL SURGERY	5 Palisades Drive ,Albany
11382	ADIRONDACK ORTHOPEDIC PHYSICIANS & SURGEONS, PC	68 Quaker Road ,Queensbury
11384	ADIRONDACK PATHOLOGY, P.C.	21 Honey Hollow Road ,Queensbury
11385	ADIRONDACK PEDIATRICS, PC	84 Broad Street ,Glens Falls
11386	ADIRONDACK PEST CONTROL INC	1566 Vley Rd ,Scotia
11387	ADIRONDACK PHARMACY, INC.	Po Box 211 ,Star Lake
11391	ADIRONDACK REGIONAL CHAMBER OF COM	136 Glen St Ste 3 ,Glens Falls
11392	ADIRONDACK REGIONAL FEDERAL CREDIT UNION	280 Park St ,Tupper Lake
11394	ADIRONDACK REGISTERED PROFESSI	18 Division St Suite 311 ,Saratoga Springs
11396	ADIRONDACK ROOFING LLC	P.O. Box 642 ,Bolton Landing
11398	ADIRONDACK SPORTS CLUB, LLC	460 Oak St ,Rochester
11399	ADIRONDACK SURGICAL ASSOCIATES, PC	102 Park St ,Glens Falls
11400	ADIRONDACK SURGICAL GROUP	309 Country Rt 47, Ste 4 ,Saranac Lake
11402	ADIRONDACK TRANSIT LINES, INC.	499 Hurley Avenue ,Hurley
11404	ADIRONDACK TRI-COUNTY NURSING AND REHABILITATION CENTER, INC.	112 Ski Bowl Road ,North Creek
11405	ADIRONDACK TRUST COMPANY	473 Broadway ,Saratoga Springs
11406	ADIRONDACK UROLOGY ASSOCIATES, PC	102 Park St, Suite 201 ,Glens Falls
11407	ADIRONDACK WINERY, LLC	Po Box 116 ,Glens Falls
11410	ADISHIAN LAW GROUP, P.C.	222 N. Sepulveda Blvd., Suite 2000 ,El Segundo
11411	ADISON & PARTNERS L.L.C	6 Campus Drive ,Parsippany
11412	ADISSEO USA INC.	One Point Royal ,Alpharetta
11414	ADISYS CORPORATION	1287 Anvilwood Ave ,Sunnyvale
11415	ADITAZZ, INC	3945 Freedom Circle ,Santa Clara
11417	ADITI TECHNOLOGIES PRIVATE LIMITED	2002 156th Avenue NE, Suite 200 ,Bellevue
11418	ADITIANY,INC.	37 West 39th Street ,New York
11420	ADITTECH CONSULTANTS, LLC	3050 Five Forks Trickum Road ,Lilburn
11423	ADIUM OIL COMPANY	310 Blattner Drive ,Avon
11424	ADIVA INC.	21351 Gentry Drive Suite 255 ,Sterling
11425	ADIVI CORPORATION	1332 W Lake Street ,Chicago
11427	ADJ SHEET METAL, INC.	4510 Graphics Drive ,White Plains
11428	ADJACENT LINK LLC	9 Kiser Lane ,Bridgewater
11429	ADJACENT TECHNOLOGIES INC.	10415 Morado Circle ,Austin
11432	ADJUGGLER, INC.	3141 Faifview Park Drive Suite 160 ,Falls Church
11433	ADJUSTABLE CLAMP COMPANY	404 North Armour Street ,Chicago
11434	ADJUSTABLE FORMS, INC.	One East Progress Road ,Lombard
11435	ADJUST-A-GRATE, INC.	843 Hog Back Drive ,Golden
11437	ADJUSTERS INTERNATIONAL COLORADO, INC.	602 Park Point Dr., Suite 206 ,Golden
11438	ADJUSTERS INTERNATIONAL, INC.	126 Business Park Drive ,Utica
11439	ADJUVANT CONSULTING, INC	901 NE Loop 410 ,San Antonio
11440	ADK AMERICA, INC.	515 West 20th St., 6E ,New York
11441	ADK ELECTRIC CORPORATION	3773 S Jason Street, Unit 1 ,Englewood
11442	ADK ELECTRIC, INC.	9000 NE 90th Street ,Vancouver
11443	ADK PERMIT SERVICES INC	127 Camellia Way ,Modesto
11446	ADKERSON, HAUDER & BEZNEY, P.C.	1700 Pacific ,Dallas
11447	ADKEV, INC	Po Box 390 ,Goodland
11449	ADKINS & SONS, INC.	2935 Mission Lakes Dr. ,Lakeland
11450	ADKINS BLUE RIBBON PACKING COMPANY, INC.	6583 106th Avenue ,South Haven
11451	ADKINS CONSULTING ENGINEERING, LLP	2950 Shasta Way ,Klamath Falls
11452	ADKINS CONSULTING ENGINEERS, INC.	2950 Shasta Way ,Klamath Falls
11453	ADKINS DEVELOPMENT CORPORATION	P.O. Box 21981 ,Waco
11454	ADKINS ELECTRIC, INC.	10477 New Kings Rd ,Jacksonville
11455	ADKINS ENERGY LLC	4350 W. Galena Road ,Lena
11460	ADKINS MACHETT & TOY	415 Madison Ave Fl 15 ,New York
11462	ADKINS TRUCK EQUIPMENT COMPANY	11300 Reames Road ,Charlotte
11463	ADKINS, KELSTON & ZAVEZ, P.C.	90 Canal Street, Fifth Floor ,Boston
11464	ADKINS, POTTS & SMETHURST, LLP	Po Box 4247 ,Salisbury
11465	ADKINSON LAW FIRM, LLC	Po Box 1207 ,Defuniak Springs
11466	ADKISON ENGINEERS, INC	6879 Airport Drive ,Riverside
11467	ADKISON LAW OFFICE	79 W. Monroe ,Chicago
11468	ADKNOWLEDGE, INC	4600 Madison ,Kansas City
11469	ADKO ASSOCIATES, INC	2010 Lord Baltimore Dr ,Baltimore
11470	ADKO ENGINEERING	2267 Lava Ridge Court ,Roseville
11471	ADL DATA SYSTEMS INC	9 Skyline Dr ,Hawthorne
11473	ADL DENTAL LABORATORY	4411 Poplar Level Rd ,Louisville
11476	ADL INCORPORATED	5181 E. Hubbard Trail ,Byron
11479	ADLENS USA, INC.	120 Lewis Wharf ,Boston
11481	ADLER & ADLER, P.C.	3625 N Hall St Ste 610 ,Dallas
11483	ADLER & COLVIN, A LAW CORPORATION	235 Montgomery Street, Suite 1220 ,San Francisco
11485	ADLER & MANSON, L.C.	9233 Ward Parkway, Suite 240 ,Kansas City
11487	ADLER APHASIA CENTER	60 West Hunter Avenue ,Maywood
11489	ADLER BLANCHARD & ASSOCIATES LLP	27 Cambridge Street ,Burlington
11490	ADLER BROS. CONSTRUCTION INC.	604 Putnam Pike ,Greenville
11491	ADLER BROTHERS, INC	173 Wickenden Street ,Providence
11494	ADLER FACIAL PLASTIC SURGERY, P.A.	323 Osceola Street ,Stuart
11495	ADLER FOOTCARE OF GREATER NEW YORK, PC	25 West 45th Street 14th Floor ,New York
11496	ADLER GIERSCH, P.S.	333 Taylor Avenue North ,Seattle
11497	ADLER GROUP, INC.	1400 NW 107 Ave. ,Miami
11498	ADLER GYNECOLOGY AND MINIMALLY	17739 Main St Ste 110 ,Dumfries
11499	ADLER INSTITUTE FOR ADVANCED	261 Old York Rd Ste 106 ,Jenkintown
11503	ADLER LAW FIRM P.C.	1616 W Jefferson St ,Joliet
11506	ADLER POLLOCK & SHEEHAN P.C.	One Citizens Plaza, 8th Floor ,Providence
11507	ADLER PUBLIC AFFAIRS, INC.	3745 Long Beach Blvd., Suite 240 ,Long Beach
11509	ADLER SCHOOL OF PROFESSIONAL PSYCHOLOGY	17 North Dearborn Street ,Chicago
11512	ADLER WAREHOUSE & SALES, INC.	1620 East Cass Street ,Joliet
11515	ADLERS PHARMACY LTC	100 Dobbs Lane Unit 205 ,Cherry Hill
11518	ADLESON, HESS & KELLY, APC	577 Salmar Avenue, Second Floor ,Campbell
11519	ADLETA CONSTRUCTION	389 South Wayne Avenue ,Cincinnati
11520	ADLETA CORPORATION	1645 Diplomat ,Carrollton
11521	ADLHOCH & ASSOCIATES, INC.	19515 Mack Ave ,Grosse Pointe Woods
11522	ADLHOCHCREATIVE, INC.	646 N Cahuenga Blvd ,Los Angeles
11524	ADLIB,INC.	215 North St ,Pittsfield
11525	ADLIFE MARKETING & COMMUNICATIONS COMPANY, INC.	555 University Avenue ,Norwood
11527	ADLINGTON EYE CENTER LLC	500 West Plumb Lane Suite A ,Reno
11529	AD-LIT, INC.	Po Box 600 ,Wisconsin Dells
11530	ADLUCENT	2130 South Congress Avenue ,Austin
11531	ADLY, INC.	1964 Westwood Blvd, Suite 425 ,Los Angeles
11532	ADLYFE	9430 Keywest Ave. ,Rockville
11537	ADM CREDIT UNION	3735 E William Street Rd ,Decatur
11538	ADM DIAGNOSTICS	10 West 35th Street # 10F42 ,Chicago
11540	ADM ENVIRONMENTAL GROUP, LLC	1370 Coney Island Avenue ,Brooklyn
11541	ADM GROUP, INC.	2100 W. 15th Street ,Tempe
11542	ADM INFORMATION SERVICES LLC	Po Box 34 ,Cedar Grove
11543	ADM INFORMATION SERVICES, LLC	Po Box 34 ,Cedar Grove
11544	ADM INTERNATIONAL, INC.	5565 North Elston Avenue ,Chicago
11545	ADM MARKETING GROUP, INC.	3314 Market Street, Suite 201 ,Camp Hill
11547	ADM RETAIL PLANNING & ARCHITECTURE, INC.	1311 Kapiolani Blvd Ste 608 ,Honolulu
11549	ADM VENDING INC	20 Continental Blvd ,Merrimack
11550	ADM VENTURES, INC.	36 Charlou Circle ,Englewood
11551	ADM VENTURES, INC. DBA, MACKINNON EQUIPMENT & SERVICES	2230 N Hwy 301 ,Tampa
11552	ADM WELDING & FABRICATION	37 Broadhead St. ,Warren
11553	ADM, INC.	561 Schrock Road ,Columbus
11555	ADMA BIOLOGICS, INC.	65 Commerce Way ,Hackensack
11557	ADMAC PRE-PRESS, INC.	1464 67th Street ,Emeryville
11558	ADMAIL EXPRESS, INC	31640 Hayman Street ,Hayward
11560	AD-MAIL, INC.	905 NW 17th Ave ,Portland
11561	ADMAN ELECTRIC, INC.	2311 East 28th Street ,Chattanooga
11562	ADMANTX INC	968 Farmington Ave ,West Hartford
11564	ADMAR CONSTRUCTION, INC.	5703 Industry Lane ,Frederick
11565	ADMAR SUPPLY COMPANY, INC	1950 Brighton-Henrietta T.L. Rd ,Rochester
11567	ADMARK GRAPHIC SYSTEMS, INC.	P.O. Box 2789 ,Huntersville
11568	ADMARKETING, INC.	1801 Century Park East, Ste. 2000 ,Los Angeles
11570	ADMED, INC.	122 Union Square Dr ,New Hope
11571	ADMEDIA LTD.	243 E. Livingston Ave. ,Columbus
11572	ADMEDIA PARTNERS, INC.	3 Park Avenue, 31st Floor ,New York
11576	ADMIN ARSENAL CORPORATION	P O Box 835 ,Salt Lake City
11578	ADMIN ASSOCIATES, INC.	48 Mamaroneck Ave. ,White Plains
11581	ADMIN PARTNERS, LLC	200 Lake Drive East ,Cherry Hill
11582	ADMIN SOLUTIONS, LLC	399 Market Street, Site 201 ,Philadelphia
11585	ADMINHR, LLC	1805 Sardis Road North ,Charlotte
11587	ADMINISTEP L.L.C.	4965 Preston Park Blvd, Ste 600 ,Plano
11588	ADMINISTRATION PARTNERS, LLC	P.O. Box 16627 ,Mobile
11589	ADMINISTRATION SERVICES INC	Po Box 712 ,Summersville
11590	ADMINISTRATION SPECIALISTS, INC.	6370 Normandy St ,Saginaw
11592	ADMINISTRATIVE & EXECUTIVE SERVICES, LLC	3475 Lenox Road, Suite 950 ,Atlanta
11596	ADMINISTRATIVE BUSINESS SERVICES, INC.	300 Ballardvale Street ,Andover
11600	ADMINISTRATIVE COMMITTEE FOR PISTACHIOS	4938 East Yale Avenue ,Fresno
11603	ADMINISTRATIVE CONCEPTS CORPORATION	406 43rd Street West ,Bradenton
11604	ADMINISTRATIVE CONCEPTS, INC.	994 Old Eagle School Rd Suite 1005 ,Wayne
11605	ADMINISTRATIVE CONSULTANT SERVICE	P.O Box 3368 ,Shawnee
11606	ADMINISTRATIVE CONSULTANTS, LLC	1600 Ponce De Leon Blvd ,Coral Gables
11609	ADMINISTRATIVE EMPLOYER SERVICES	13486 Canal Rd ,Sterling Heights
11612	ADMINISTRATIVE MANAGEMENT ASSOCIATES, LLC	Po Box 9530 ,Fort Wayne
11613	ADMINISTRATIVE MANAGEMENT SYSTEMS, INC.	100 West Main Street ,Sackets Harbor
11615	ADMINISTRATIVE ONESOURCE, LLC	2200 Veterans Blvd, Suite 213 ,Kenner
11616	ADMINISTRATIVE OUTSOURCE PROFESSIONALS, INC.	Po Box 52748 ,Riverside
11617	ADMINISTRATIVE RESOURCE MANAGEMENT, LLC	Po Box 2228 ,Beckley
11620	ADMINISTRATIVE RESOURCES ASSOCIATION	748 Franklin St. ,Columbus
11621	ADMINISTRATIVE RESOURCES INC.	801 Sunset Dr Bld F-1 ,Johnson City
11623	ADMINISTRATIVE SERVICES FOR DOCTORS, INC.	671 S. Heilbron Drive ,Media
11625	ADMINISTRATIVE SERVICES ONLY	303 Merrick Rd ,Lynbrook
11626	ADMINISTRATIVE SERVICES, INC.	205 S Walnut ,Rochester
11628	ADMINISTRATIVE SOFTWARE APPLICATIONS, INC.	1310 Hollenbeck Avenue ,Sunnyvale
11632	ADMINISTRATIVE SYSTEMS INC	3360 Tremont Rd Ste 220 ,Columbus
11633	ADMINISTRATIVE SYSTEMS, INC.	1651 Response Road ,Sacramento
11634	ADMINISTRATIVE SYSTEMS, LLC	1651 Response Road ,Sacramento
11636	ADMINISTRATOR PLANNING SERVICES INC	110 Old Padonia Rd., Suite 302 ,Cockeysville
11637	ADMINISTRATORS ASSOC. SAN DIEGO	3505 Camino Del Rio S Ste 264 ,San Diego
11642	ADMINISTRIVIA, INC.	201 17th Street NW ,Atlanta
11643	ADMINS, INC.	1035 Cambridge Street ,Cambridge
11646	ADMINSYSTEMS COMPANY	Po Box 56 ,Fox Lake
11648	ADMIRAL ADMINISTRATION US LLC	62 Broad Street Road ,Manakin Sabot
11650	ADMIRAL AIR CONDITIONING	130-12 90th Avenue ,Richmond Hill
11651	ADMIRAL BEVERAGE CORPORATION	Po Box 726 ,Worland
11655	ADMIRAL CLIMATE CONTROL LLC	44 Allen Street ,Rochester
11656	ADMIRAL CONSERVATION SERVICES II, INC.	51 Old Stagecoach Road ,Redding
11657	ADMIRAL CONSTRUCTION, LLC	92 Magnolia Avenue ,Westbury
11658	ADMIRAL CRAFT EQUIPMENT CORP.	940 South Oyster Bay Road ,Hicksville
11661	ADMIRAL ENVIRONMENTAL SERVICES	2025 S Arlington Heights Rd ,Arlington Heights
11662	ADMIRAL FARRAGUT ACADEMY, INC	501 Park Street North ,St Petersburg
11663	ADMIRAL FILTER COMPANY	18 Green Pond Road Unit 3 ,Rockaway
11665	ADMIRAL HEATING & VENTILATING, INC.	4150 Litt Dr. ,Hillside
11666	ADMIRAL HOME HEALTH, INC	4010 Watson Plaza Dr Ste 140 ,Lakewood
11668	ADMIRAL INSURANCE COMPANY	1255 Caldwell Road ,Cherry Hill
11670	ADMIRAL LINEN SERVICE INC	2030 Kipling ,Houston
11671	ADMIRAL MANAGEMENT INTERNATIONAL, I	5350 W. Hillsboro Blvd ,Coconut Creek
11673	ADMIRAL METALS	11 Forbes Road ,Woburn
11674	ADMIRAL MOVING SERVICES INC	664 W Ash St ,Fayetteville
11676	ADMIRAL NISSAN, INC.	6021 Black Horse Pike ,Egg Harbor Township
11677	ADMIRAL PACKAGING, INC.	10 Admiral Street ,Providence
11678	ADMIRAL PEST CONTROL INC.	9434 Artesia Blvd ,Bellflower
11679	ADMIRAL PETROLEUM	785 W. Randall Street ,Coopersville
11681	ADMIRAL PLUMBING SERVICES LLC	2895 Jupiter Park Dr Ste 700 ,Jupiter
11683	ADMIRAL PRODUCTS, INC.	4101 West 150th St. ,Cleveland
11688	ADMIRAL TAG AGENCY INC	6704 E Admiral Pl ,Tulsa
11689	ADMIRAL TITLE, INC.	8517 Kingston Pike ,Knoxville
11690	ADMIRAL TOOL & MANUFACTURING COMPANY	38010 Amrhein ,Livonia
11691	ADMIRAL WEST, INC.	Ocean And Rambler Avenue ,Wildwood Crest
11692	ADMIRALS ANCHOR MARINA INC.	4000 Utica Pike ,Jeffersonville
11693	ADMIRALS BANK	15 Park Row West ,Providence
11696	ADMIRALS COVE MASTER PROPERTY OWNERS	200 Admirals Cove Blvd ,Jupiter
11700	ADMIRE PLASTIC SURGERY	7231 E Princess Blvd ,Scottsdale
11702	ADMIT COMPUTER SERVICES, INC.	500 Bi County Blvd Ste 122 ,Farmingdale
11704	ADMIT ONE PRODUCTS	15331 Barranca Parkway ,Irvine
11707	ADMO, INC.	2550 Decade Ct ,Elgin
11709	ADMOBIUS INC	181 2nd Avenue ,San Mateo
11711	ADMYR WIRELINE, INC.	4212 Sterlington Road ,Monroe
11713	ADNAN AFZAL, M.D., P.A.	100 Medical Center Blvd, Ste 200 ,Conroe
11717	ADNET SYSTEMS, INC.	6720 B Rockledge Drive ,Bethesda
11719	ADNET, INC	1881 Campus Commons Dr Ste 301 ,Reston
11722	ADO CORPORATION	851 Simuel Rd ,Spartanburg
11723	ADO PRODUCTS, LLC	2905 Northwest Blvd Ste 230 ,Plymouth
11724	ADOBE ANIMAL HEALTH CARE, INC.	218 Etcheverry Street ,Ramona
11725	ADOBE ANIMAL HOSPITAL	4470 El Camino Real ,Los Altos
11726	ADOBE ASSOCIATES, INC.	1220 North Dutton Avenue ,Santa Rosa
11728	ADOBE COMMUNICATIONS ELECTRONICS, INC.	4360 W. Tompkins Ave. Ste. C ,Las Vegas
11730	ADOBE CREEK FUNERAL INC.	331 Lakeville Street ,Petaluma
11733	ADOBE ELECTRIC, INC.	4360 W. Tompkins Ave Suite C ,Las Vegas
11734	ADOBE EQUIPMENT HOLDINGS, LTD.	7801 Broadway Suite 100 ,San Antonio
11735	ADOBE EQUIPMENT HOUSTON, LLC	Three Riverway, Suite 1010 ,Houston
11736	ADOBE GASTROENTEROLOGY, P.C.	2585 N Wyatt Drive ,Tucson
11739	ADOBE SYSTEMS INCORPORATED	345 Park Ave ,San Jose
11743	ADOLESCENT & PEDIATRIC DENTISTRY	610 S Tillotson Avenue ,Muncie
11745	ADOLESCENT AND FAMILY GROWTH C	8000 Forbes Place ,Springfield
11747	ADOLESCENT INC	15 Broad Street Ste 1028 ,New York
11752	ADOLESCENT-YOUNG ADULT MED OF GREAT	29 Barstow Road ,Great Neck
11754	ADOLF FUNERAL HOME & CREMATION SERVICES, LTD.	7000 South Madison Street ,Willowbrook
11762	ADOLFSON & PETERSON, INC.	Po Box 9377 ,St. Louis Park
11765	ADOLPH AND ESTHER GOTTLIEBFOUNDATION, INC.	380 West Broadway, 3rd Floor ,New York
11768	ADOLPH GASSER, INC.	181 Second Street ,San Francisco
11770	ADOLPH JOHNSON AND SONS CO.	3497 Union Street ,Mineral Ridge
11771	ADOLPH LOCKLAR	4615 SW Freeway ,Houston
11773	ADOLPH SUFRIN, INC.	180 John Glenn Drive ,Amherst
11774	ADOLPH ZIEMBA, AIA & ASSOCIATES,	601 South Glenoaks Blvd. ,Burbank
11776	ADOLPHO BUENO, P.A.	1009 79th Street ,North Bergen
11780	ADOMETRY, INC	6801 N. Capital Of Texas Hwy ,Austin
11781	ADON NETWORK	1275 W Washington Street ,Tempe
11782	ADONAI CONSULTING, INC.	7923 Eastern Ave, Unit 201 ,Silver Spring
11787	ADOPT TECHNOLOGIES LLC	2414 E Paradise Ln # 200 ,Phoenix
11788	ADOPTION ADVOCATES, INC	1215 Parkway ,Austin
11792	ADOPTION CHOICES INC	201 N Broadway St Ste 107 ,Moore
11793	ADOPTION CHOICES INC ADOPTION	35715 Highway 40 Ste D105 ,Evergreen
11795	ADOPTION EXCHANGE ASSOCIATION	605 Global Way, Suite 100 ,Linthicum
11796	ADOPTION NETWORK CLEVELAND	4614 Prospect Ave Ste 550 ,Cleveland
11797	ADOPTION NETWORK, INC.	23161 Lake Center Drive Suite 210 ,Lake Forest
11798	ADOPTION RHODE ISLAND	2 Bradford St ,Providence
11800	ADOPTIONS FROM THE HEART, INC.	30 Hampstead Circle ,Wynnewood
11801	ADOPTIONS TOGETHER, INC.	4061 Powder Mill Road ,Calverton
11802	ADOPTIONS UNLIMITED, INC.	120 W Madison St Ste 800 ,Chicago
11804	ADORA DAY SPA, INC.	123 Western Hills Blvd ,Cheyenne
11807	ADORAMA, INC.	42 West 18th Street ,New York
11811	ADORNO, YOSS, WHITE & WIGGINS LLP	901 Main Street, Suite 6200 ,Dallas
11813	ADP LEMCO, INC.	5970 West Dannon Way ,West Jordan
11814	ADP STATEWIDE INSURANCE AGENCIES, INC.	325 Columbia Turnpike ,Florham Park
11817	ADPAC CORPORATION	2600 Kitty Hawk Road, ,Livermore
11818	AD-PARK PEDIATRIC ASSOCIATES, S.C.	1640 W. Lake Street, 2nd Floor ,Addison
11819	ADPEN LABORATORIES, INC.	11757 Central Pkwy ,Jacksonville
11820	ADPERIO, INC	2000 S Colorado Blvd. ,Denver
11821	ADPHOS NORTH AMERICA, INC.	3490 North 127th Street ,Brookfield
11823	ADPRO LITHO, INC.	11012 Mukilteo Speedway ,Mukilteo
11824	ADQ, INC.	4084 Perry Blvd ,Whitestown
11825	ADR AND ASSOCIATES, LTD	88 W. Church St. ,Newark
11826	ADR CONSULTING, INC.	4400 Bijan Ct ,Fair Oaks
11827	ADR ENVIRONMENTAL GROUP INC	225 30th St Ste 202 ,Sacramento
11829	ADR PARTNERS, LLC	1666 Connecticut Ave. NW Ste 525 ,Washington
11830	ADR SERVICES, INC.	353 Camer Drive ,Bensalem
11831	ADR VANTAGE, INC.	1660 L Street, N.W., Suite 302 ,Washington
11834	ADREA RUBIN MARKETING	19 West 44th Street ,New York
11837	ADREM SYSTEMS CORPORATION	1801 Robert Fulton Drive Suite 270 ,Reston
11839	ADRENALIN, INC.	54 West 11th Ave. ,Denver
11842	ADRENALINE WELLNESS CENTER INC	5251 Peachtree Industrial Blvd ,Chamblee
11845	ADRIA S. HILLMAN, P.C.	41 E. 57th Street, 34th Floor ,New York
11847	ADRIAN & ADRIAN,LLC	Po Box 188 ,Townsend
11850	ADRIAN ANIMAL CLINIC	1898 West Maumee Street ,Adrian
11851	ADRIAN BANK	130 E. Main Street ,Adrian
11853	ADRIAN BLOTNER, MD, PC	6401 Poplar Ave. ,Memphis
11856	ADRIAN COLLEGE	110 S. Madison Street ,Adrian
11860	ADRIAN ENTERPRISES INC	23859 Telegraph Rd ,Southfield
11861	ADRIAN EYECARE AND OPTICAL	1136 Country Club Road Suite C ,Adrian
11864	ADRIAN J VANDE MERWE D D S P C	533 West 2600 South Suite 225 ,Bountiful
11866	ADRIAN JULES LTD.	1392 Ridge Rd. East ,Rochester
11867	ADRIAN K. LO, MD, PC	530 Swede Street ,Norristown
11868	ADRIAN L. CONNOLLY, M.D., LLC	101 Old Short Hills Rd ,West Orange
11869	ADRIAN L. MERTON, INCORPORATED	9011 East Hampton Drive ,Capitol Heights
11873	ADRIAN MA M.D.	200 Jose Figueres Ave., Ste 215 ,San Jose
11875	ADRIAN MEDICAL CORPORATION	511 Incentive Dr ,Fort Wayne
11878	ADRIAN P. PAWLOWSKI, DDS, MSD	720 Olive Way, Suite 610 ,Seattle
11880	ADRIAN PROPERTIES, INC.	4 Upton Avenue ,North Reading
11883	ADRIAN S GAVIGLIO DC PC	3801 Elizabeth Lake Rd ,Waterford
11887	ADRIAN SCOTT INDUSTRIES	P.O. Box 250 ,Pasadena
11889	ADRIAN STATE BANK	P.O. Box 129 ,Adrian
11890	ADRIAN STEEL COMPANY	906 James Street ,Adrian
11892	ADRIAN VOGT, D.D.S., M.S.D.	256 North San Mateo Drive, Suite 1 ,San Mateo
11894	ADRIAN YI M.D., INC.	16311 Ventura Blvd., Suite 550 ,Encino
11898	ADRIANA LALINDE, D.D.S., INC.	17820 Moro Road ,Salinas
11901	ADRIANA TRANSPORT, INC.	1249 Waverly Place ,Elizabeth
11902	ADRIANNA PAPELL, LLC	512 7th Ave ,New York
11904	ADRIANS CARPETS, INC.	501 North Fairview Road ,Santa Ana
11905	ADRIANS MARKET, INC.	P.O. Box 13 ,Hopwood
11906	ADRIEL AUTO	Po Box 3108 ,Bayamon
11908	ADRIEN INDUSTRIES, INC.	7023 Miami Avenue ,Cincinnati
11916	ADRIENNE R. PARRY, P.T., P.C.	1880 West Orange Grove Road ,Tucson
11921	ADROIT CONSTRUCTION CO., INC.	Po Box 609 ,Ashland
11922	ADROIT CONSULTING INC.	668 Long Cove Court ,Riverwoods
11924	ADROIT SOFTWARE INC	23 Faulkner Rd ,Shrewsbury
11928	ADROIT UTILITIES, INC.	1009 Scenic Parkway ,Chesapeake
11931	ADRON TOOL CORP	N85W13730 Leon Road ,Menomonee Falls
11933	ADRONICS/ELROB MANUFACTURING CORP	608 East 13Th Street ,Hays
11934	ADRS	104 Mule Creek Court ,Folsom
11938	ADS ALLIANCE DATA SYSTEMS, INC.	7500 Dallas Parkway ,Plano
11939	ADS ASSOCIATES INC	7400 Distribution Drive ,Louisville
11940	ADS CONSULTING CORPORATION	816 Executive Drive ,Oviedo
11941	ADS CONSULTING GROUP, INC.	5 Albero Court ,Rancho Palos Verdes
11942	ADS DIRECT MEDIA, INC.	11780 Us Highway 1 ,Palm Beach Gardens
11943	ADS DISTRIBUTING, INC.	2530 70th Avenue Se ,Mercer Island
11944	ADS DRIVES, INC.	11447 Cronhill Drive, Suite J ,Owings Mills
11946	ADS INFINITUM	Po Box 12726 ,Raleigh
11947	ADS LLC	1925 West Field Court, Suite 200 ,Lake Forest
11948	ADS LOGISTIC SERVICES, LLC	23 Mack Drive ,Edison
11949	ADS LOGISTICS CO, LLC	116 East 1100 North ,Chesterton
11950	ADS MEDIA GROUP	12758 Cimarron Path Ste B-128 ,San Antonio
11952	ADS ON THINGS, LLC	6303 E. Brainerd Road ,Chattanooga
11955	ADS SECURITY, LP	3001 Armory Drive ,Nashville
11957	ADS SOUTH, LLC	24 Cathedral Place ,St. Augustine
11959	ADS VENTURES INC.	3 Post Office Square, 8th Floor ,Boston
11962	ADSAGE CORPORATION	10500 NE 8th Street ,Bellevue
11963	ADSCAPE MEDIA INC	1600 Amphitheatre Pkwy ,Mt View
11964	ADSCO MANUFACTURING LLC	4979 Lake Avenue ,Blasdell
11965	ADS-CO, INC.	15000 E Beltwood Parkway ,Addison
11966	ADSERTS, INC.	14750 W. Capitol Drive ,Brookfield
11968	ADSI MOVING SYSTEMS	3122 Mike Padgett Hwy ,Augusta
11969	ADSIMILATE MARKETING INC	8269 Dampier Circle ,Liverpool
11970	ADSLOT INC	156 2nd St ,San Francisco
11971	ADSORBENTS & DESICCANTS CORPORATION OF AMERICA	17000 So. Vermont Ave., Complex P ,Gardena
11972	ADSPACE NETWORKS, INC.	99 Park Avenue, Suite 310 ,New York
11973	ADSTAR INC	7404 Foxwerth Dr ,Wilmington
11974	ADSTAR, INC	13428 Maxella Ave #224 ,Marina Del Ray
11975	ADSTAR, INC.	1390 Jerusalem Avenue ,N. Merrick
11976	ADSTRACTS, INC.	318 West Millbrook Road, Suite 201 ,Raleigh
11978	ADSUAR MUNIZ AND GOYCO	268 Munoz Rivera Ave. Ste 1400 ,San Juan
11979	ADSUM INCORPORATED	P.O. Box 222215 ,Chantilly
11980	ADSUN VENTURES INC.	10665 E Bella Vista Drive ,Scottsdale
11983	ADSYSTECH, INC.	8401 Colesville Road ,Silver Spring
11984	ADT AUTOMOTIVE CORPORATION	729 Dixwell Avenue ,New Haven
11985	ADT DENTAL	2232 Hennepin Avenue South ,Minneapolis
11986	ADT SECURITY SERVICES, INC.	6600 Congress Avenue ,Boca Raton
11988	ADTEC COLORANT CORP	514 N Great Southwest Pkwy ,Arlington
11989	ADTEC PRODUCTIONS, INC.	408 Russell Street ,Nashville
11990	ADTEC TECHNOLOGY, INC.	48625 Warm Springs Blvd ,Fremont
11991	AD-TECH CCI, INC.	1298 S. 28th Street ,Harrisburg
11992	ADTECH GLOBAL SOLUTIONS, INC.	1880 Mcfarland Pkwy ,Alpharetta
11993	AD-TECH INDUSTRIES, INC.	Po Box 505 ,Watertown
11994	AD-TECH MEDICAL INSTRUMENT CORPORATION	1901 William Street ,Racine
11995	ADTECH SYSTEMS, INC.	490 Boston Post Road ,Sudbury
11996	ADTEGRITY.COM, INC.	38 Commerce Ave SW,Ste 200 ,Grand Rapids
11997	AD-TEK ENGINEERING SERVICES, INC	2090 North Tustin Avenue ,Santa Ana
11998	ADTEK ENGINEERS INC	3251 Old Lee Hwy Ste 405 ,Fairfax
11999	ADTEK INFORMATION SYSTEMS, INC.	500 5th Ave Ste 2110 ,New York
12002	ADTHEOREM INC	155 Avenue Of The Americas Rm ,New York
12003	ADTRAN, INC	901 Explorer Blvd. ,Huntsville
12004	ADTRAV CORPORATION	4555 Southlake Parkway ,Birmingham
12009	ADULT & CHILD MENTAL HEALTH CENTER, INC.	8320 Madison Ave ,Indianapolis
12014	ADULT & PEDIATRIC ASTHMA & ALLER	1032 Hillcrest Rd ,Mobile
12015	ADULT & PEDIATRIC DENTAL STUDIO, P.C.	200 Bridge Plaza Drive ,Manalapan
12016	ADULT & PEDIATRIC DERMATOLOGY OF TULLAHOMA, PC	100 William Northern Blvd., Suite C ,Tullahoma
12018	ADULT & PEDIATRIC DERMATOLOGY, INC.	4601 W. 109th Street, Suite 116 ,Overland Park
12019	ADULT & PEDIATRIC DERMATOLOGY, LLC	561 Cranbury Road ,East Brunswick
12020	ADULT & PEDIATRIC DERMATOLOGY, P.C.	1620 Sudbury Rd ,Concord
12022	ADULT & PEDIATRIC NEUROSURGERY , PC	P.O. Box 61297 ,Virginia Beach
12023	ADULT & PEDIATRIC ORTHODONTICS, P.A.	744 Roosevelt Trail, Suite 101 ,Windham
12025	ADULT & PEDIATRIC UROLOGY OF	5 Walter Foran Blvd Ste 4001 ,Flemington
12028	ADULT &CHILD FOOTCARE, LLC	10 Kettle Creek Road ,Toms River
12030	ADULT AND CHILD REHABILITATION CENTER	708 Washington Street ,Woodstock
12032	ADULT AND PEDIATRIC DERMATOLOGY PC	1078 Oaks Drive ,Franklin Square
12033	ADULT AND PEDIATRIC ORTHOPAEDIC SPECIALISTS	1310 West Stewart Drive, Suite 508 ,Orange
12036	ADULT AND PEDIATRIC UROLOGY P.C.	10707 Pacific Street Suite 101 ,Omaha
12037	ADULT AND PEDIATRIC UROLOGY, P.L.L.P.	2351 Connecticut Ave S., Suite 200 ,Sartell
12039	ADULT CARE SERVICES, INC.	844 Sunset Avenue ,Prescott
12040	ADULT CENTER FOR ENRICHMENT, INC.	P.O. Box 13048 ,Greensboro
12041	ADULT CHRISTIAN EDUCATION FOUNDATIO N	1030 Uniek Drive ,Waunakee
12042	ADULT CLIENT TRAINING SERVICE, INC.	802 E Fairview Ave ,Olivia
12044	ADULT COMPANION CARE, INC.	1055 N. Fairfax Street Suite 202 ,Alexandria
12046	ADULT CONGENITAL HEART ASSOCIATION, INC.	6757 Greene St Ste 335 ,Philadelphia
12050	ADULT ENRICHMENT CENTER, INC.	6146 Appaloosa Trl ,San Angelo
12051	ADULT GASTROENTEROLOGY ASSOCIATES, INC.	6465 S. Yale, Ste 1002 ,Tulsa
12058	ADULT INTERNAL MEDICINE OF NORTH SCOTTSDALE, LTD.	10290 N. 92nd Street Suite #203 ,Scottsdale
12059	ADULT LEARNING PROGRAMS OF ALASKA	60 Hall St ,Fairbanks
12060	ADULT LEARNING SYSTEMS OF OREGON, INC.	345 E Columbia River Hwy ,Troutdale
12065	ADULT MEDICINE SPECIALIST OF EASLEY PA	764 Saco Lowell Road ,Easley
12068	ADULT MEDICINE SPECIALISTS, P.C.	10020 Nicholas Street ,Omaha
12070	ADULT NEUROLOGY CENTER, PC	1025 Jefferson Avenue ,Washington
12071	ADULT PRIMARY CARE ASSOCIATES OF GREATER GWINNETT, LLC	575 Professional Dr, Ste 510 ,Lawrenceville
12074	ADULT RESOURCES CENTER INC	1145 E 55th Street ,Brooklyn
12076	ADULTS & CHILDRENS ALLIANCE, INC.	2885 Country Drive, Suite 165 ,St. Paul
12078	ADURO BIOTECH, INC.	626 Bancroft Way, 3C ,Berkeley
12079	ADUSA, INC.	5407 Trillium Blvd., Suite 240 ,Hoffman Estates
12082	ADVA OPTICAL NETWORKING NORTH AMERICA, INC.	5755 Peachtree Industrial Blvd ,Norcross
12083	ADVACARE HOME SERVICES, INC	200 Villani Dr, Suite 3009 ,Bridgeville
12087	ADVAIYA INC.	2475 - 140th Ave. NE, Ste. 201 ,Bellevue
12088	ADVALUE PHOTONICS INC	3440 E. Britannia Dr. ,Tucson
12089	ADVAN INTL CORP.	47817 Fremont Blvd ,Fremont
12090	ADVAN LLC	2520 Meridan Parkway ,Durham
12091	ADVANCARE HEALTHCARE SERVICES, LLC	2625 Butterfield Rd Ste 300S ,Oak Brook
12092	ADVANCE	301 Division Ave. Po Box 810 ,Brookings
12094	ADVANCE ABSTRACT CORP.	99 Powerhouse Road ,Roslyn Heights
12095	ADVANCE AIR SYSTEMS	18757 S. Hwy 377 ,Cresson
12096	ADVANCE ALABAMA MEDIA LLC	2201 4th Avenue North ,Birmingham
12097	ADVANCE ALUMINUM SUPPLY, INC.	1136 114th Lane Suite 200 ,Coon Rapids
12098	ADVANCE AMERICA, CASH ADVANCE CENTERS, INC	135 North Church Street ,Spartanburg
12099	ADVANCE APEX, INC.	2375 Harrisburg Pike ,Grove City
12100	ADVANCE AUTO CENTER, INC.	320 Watertown Street ,Newton
12101	ADVANCE AUTOMATION COMPANY	3526 N. Elston Ave. ,Chicago
12103	ADVANCE BARIATRIC CENTER, MEDICAL CORPORATION	301 N. Avalon Blvd, ,Wilmington
12107	ADVANCE BLUEPRINT & DIGITAL COPY, INC.	2102 Hancock Street ,San Diego
12108	ADVANCE BOILER & TANK CO.	6600 W Washington St., ,West Allis
12109	ADVANCE BOILER AND TANK COMPANY LLC	6600 W Washtington St ,West Allis
12110	ADVANCE BRANDS, LLC	101 14th Street S.E. ,Orange City
12111	ADVANCE BRONZE INC.	Po Box 280 ,Lodi
12113	ADVANCE BUSINESS SYSTEMS & SUPPLY COMPANY	10755 York Road ,Cockeysville
12114	ADVANCE CABINET DESIGNS, INC.	P.O. Box 24802 ,Eugene
12115	ADVANCE CAPITAL GROUP, INC.	One Towne Square, Suite 444 ,Southfield
12116	ADVANCE CAPITAL SERVICES INC.	One Towne Square ,Southfield
12117	ADVANCE CAPITAL, INC.	600 University Street, Suite 1616 ,Seattle
12118	ADVANCE CARBON PRODUCTS, INC.	2036 National Avenue ,Hayward
12120	ADVANCE CARE AAA MEDICAL GROUP, INC	1330 S. Fullerton Road Suite 288 ,Rowland Heights
12121	ADVANCE CARE LLC	585 Southlake Blvd. Ste. B ,Richmond
12122	ADVANCE CARE MEDICAL GROUP, INC.	1330 S. Fullerton Road, Ste. 288 ,Rowland Heights
12123	ADVANCE CARE, LLC	575 Southlake Blvd Ste B ,Richmond
12124	ADVANCE CARGO CORPORATION	7921 NW 68th St ,Miami
12134	ADVANCE COMPANIES, INC.	6400 Central Avenue N.E. ,Minneapolis
12135	ADVANCE COMPONENTS, INC.	2920 Commodore Dr Ste 100 ,Carrollton
12136	ADVANCE COMPUTING SOLUTIONS, INC.	262 Boston Post Road ,Waterford
12137	ADVANCE CONCRETE FORM, INC.	5102 Pflaum Road ,Madison
12138	ADVANCE CONCRETE LLC	Po Box 74 ,Greenville
12141	ADVANCE CONSTRUCTION, INC.	2141 Woodale Ave. ,Green Bay
12142	ADVANCE CORPORATION	8200 97th Street South ,Cottage Grove
12146	ADVANCE DATA COMMUNICATIONS, INC.	167 D Arcy Parkway ,Lathrop
12147	ADVANCE DENTAL ARTS NW	1316 SW 13Th Ave. ,Portland
12148	ADVANCE DENTAL CARE CENTER	2111 Jefferson Davis Highway ,Arlington
12149	ADVANCE DENTAL CARE LLC	330 Ridge Rd ,Mahwah
12150	ADVANCE DENTAL CENTER P C	3611 Fort St ,Lincoln Park
12151	ADVANCE DERMATOLOGY & COSMETIC CENTER	2735 N Harlem Ave ,Chicago
12153	ADVANCE DESIGN CENTER, INC.	5430 Lbj Freeway, Suite 1200 ,Dallas
12155	ADVANCE DEVELOPMENT & MFG CORP	325 Soundview Rd ,Guilford
12156	ADVANCE DIGITAL INC.	3100 Plaza 5 ,Jersey City
12157	ADVANCE DIGITAL MARKETING INC.	11920 SW 79th Terrace ,Miami
12158	ADVANCE DISPOSAL CO. & RECYCLING CTR.	P.O. Box 400-997 ,Hesperia
12160	ADVANCE DISTRIBUTION SYSTEMS I	1140 Commerce Rd ,Morrow
12161	ADVANCE DOOR COMPANY	4555 Willow Parkway ,Cleveland
12162	ADVANCE EDUCATION, INC.	1901 Royal Oaks Dr. ,Sacramento
12166	ADVANCE ELECTRIC, INC.	715 7th Ave. North ,Grand Forks
12167	ADVANCE ELECTRICAL CORPORATION	33 Appian Way ,Smithfield
12171	ADVANCE ENERGY TECHNOLOGIES IN	1 Solar Dr ,Clifton Park
12172	ADVANCE ENGINEERING & MANUFACTURING	1 Vance Drive ,O Fallon
12173	ADVANCE ENGINEERING COMPANY	12025 Dixie Avenue ,Redford
12174	ADVANCE ENGINEERING CORPORATION	440 South Mclean Blvd ,Elgin
12175	ADVANCE ENGINEERING INC	280 Fish Rd ,Tiverton
12177	ADVANCE EYECARE CENTER, P.C.	4660 86th Street ,Urbandale
12178	ADVANCE FABRICATING, INC.	404 Wakefield Drive ,League City
12180	ADVANCE FABRICATION SERVICES, INC.	420 Oak Street ,Lemoyne
12181	ADVANCE FAMILY DENTAL CARE, LTD	1567 N Aurora Road Ste 143 ,Naperville
12182	ADVANCE FIBER OPTICS, INC.	871 West Robinson Drive ,North Salt Lake
12183	ADVANCE FIBER TECHNOLOGIES CORPORATION	344 Lodi Street ,Hackensack
12185	ADVANCE FINANCIAL CORPORATION	3700 Mansell Road Suite 550 ,Alpharetta
12186	ADVANCE FINANCIAL FCU	31 W Lincoln Highway ,Schererville
12189	ADVANCE FIRE PROTECTION CO., INC.	1451 West Lambert Road ,La Habra
12190	ADVANCE FITTINGS CORP.	218 West Centralia Street ,Elkhorn
12191	ADVANCE FOOD COMPANY, INC.	910 West Park ,Enid
12192	ADVANCE FORMING TECHNOLOGY	7040 Weld County Road 20 ,Longmont
12193	ADVANCE GARAGE DOOR COMPANY	2831 1st Avenue North ,Fargo
12195	ADVANCE GRAPHIC SYSTEMS, INC.	1806 Rochester Industrial ,Rochester Hills
12196	ADVANCE HEALTH SERVICES III, INC	7000 SW 97th Ave Ste 120 ,Miami
12200	ADVANCE HOME HEALTH SERVICES, INC.	801 W. Valley Blvd., Suite 105 ,Alhambra
12201	ADVANCE HOME THEATER	8312 NW 30 Terrace ,Miami
12203	ADVANCE HOUSING, INC.	100 Hollister Road ,Teterboro
12204	ADVANCE HYDROCARBON CORPORATION	P.O. Drawer 10275 ,College Station
12206	ADVANCE INDUSTRIAL MANUFACTURING INC.	1996 Longwood Avenue ,Grove City
12207	ADVANCE INDUSTRIES, INC.	P.O. Box 922 ,Blytheville
12208	ADVANCE INSTALLATIONS, INC.	Po Box 2163 ,Sparks
12209	ADVANCE INTERNATIONAL, INC	505 8th Avenue ,New York
12210	ADVANCE JANITORIAL, LLC	1333 West Grand Avenue ,Wisconsin Rapids
12211	ADVANCE KIDS, INC.	9755 Lincoln Village Drive ,Sacramento
12212	ADVANCE LAND AND TIMBER, LLC	205 West Butler Street ,Lexington
12216	AD-VANCE MAGNETICS, INC.	P.O. Box 69 ,Rochester
12218	ADVANCE MANAGEMENT & CONSULTING SERVICES	1065 Blyth Court ,Blue Bell
12219	ADVANCE MANAGEMENT INC.	2534 State Street Rm 207 ,San Diego
12222	ADVANCE MANUFACTURING CORPORATION	6800 Madison Avenue ,Cleveland
12223	ADVANCE MANUFACTURING TECHNOLOGY	839 South 3600 West ,Salt Lake City
12227	ADVANCE MEDICAL OF NAPLES, LLC	720 Goodlette Road North Suite 500 ,Naples
12228	ADVANCE MEDICAL OFFICE, P.C.	1 Stirrup Lane ,Roslyn Hts
12229	ADVANCE MEDICAL, INC.	100 Lowder Brook Dr Ste 1400 ,Westwood
12231	ADVANCE MILLWORK, INC.	Po Box 100 ,Hills
12233	ADVANCE MOLD & MFG., INC.	71 Utopia Rd. ,Manchester
12234	ADVANCE MOLD COMPANY	30930 Industrial Road ,Livonia
12235	ADVANCE MORTGAGE & INVESTMENT COMPANY, INC.	30500 State Highway 181 Suite 460 ,Spanish Fort
12236	ADVANCE MORTGAGE CORPORATION	7500 College Boulevard, Suite 1150 ,Overland Park
12237	ADVANCE MUSIC CENTER, INC.	75 Maple Street ,Burlington
12238	ADVANCE NOTICE, INC.	24 Winter Street ,Peabody
12239	ADVANCE NOVELTY COMPANY	29199 West Six Mile Road ,Livonia
12240	ADVANCE NURSING CORPORATION	1326 Miller Rd ,Greenville
12241	ADVANCE ONE WHEELS INC	12385 SW 129 Court ,Miami
12242	ADVANCE PACKAGING CORPORATION	Po Box 888311 ,Grand Rapids
12244	ADVANCE PALLET, INC.	600 Woodbury Street ,South Elgin
12246	ADVANCE PAPER CO., INC.	328 Food Terminal Plaza ,New Haven
12248	ADVANCE PATH ACADEMICS, INC.	4125 Ironbound Road Ste 201 ,Williamsburg
12249	ADVANCE PAVING, INC.	5455 Broadview Road Suite 101 ,Cleveland
12251	ADVANCE PAYROLL FUNDING, LTD.	3401 Enterprise Parkway, Fifth Floo ,Cleveland
12253	ADVANCE PHYSICAL MEDICAL LTD	350 W. Kensington Rd. #102 ,Mount Prospect
12254	ADVANCE PHYSICAL THERAPY AND SPORTS MEDICINE LLC	3032 Broadway ,Quincy
12255	ADVANCE PHYSICAL THERAPY, INC	2944 Broadway Street ,Redwood City
12257	ADVANCE PLATING & FINISHING, INC.	840 Cottage Grove ,Grand Rapids
12259	ADVANCE POLYBAG, INC	1470 First Colony Blvd ,Sugar Land
12260	ADVANCE POLYMER CONTROL, INC.	92 Industrial Rd. ,Glen Rock
12261	ADVANCE POOL SERVICE	650 E Cedar St Rear ,Allentown
12262	ADVANCE POOLS, INC.	2290 Fm 546 ,Mckinney
12263	ADVANCE POURED WALLS INC	3425 S 6th St ,Kalamazoo
12265	ADVANCE PRINT & GRAPHICS, INC.	4553 Concourse Drive ,Ann Arbor
12266	ADVANCE PRINTING COMPANY, INC.	8100 Reading Rd ,Cincinnati
12267	ADVANCE PRINTING, INC.	6836 Harford Road ,Baltimore
12269	ADVANCE PRODUCTS & SYSTEMS, INC	P.O. Box 60399 ,Lafayette
12270	ADVANCE PRODUCTS CORP	2527 Hwy M 63 ,Benton Harbor
12271	ADVANCE PRODUCTS, INC.	140 State Street ,Calumet City
12273	ADVANCE PUBLISHERS LC	2805 Dallas Pkwy Ste 640 ,Plano
12276	ADVANCE REALTY DEVELOPMENT, LLC	1041 U.S. Highway 202/206 ,Bridgewater
12277	ADVANCE REFRIGERATION & ICE SYSTEMS	1433 Linden St. Ste A ,Riverside
12280	ADVANCE REHABILITATION LLC	6001 SW 6th Street Suite 230 ,Topeka
12281	ADVANCE REPRODUCTION CORPORATION	100 Flagship Drive ,North Andover
12283	ADVANCE RESEARCH CHEMICALS, INC.	1110 Keystone Ave ,Catoosa
12285	ADVANCE SCALE COMPANY, INC.	2400 Egg Harbor Road ,Lindenwold
12286	ADVANCE SCREW PRODUCTS, INC.	3767 South Kinnickinnic Avenue ,St.Francis
12287	ADVANCE SERVICES, INC.	112 S. Birch Street ,Norfolk
12289	ADVANCE SIGN COMPANY LLC	1010 Saw Mill Run Blvd ,Pittsburgh
12290	ADVANCE SIGNS, INC.	846 Bronco Highway ,Mapleville
12291	ADVANCE SOIL TECHNOLOGY, INC.	343 South Baywood Avenue ,San Jose
12292	ADVANCE SOUND & ELECTRONICS	5854 Rosebud Lane ,Sacramento
12293	ADVANCE SPORTS AND SPINE THERAPY, LLC	P.O. Box 589 ,West Linn
12294	ADVANCE STAFF LEASING, INC.	4407 West St. Joseph Hwy. ,Lansing
12296	ADVANCE STORES COMPANY, INC	5008 Airport Road ,Roanoke
12297	ADVANCE SURVEYING & ENGINEERING CO.	5300 South County Road 101 ,Minnetonka
12298	ADVANCE TANK & CONSTRUCTION CO., INC.	3700 East County Road 64 ,Wellington
12300	ADVANCE TECHNICAL COMPONENTS, INC.	630 Pratt Ave N ,Schaumburg
12301	ADVANCE TECHNOLOGICAL RADIOLOGY PA	714 Ingraham Ave. ,Haines City
12302	ADVANCE TECHNOLOGIES LLC	23 Kondelin Road ,Gloucester
12304	ADVANCE TELECOM RESOURCES, INC.	141 Ethel Road West ,Piscataway
12307	ADVANCE TESTING CO., INC.	3348 Route 208 ,Campbell Hall
12308	ADVANCE THERAPEUTIC CONCEPTS	1988 Shaker Falls Lane ,Lawrenceville
12309	ADVANCE THERAPY ASSOCIATES	Po Box 1327 ,Watertown
12311	ADVANCE TITLE & ABSTRACT, INC.	1428 Kempsville Road ,Chesapeake
12312	ADVANCE TITLE SERVICES, INC.	1307 N.E. 10th Street ,Bentonville
12313	ADVANCE TRADING, INC.	1619 Commerce Pkwy ,Bloomington
12315	ADVANCE TRANSPORTATION COMPANY, INC	1445 North 32nd Street ,Philadelphia
12316	ADVANCE TURNING & MANUFACTURING, INC.	4005 Morrill Road ,Jackson
12318	ADVANCE UTILITY DESIGN, INC.	30033 Technology Drive ,Murrieta
12319	ADVANCE VALVE, INC.	212 Fabricator Dr. ,Fenton
12320	ADVANCE VAN & TRUCK EQUIPMENT INC	4154 Incubator Ct ,Sanford
12321	ADVANCE VENDING CORP.	14600 Industrial Ave. S. ,Maple Heights
12324	ADVANCE WHOLESALE ELECTRIC, INC.	13292 Paxton St. ,Pacoima
12327	ADVANCED ABRASIVES CORPORATION	7980 National Highway ,Pennsauken
12331	ADVANCED ACUPUNCTURE CENTER	4830 Belfield Drive ,Dublin
12332	ADVANCED ADBAG PACKAGING, INC.	597 Quarry Road ,San Carlos
12333	ADVANCED ADHESIVE	681 N Mountain Rd ,Newington
12335	ADVANCED AESTHETIC & RECONSTRUCTIVE SURGERY, INC.	4845 Knightsbridge Blvd, Suite 230 ,Columbus
12336	ADVANCED AESTHETIC CENTER FOR ORAL & MAXILLOFACIAL SURGERY, INC.	2239 N. Commerce Parkway, Suite 2 ,Weston
12337	ADVANCED AESTHETIC DENTISTRY	3244 E Main St ,Mohegan Lake
12338	ADVANCED AESTHETIC DENTISTRY, P.C.	85 Beach Street ,Westerly
12339	ADVANCED AESTHETIC PLASTIC SURGERY	10755 Double R Blvd. ,Reno
12340	ADVANCED AESTHETIC SURGERY, PC	711 Canton Road, Suite 400 ,Marietta
12341	ADVANCED AESTHETICS OF GLENVILLE	113 Saratoga Road ,Glenville
12342	ADVANCED AESTHETICS PLLC	608 Northwest Blvd, Suite 301 ,Coeur D Alene
12343	ADVANCED AESTHETICS SURGERY AND LASER CENTER, PC	2111 West Park Court ,Champaign
12344	ADVANCED AESTHETICS, INC.	867 East 2260 South ,Provo
12345	ADVANCED AESTHETICS, P.C.	874 Lanier Avenue West Suite 100 ,Fayetteville
12346	ADVANCED AG RESOURCES, INC.	4190 W 50 N ,Wabash
12349	ADVANCED AIR MANAGEMENT	16233 Vanowen St ,Van Nuys
12350	ADVANCED AIR SOLUTIONS	6015 Benjamin Rd Suite # 324 ,Tampa
12351	ADVANCED AIR SOLUTIONS, INC.	317 S Main St ,Standish
12352	ADVANCED AIR SYSTEMS	2250 W Hwy 70 ,Thatcher
12354	ADVANCED ALLERGY & ASTHMA ASSESSMENT &	202-28 45th Avenue ,Bayside
12355	ADVANCED ALLERGY & ASTHMA CLINIC S.C.	402 W Boughton ,Bolingbrook
12356	ADVANCED ALLERGY & ASTHMA OF VIRGINIA	5924 Harbour Park Drive ,Midlothian
12357	ADVANCED ALLERGY AND ASTHMA CARE, P.A.	6233 66th Street North ,Pinellas Park
12358	ADVANCED ALLERGY ASSOCIATES INC	6040 Bollard Ave Ste 160 ,New Orleans
12360	ADVANCED ALLERGY CARE, P.A.	9191 Pinecroft, Suite 245 ,The Woodlands
12361	ADVANCED ALLERGY, ASTHMA & IMMUNOLOGY	508 N. Le Canto Hwy ,Le Canto
12362	ADVANCED ALTERNATIVE MEDIA, INC	7 West 22nd Street ,New York
12364	ADVANCED ALUMINUM OMC	1580 Market Circle Unit I ,Port Charlotte
12366	ADVANCED AMBULATORY SURGERY CE	1901 W Lugonia Ave ,Redlands
12367	ADVANCED AMBULATORY, INC	P.O. Box 981047 ,Houston
12369	ADVANCED AMERICAN COLLEGE, INC.	13180 Paramount Blvd. ,Southgate
12370	ADVANCED AMERICAN CONSTRUCTION, INC	8444 NW St. Helens Road ,Portland
12371	ADVANCED AMERICAN FINANCIAL, LLC	P.O. Box 4047 ,Wallingford
12373	ADVANCED ANALYTICAL CONSULTING GROUP, INC.	211 Congress Street, 9th Floor ,Boston
12374	ADVANCED ANALYTICAL LABORATORIES LLC	P O Box 760 ,Whitehouse
12375	ADVANCED ANALYTICAL TECHNOLOGIES, INC.	2711 South Loop Drive ,Ames
12376	ADVANCED ANALYTICS LABORATORIES	1025 Concord Avenue ,Columbus
12386	ADVANCED ANIMATIONS, LLC	534 Vt Route 107 ,Stockbridge
12390	ADVANCED APPLICATION DESIGN INC	Po Box 1665 ,Wrightsville Beach
12393	ADVANCED ARLINGTON MEDICAL CENTER	333 West Dundee Road ,Buffalo Grove
12396	ADVANCED ASPHALT TECHNOLOGIES, LLC	108 Powers Court Suite 100 ,Sterling
12399	ADVANCED ASSEMBLY, LLC	20100 E. 32nd Pkwy Suite 225 ,Aurora
12401	ADVANCED ASSET MANAGEMENT INC.	10220 SW Greenburg Road #210 ,Portland
12402	ADVANCED ASSET MANAGMENT ADVISORS, INC.	4995 Bradenton Avenue Suite 210 ,Dublin
12404	ADVANCED ASTHMA AND ALLERGY OF	Po Box 5 ,Watertown
12406	ADVANCED AUDIO VISUAL SALES, INC.	208 Carter Drive ,West Chester
12408	ADVANCED AUDIO VISUAL SERVICES	1199 Sunrise Hwy Ste 5 ,Copiague
12409	ADVANCED AUDIOLOGY	5402 SW Lee Boulevard ,Lawton
12410	ADVANCED AUDIOLOGY, INC	1041 Mcarthur Drive ,Littleton
12411	ADVANCED AUTO BODY, INC.	254 Park Avenue Rear ,Worcester
12412	ADVANCED AUTO GLASS	137 Eaton Street ,Springville
12413	ADVANCED AUTO GLASS, INC.	44 North Union Street ,Akron
12414	ADVANCED AUTO TRANSPORT, INC.	8603 - 34th Street N ,Lake Elmo
12416	ADVANCED AUTOMATED SYSTEMS INC	23691 Via Del Rio ,Yorba Linda
12417	ADVANCED AUTOMATIC SPRINKLER, INC.	1947 San Ramon Valley Blvd, Ste 100 ,San Ramon
12418	ADVANCED AUTOMATION SYSTEMS, INC.	3818 N 40th Street ,Tampa
12419	ADVANCED AUTOMATION TECHNOLOGIES, INC.	9701 Apollo Drive ,Largo
12421	ADVANCED AUTOMATION, LLC	2014 Shawnee Street ,Denton
12423	ADVANCED AUTOWERKS, INC	1218 Michigan St ,San Francisco
12424	ADVANCED AV, LLC	208 Carter Drive Suite 7 ,West Chester
12426	ADVANCED AWNING & DESIGN, LLC	2155 Corporate Square Blvd. ,Jacksonville
12427	ADVANCED AWNING & SIGN, INC	4015 Lake Forest Path ,Stevensville
12428	ADVANCED BACK CENTER, PC	200 Queen Street ,Southington
12429	ADVANCED BACKGROUND CHECK, INC.	1221 Wilmington Avenue, Suite 211 ,Dayton
12431	ADVANCED BARRIER CONCEPTS, INC.	150 Iowa Lane, Suite 101 ,Cary
12432	ADVANCED BARRIER EXTRUSIONS, LLC	4390 Anderle Drive ,Rhinelander
12433	ADVANCED BATTERY SYSTEMS, LLC	1300 19th St. Suite 170 ,East Moline
12434	ADVANCED BATTERY TECHNOLOGIES, INC.	P.O. Box 11465 ,Winson-Salem
12437	ADVANCED BEAUTY INC	5501 Lyndon B Johnson Fwy Ste ,Dallas
12438	ADVANCED BEHAVIORAL CENTERS OF DUPAGE, LLC	501 W. Ogden Ave., Suite 1 ,Hinsdale
12439	ADVANCED BEHAVIORAL HEALTH INC	3300 County Rd 10 ,Brooklyn Center
12440	ADVANCED BEHAVIORAL HEALTH, INC.	213 Court St ,Middletown
12444	ADVANCED BENEFIT SYSTEMS	4695 Macarthur Court, Suite 360 ,Newport Beach
12449	ADVANCED BIOENERGY, LLC	8000 Norman Center Drive ,Bloomington
12450	ADVANCED BIOHEALING, INC.	10933 N. Torrey Pines Road ,La Jolla
12454	ADVANCED BIONICS, LLC	28515 Westinghouse Place ,Valencia
12455	ADVANCED BIONUTRITION CORP	7155 Columbia Gateway Dr., Suite H ,Columbia
12457	ADVANCED BIOSCIENCE RESOURCES, INC.	1516 Oak Street ,Alameda
12458	ADVANCED BIOTECHNOLOGIES, INC.	9108 Guilford Rd. ,Columbia
12459	ADVANCED BLENDING SOLUTIONS	Po Box 1056 ,Menominee
12460	ADVANCED BOILER CONTROL SERVICES, INC.	8730 Cline Avenue ,Crown Point
12461	ADVANCED BOOKKEEPING CONCEPTS, LTD.	7131 Spring Meadows West Dr. ,Holland
12462	ADVANCED BORING SPECILISTS, INC.	13023 NE Highway 99, Suite 7 ,Vancouver
12463	ADVANCED BOTANICAL CONSULTING &	1169 Warner Ave ,Tustin
12464	ADVANCED BRAIN TECHNOLOGIES	5748 South Adams Avenue Parkway ,Ogden
12465	ADVANCED BREAST & COSMETIC SURGERY, INC.	2350 Miami Valley Dr. ,Dayton
12467	ADVANCED BREAST CARE PC	790 Church St Ste 410 ,Marietta
12473	ADVANCED BUILDING GROUP	3951 Medford Street ,Los Angeles
12476	ADVANCED BUILDING SERVICES, LLC	P.O. Box 51817 ,Lafayette
12477	ADVANCED BUILT STRUCTURES, INC	90 Maple Place ,Keyport
12478	ADVANCED BUSINESS COMPUTERS OF	11246 Alumni Way ,Jacksonville
12480	ADVANCED BUSINESS EQUIPMENT	1129 Union Blvd ,Allentown
12481	ADVANCED BUSINESS EQUIPMENT TECHNOLOGIES, INC.	2342 Stanwell Drive ,Concord
12482	ADVANCED BUSINESS EQUIPMENT, INC.	3072 Sweeten Creek Road ,Asheville
12483	ADVANCED BUSINESS GROUP, INC.	266 West 37th Street, 15th Floor ,New York
12484	ADVANCED BUSINESS INNOVATIONS, INC.	6900 Owensmouth Avenue ,Canoga Park
12487	ADVANCED BUSINESS LINK CORP	5808 Lake Wa Blvd Ne ,Kirkland
12488	ADVANCED BUSINESS MACHINES, INC.	5344 11th Street ,Rockford
12489	ADVANCED BUSINESS METHODS, INC.	1515 13Th Avenue East ,West Fargo
12494	ADVANCED BUSINESS SYSTEMS CONSULTING GROUP, INC.	P.O. Box 731 ,Libertyville
12495	ADVANCED BUSINESS SYSTEMS, INC.	1040 Ft. Pickens Road ,Pensacola Beach
12498	ADVANCED C4 SOLUTIONS, INC.	4017 W Martin Luther King, Jr. Blvd ,Tampa
12503	ADVANCED CABLE TECHNOLOGY, INC.	27 Michael Walk ,Lancaster
12505	ADVANCED CABLING SYSTEMS, LLC	4950 Northshore Lane ,North Little Rock
12506	ADVANCED CAD/CAM SERVICE	801 W Main Street ,Peoria
12507	ADVANCED CALL CENTER TECHNOLOGIE	1235 Westlakes Drive ,Berwyn
12508	ADVANCED CALL PROCESSING, INC.	2030 Corte Del Nogal, Suite 100 ,Carlsbad
12509	ADVANCED CAPITAL GROUP	50 South Sixth Street #975 ,Minneapolis
12510	ADVANCED CAPITAL STRATEGIES, INC.	501 Fifth Ave Suite 1608 ,New York
12511	ADVANCED CARBIDE GRINDING	5369 Route 982 ,Derry
12512	ADVANCED CARBIDE TOOL COMPANY, INC.	1385 Industrial Blvd ,Southampton
12513	ADVANCED CARBON TECHNOLOGIES, INC.	220 Main Street ,Topton
12514	ADVANCED CARD SYSTEMS & SOLUTIONS, INC	1775 Route 34 South ,Farmingdale
12515	ADVANCED CARDIAC CARE PLLC	9511 101st Ave Ste 2 ,Ozone Park
12519	ADVANCED CARDIAC SURGICAL ASSOCIAT PLLC	151 Jackman Lane ,Elma
12520	ADVANCED CARDIOLOGY	840 Dunlawton Avenue, Suite A ,Port Orange
12521	ADVANCED CARDIOLOGY ASSOCIATES, LLC	175 Jericho Turnpike, Suite 204 ,Syosset
12525	ADVANCED CARDIOLOGY CONSULTANTS, LTD.	1710 N Randall Road Suite 340 ,Elgin
12526	ADVANCED CARDIOLOGY INSTITUTE	2200 Fletcher Ave ,Fort Lee
12528	ADVANCED CARDIOLOGY PLLC	1200 E. Michigan Ave Ste 780 ,Lansing
12532	ADVANCED CARDIOTHORACIC SURGEONS PLLC	38800 Garfield Road ,Clinton Township
12533	ADVANCED CARDIOTHORACIC SURGERY MED ICAL GROUP, INC.	1245 Wilshire Blvd., Suite 606 ,Los Angeles
12534	ADVANCED CARDIOVASCULAR ASSOCIATES, PC	808 South 4th Street ,Gadsden
12535	ADVANCED CARDIOVASCULAR CARE	12717 S 28th Ave ,Bellevue
12544	ADVANCED CARDIOVASCULAR SERVICES., LTD.	1710 West Court Street ,Kankakee
12545	ADVANCED CARDIOVASCULAR SPECIA	439 Mill Hill Avenue ,Bridgeport
12546	ADVANCED CARDIOVASCULAR SPECIALISTS	1530 Missouri Route A ,Liberty
12548	ADVANCED CARDIOVASCULAR SPECIALISTS, LLP	755 N. 11th Street, Suite P2200 ,Beaumont
12551	ADVANCED CARE CLINIC	1220 W. Ranchito Drive ,Mequon
12553	ADVANCED CARE ENDODONTICS, INC.	31 King Charles Drive, Unit C-1 ,Portsmouth
12554	ADVANCED CARE FOR WOMEN, PLLC	7176 West Crystal Road ,Glendale
12555	ADVANCED CARE HOSPITALISTS, PL	P.O. Box 4707 ,Plant City
12556	ADVANCED CARE IN ENDODONTICS, LTD.	1401 Mchenry Road, Suite 121 ,Buffalo Grove
12557	ADVANCED CARE INC	931-D Conklin St ,Farmingdale
12560	ADVANCED CARE ONCOLOGY & HEMATOLOGY ASSOCIATES LLC	385 Morris Avenue ,Springfield
12561	ADVANCED CARE PEDIATRICS, INC.	55 Ivan Allen Blvd., Suite 525 ,Atlanta
12563	ADVANCED CARE PROVIDER NETWORK	50680 Corporate Drive ,Shelby Twp
12565	ADVANCED CARE TECHNOLOGIES, INC.	12431 Lewis Street - Suite 101 ,Garden Grove
12567	ADVANCED CARGO CORPORATION	159 S. Leonard St. ,West Salem
12568	ADVANCED CARPET & FLOORING, INC. DB	1308 Rosewood Street ,Jenison
12570	ADVANCED CAULKING, LLC	5 North Commerce Park Dr., Ste. D ,Cincinnati
12572	ADVANCED CELL TECHNOLOGY	33 Locke Drive ,Marlborough
12575	ADVANCED CENTER FOR PLASTIC SURGERY	12205-12207 Tullamore Road ,Timonium
12578	ADVANCED CENTERS FOR ORTHOPAEDIC SURGERY &	10 Crossroads Dr ,Owings Mills
12579	ADVANCED CENTERS FOR PODIATRY AND WOUND CARE INC	265 Pine Cove Ct ,Lehighton
12580	ADVANCED CERAMETRICS, INC.	245 N. Main St. ,Lambertville
12582	ADVANCED CERAMICS, INC.	32378 Redwood Blvd ,Avon Lake
12583	ADVANCED CHEMICAL COMPANY	131 Bellows Street ,Warwick
12584	ADVANCED CHEMICAL LOGISTICS LIMI	7101 Burns Street ,Richland Hills
12585	ADVANCED CHEMICAL TRANSPORT, INC.	1210 Elko Drive ,Sunnyvale
12587	ADVANCED CHEMISTRY DEVELOPMENT	8 King East Suite 107 ,Toronto
12589	ADVANCED CHIROPRACTIC	429 White Horse Pike ,Atco
12590	ADVANCED CHIROPRACTIC & ACUPUNCTURE CENTER	2450 E. Grass Lake Road, Suite D ,Lindenhurst
12592	ADVANCED CHIROPRACTIC CENTER	408 Highway 80 Sw ,Pooler
12593	ADVANCED CHIROPRACTIC CENTER PA	2123 Browning Rd ,Pennsauken
12594	ADVANCED CIRCUIT SOLUTIONS LLC	5295 NE Elam Young Pkwy Ste 16 ,Hillsboro
12595	ADVANCED CIRCUITS, INC.	21100 East 33rd Drive ,Aurora
12597	ADVANCED CIRCULATORY SYSTEMS	1905 County Road C W Ste A ,Roseville
12602	ADVANCED CLEANUP TECHNOLOGIES, INC.	110 Main Street, Ste 103 ,Port Washingtojn
12603	ADVANCED CLINICAL ASSOCIATES, LLC	3120 W. Carefree Highway, Ste 1-313 ,Phoenix
12604	ADVANCED CLINICAL CONCEPTS, LLC	520 Route 22 East - Third Floor ,Bridgewater
12606	ADVANCED CLINICAL RESEARCH, INC.	3590 West 9000 South Suite 300 ,West Jordan
12607	ADVANCED CLUSTERING TECHNOLOGIES	1100 W Cambridge Circle Dr ,Kansas City
12608	ADVANCED CLUTCH TECHNOLOGY, INC.	206 East Avenue K-4 ,Lancaster
12609	ADVANCED CNC TECHNOLOGIES, INC.	4200 Planters Rd ,Fort Smith
12610	ADVANCED COHERENT TECHNOLOGIES, LLC	4022 Liggett Drive ,San Diego
12612	ADVANCED COLLECTION SERVICES, LTD.	55 Whiting Street, 2A ,Plainville
12617	ADVANCED COMFORT & ENERGY SOLUTIONS ENTERPRISES, INC.	Po Box 70 ,Auberry
12618	ADVANCED COMFORT SYSTEMS, INC.	1130 Michigan Avenue ,Oostburg
12619	ADVANCED COMFORT TECHNOLOGY, INC.	343 Wengel Drive ,Reedsburg
12622	ADVANCED COMMUNICATION RESOURCES, INC.	17832 Gillette Avenue ,Irvine
12627	ADVANCED COMMUNICATIONS DESIGN, INC.	7901 12Th Ave S ,Bloomington
12628	ADVANCED COMMUNICATIONS INC	201 Woodcreek Drive ,Michigan City
12629	ADVANCED COMMUNICATIONS SYSTEMS INC.	1807 W Main St ,Newcastle
12630	ADVANCED COMMUNICATIONS, INC.	110 Newbury Street, Suite 3F ,Boston
12633	ADVANCED COMMUNITY HEALTH SYSTEMS, INC.	5 Hillview Terrace ,Glen Rock
12634	ADVANCED COMPETITIVE STRATEGIES	1673A SW Montgomery Drive ,Portland
12635	ADVANCED COMPOSITE MATERIALS, LLC.	1446 S. Buncombe Road ,Greer
12636	ADVANCED COMPOSITE STRUCTURES, LLC	1026 Legrand Blvd. ,Charleston
12637	ADVANCED COMPOSITES, INC.	1062 4th Ave. ,Sidney
12640	ADVANCED COMPRESSOR TECHNOLOGY, INC	1400 Louis Bork Drive ,Batavia
12641	ADVANCED COMPUTER CONCEPTS INC	7927 Jones Branch Dr Ste 600N ,Mclean
12642	ADVANCED COMPUTER CONNECTIONS	166 Milan Avenue ,Norwalk
12644	ADVANCED COMPUTER EQUIPMENT, INC.	2009 E. 25th Street ,Vernon
12645	ADVANCED COMPUTER GRAPHICS, INC.	10601 Glendale Road ,Cincinnati
12647	ADVANCED COMPUTER PRODUSTS INC	3621 W Warner Ave ,Santa Ana
12648	ADVANCED COMPUTER SERVICES	74 North 19th Street ,Wheatley Heights
12649	ADVANCED COMPUTER SERVICES, INC.	P.O. Box 1553 ,Westford
12650	ADVANCED COMPUTER SUPPORT	2301 Gallows Rd ,Dunn Loring
12651	ADVANCED COMPUTER TECHNOLOGIES, INC.	860 Four Rod Road ,Berlin
12653	ADVANCED CONCEPTS AND TECHNOLOGIES INTERNATIONAL, LLC	1105 Wooded Acres, Suite 500 ,Waco
12655	ADVANCED CONCEPTS RESEARCH GRO	7371 Atlas Walk Way Ste 199 ,Gainesville
12656	ADVANCED CONCEPTS, INC.	5114 Bristol Avenue ,Kansas City
12660	ADVANCED CONCRETE CONSTRUCTION, INC	2902 W Mansfield Avenue ,Sheridan
12661	ADVANCED CONCRETE CUTTING & CORING, INC.	9516 Hamburg Rd. ,Ladson
12662	ADVANCED CONCRETE CUTTING, LLC	P O Box 7606 ,Cumberland
12663	ADVANCED CONCRETE SPECIALISTS, INC.	10036 Artesia Place ,Bellflower
12665	ADVANCED CONCRETE SYSTEMS, INC.	55 Advanced Ln ,Middleburg
12668	ADVANCED CONCRETE, INC.	C/O 555 Main Street, Suite 300 ,Racine
12669	ADVANCED CONSERVATION TECHNOLOGIES, INC.	13813 Turkey Foot Road ,North Potomac
12672	ADVANCED CONSTRUCTION SERVICES	5601 137th St ,Noble
12673	ADVANCED CONSULTING & ENGINEER	1962 Star Batt Drive ,Rochester Hills
12676	ADVANCED CONTAINMENT SYSTEMS I	8720 Lambright Rd ,Houston
12677	ADVANCED CONTRACTING, INC.	P.O. Box 217 ,Stoneboro
12678	ADVANCED CONTRACTOR COST MANAGEM	773 E Pecos Dr ,Sandy
12681	ADVANCED CONTROL SOLUTIONS, INC.	8750 Resource Park Drive ,Sylvania
12682	ADVANCED CONTROL SYSTEMS	2755 Northwoods Pkwy ,Norcross
12683	ADVANCED CONTROL TECHNOLOGIES INC	8076 Woodland Drive ,Indianapolis
12684	ADVANCED CONVERSION TECHNOLOGY, INC	2001 Fulling Mill Road ,Middletown
12685	ADVANCED COOLING TECHNOLOGIES, INC.	1046 New Holland Avenue ,Lancaster
12686	ADVANCED COORDINATE TECHNOLOGY	4890 Ironton St Unit 6C ,Denver
12687	ADVANCED COPIER SOLUTIONS	Po Box 771238 ,Steamboat Springs
12689	ADVANCED CORE CONSULTING, INC	102 Fieldfare Drive ,Kathleen
12690	ADVANCED CORE TECHNOLOGIES, LLC	1535 Hobby Street ,North Charleston
12692	ADVANCED CORP AGENTS	100 N. Lasalle ,Chicago
12693	ADVANCED CORP SERVICES	2416 Amsler St ,Torrance
12695	ADVANCED CORRECTIONAL HEALTHCARE INC	3922 W. Baring Trace ,Peoria
12696	ADVANCED CORROSION CONTROL TECHNOLO GIES, INC.	2519 47th Court ,Kenosha
12697	ADVANCED CORROSION TECHNOLOGIES & TRAINING LLC	75 Center Circle ,Sulphur
12699	ADVANCED COSMETIC DENTISTRY, LTD.	1090 New London Avenue ,Cranston
12700	ADVANCED COSMETIC SURGERY & LASER CENTER OF HYDE PARK, INC.	3805 Edwards Road, Suite 100 ,Cincinnati
12701	ADVANCED COSMETIC SURGERY & LASER CENTER, INC.	530 Swede Street ,Norristown
12703	ADVANCED COUNTERTOP DESIGN,INC.	475 East Greg Street, Unit 111 ,Sparks
12705	ADVANCED CROP CARE, INC.	P.O. Box 804 ,Sterling
12706	ADVANCED CUSTODIAL EQUIPMENT AND	465 Blossom Road ,Rochester
12707	ADVANCED CUSTOM ELECTRIC, INC.	P.O. Box 6941 ,Jackson
12708	ADVANCED CUSTOM ENGINEERED SYSTEMS & EQUIPMENT CO.	25102 W. Ramm Drive ,Naperville
12711	ADVANCED DATA SOLUTIONS, INC.	141 Scarlet Boulevard ,Oldsmar
12714	ADVANCED DATA TECHNOLOGIES, INC.	1075 Shore Road ,Naperville
12717	ADVANCED DATATOOLS CORPORATION	4216 Evergreen Lane, Suite 126 ,Annandale
12718	ADVANCED DECISIONS, INC.	4 Corporate Drive, Suite 383 ,Shelton
12722	ADVANCED DEFENSE TECHNOLOGIES	4820 Seton Drive Ste F ,Baltimore
12724	ADVANCED DENTAL ARTS BY JOHN A. ATLAS, DDS, LLC	179 Cahill Cross Road ,West Milford
12725	ADVANCED DENTAL ARTS, P.A.	738 Easton Avenue ,Somerset
12729	ADVANCED DENTAL CARE	3400 Dundee Rd., Suite 100 ,Northbrook
12730	ADVANCED DENTAL CARE LLC	201 S Livingston Avenue ,Livingston
12732	ADVANCED DENTAL CARE OF HUTTO	321 Ed Schmidt Blvd Suite 300 ,Hutto
12733	ADVANCED DENTAL CARE OF JOPLIN	2827 Arizona Ave. ,Joplin
12737	ADVANCED DENTAL CARE OF WESTCH	1329A North Avenue ,New Rochelle
12738	ADVANCED DENTAL CARE, L.L.C.	3211 Wildwood Plantation Drive ,Valdosta
12741	ADVANCED DENTAL CARE, P.A.	875 Lincoln Avenue ,Glen Rock
12744	ADVANCED DENTAL CARE, S.C.	62 S Pleasant View Rd ,Plymouth
12747	ADVANCED DENTAL CENTER P.A.	500 Westfield Ave ,Elizabeth
12748	ADVANCED DENTAL CENTER, P.A.	6601 North Davis Highway ,Pensacola
12749	ADVANCED DENTAL CENTER, PA	3020 Watersedge Lane ,Florence
12750	ADVANCED DENTAL CLINIC, P.A.	311 Airport Road ,Panama City
12752	ADVANCED DENTAL CONCEPTS OF JUPITER, INC.	Colonial Plaza ,Jupiter
12753	ADVANCED DENTAL CONCEPTS, LLC	10780 Randolph Street ,Crown Point
12756	ADVANCED DENTAL CONCEPTS, PA	4041 Highway 90 ,Pace
12757	ADVANCED DENTAL COSMETIC CENTER, PA	6220 Manatee Ave. W. ,Bradenton
12759	ADVANCED DENTAL DESIGN, INC.	311 S. Rennie ,Ada
12760	ADVANCED DENTAL DESIGNS INC	363 Newport Glen Ct ,Newport Beach
12761	ADVANCED DENTAL GROUP LLC	10780 Randolph Street ,Crown Point
12762	ADVANCED DENTAL GROUP, A PARTNERSHIP	5651 Corporate Way, Suite 1 ,West Palm Beach
12763	ADVANCED DENTAL GROUP, INC.	9201 Delphia Ave ,Des Plaines
12766	ADVANCED DENTAL LAB, INC.	2207 W Jackson St ,Tupelo
12767	ADVANCED DENTAL OF DYER, P.C.	15285 West 101st Avenue ,Dyer
12768	ADVANCED DENTAL SPA PC	140 Dartmouth Street ,New Bedford
12771	ADVANCED DENTAL, LLC	3517 W 57th St ,Sioux Falls
12772	ADVANCED DENTAL, LLC.	803 S. Jefferson Avenue ,Lebanon
12773	ADVANCED DENTISTRY	9920 U.S. Highway 90 A ,Sugar Land
12779	ADVANCED DEPENDABLE SOLUTIONS	1380B Main St ,Waltham
12782	ADVANCED DERMATOLOGIC SURGERY, P.A.	6901 West 121st Street ,Overland Park
12783	ADVANCED DERMATOLOGIC SURGERY, PA	1200 Binz St ,Houston
12784	ADVANCED DERMATOLOGY	11 Salem Turnpike, Suite 7 ,Norwich
12786	ADVANCED DERMATOLOGY & COSMETIC INSTITUTE, P.A.	6525 Barrie Road ,Edina
12787	ADVANCED DERMATOLOGY & DERMATOLOGIC SURGERY, INC.	1456 Haarman Oak Drive ,Chesterfield
12789	ADVANCED DERMATOLOGY & SKIN CANCER CENTER PLLC	1444 East Stearns St. Ste 11 ,Fayetteville
12790	ADVANCED DERMATOLOGY & SKIN SURGERY	4155 Moorpark Ave., Suite 3 ,San Jose
12791	ADVANCED DERMATOLOGY & SKIN SURGERY PLLC	1807 N. Hutchinson Rd. ,Spokane
12792	ADVANCED DERMATOLOGY AND COSMETIC SURGERY LLC	P.O. Box 1077 ,Seymour
12793	ADVANCED DERMATOLOGY AND DERMATOPATHOLOGY, INC.	5184 Socialville-Foster Road ,Mason
12795	ADVANCED DERMATOLOGY AND SKIN CARE	1419 Hamric Dr East ,Oxford
12796	ADVANCED DERMATOLOGY AND SKIN CARE PA	430 South Mason Road ,Katy
12797	ADVANCED DERMATOLOGY AND SKIN SURGERY CENTER	5040 Forest Dr. Ste. 150 ,New Albany
12799	ADVANCED DERMATOLOGY AND SKIN SURGERY, PA	16 Medical Park Drive ,Asheville
12801	ADVANCED DERMATOLOGY ASSOCIATES, LTD.	1259 South Cedar Crest Blvd. ,Allentown
12802	ADVANCED DERMATOLOGY ASSOCIATES, PA	315 E. Northfield Avenue - Ste 2A ,Livingston
12809	ADVANCED DERMATOLOGY INC.	675 Camino De Los Mares ,San Clemente
12810	ADVANCED DERMATOLOGY LASER & COSMETIC SURGERY, PC	137 Quentin Rd ,Brooklyn
12811	ADVANCED DERMATOLOGY MANAGEMENT, INC	111 Park Centre Boulevard ,Miami Gardens
12812	ADVANCED DERMATOLOGY OF EAST TENNESSEE, PC	615 Smithview Drive ,Maryville
12813	ADVANCED DERMATOLOGY OF NEW YORK, P.C.	200 Central Park S., Suite 107 ,New York
12815	ADVANCED DERMATOLOGY OF OREGON	19255 SW 65th Ave Suite 260 ,Tualatin
12816	ADVANCED DERMATOLOGY OF WESTCHESTER, P.L.L.C.	150 White Plains Road ,Tarrytown
12817	ADVANCED DERMATOLOGY PLC	5424East Southern Ave Ste 103 ,Mesa
12819	ADVANCED DERMATOLOGY SURGERY CENTER, P.C.	4 Hartford Drive ,Tinton Falls
12820	ADVANCED DERMATOLOGY, INC	6510 Grand Teton Plaza Suite 302 ,Madison
12821	ADVANCED DERMATOLOGY, INC.	255 Park Avenue ,Worcester
12823	ADVANCED DERMATOLOGY, INC. P.C.	1030 East Washington ,Mcalester
12824	ADVANCED DERMATOLOGY, LLC	275 Parkway Drive, Suite 521 ,Lincolnshire
12827	ADVANCED DERMATOLOGY, P.A.	1361 13Th Avenue South, Suite 180 ,Jacksonville Beach
12828	ADVANCED DERMATOLOGY, P.C.	6 Lowell Ave. ,New Hyde Park
12830	ADVANCED DERMATOLOGY, PC	41-61 Kissena Boulevard ,Flushing
12834	ADVANCED DESIGN CONSULTING, INC	P.O. Box 187 ,Lansing
12835	ADVANCED DESIGN CORPORATION	9447B Lorton Market St Ste 200 ,Lorton
12837	ADVANCED DESIGN SERVICES, INC.	Po Box 121618 ,West Melbourne
12839	ADVANCED DEVELOPMENT METHODS	49 Solomon Pierce Rd ,Lexington
12842	ADVANCED DIAGNOSTIC CENTER, P.A.	1912 S.W. Indian Woods Lane ,Topeka
12850	ADVANCED DIAGNOSTIC RADIOLOGY	952 Seton Dr ,Cumberland
12853	ADVANCED DICING TECHNOLOGIES	1155 Business Center Drive ,Horsham
12854	ADVANCED DIE SUPPLIES, INC.	10717 Norwalk Blvd. ,Santa Fe Springs
12857	ADVANCED DIGESTIVE CARE CENTER PC	235 Medical Blvd. ,Stockbridge
12858	ADVANCED DIGESTIVE CARE, PA	920 S Myrtle Ave Ste A ,Clearwater
12861	ADVANCED DIGITAL DATA, INC.	6 Laurel Drive ,Flanders
12863	ADVANCED DIGITAL LOGIC, INC.	4411 Morena Blvd., Suite 101 ,San Diego
12864	ADVANCED DIGITAL SERVICES, INC.	948 North Cahuenga Blvd ,Hollywood
12865	ADVANCED DIGITAL SOLUTIONS, LLC	201 N Main St ,Catawba
12866	ADVANCED DIGITAL SYSTEMS, INC.	4601 Creekstone Drive ,Durham
12868	ADVANCED DIRECT INC	C/O Cpi-Qpc, Inc. ,Great Bend
12869	ADVANCED DISCOVERY LLC	13915 N Mopac Expressway ,Austin
12870	ADVANCED DISCOVERY SERVICES	2624 Fayette Drive ,Mountain View
12872	ADVANCED DISTRIBUTION SOLUTIONS, INC.	955 N. Plum Grove Road, Suite E ,Schaumburg
12873	ADVANCED DISTRIBUTION SYSTEMS, INC	105 Stonehurst Court ,Northvale
12874	ADVANCED DME SERVICE, INC.	27349 Jefferson Avenue ,Temecula
12875	ADVANCED DOOR SYSTEMS,INC.	106 Sharon Court ,Pooler
12876	ADVANCED DRAINAGE SYSTEMS, INC.	4640 Trueman Boulevard ,Hilliard
12879	ADVANCED DRIVER TRAINING SERVICES, INC.	36 S Trooper Rd ,Trooper
12880	ADVANCED DRYING SYSTEMS CORP.	4509 N. Nebraska Ave. ,Tampa
12882	ADVANCED EAR NOSE & THROAT ASSC, PC	50 E Dunlap Avenue ,Phoenix
12883	ADVANCED EAR NOSE & THROAT SPECIALISTS, S.C.	1233 North Mayfair Road ,Milwaukee
12884	ADVANCED EAR, NOSE &	960 Johnson Ferry Rd., Suite 200 ,Atlanta
12885	ADVANCED EAR, NOSE AND THROAT	7400 E Crestline Circle #100 ,Greenwood Village
12886	ADVANCED EAR, NOSE, THROAT ASSOCIATES, LLC	1370 13Th Avenue South ,Jacksonville Beach
12887	ADVANCED EARTH SCIENCES, INC.	9307 Research Drive ,Irvine
12888	ADVANCED ECOLOGY LTD.	2557 Hwy 7 East ,Center
12891	ADVANCED EDUCATIONAL PRODUCTS, INC.	2495 Main St. ,Buffalo
12895	ADVANCED ELECTRIC EQUIPMENT SERVICE, INC.	2411 Larson St ,La Crosse
12897	ADVANCED ELECTRIC, INC	422 Gemstone Ct. ,Evans
12898	ADVANCED ELECTRIC, INC.	201 Ditmas Avenue ,Brooklyn
12900	ADVANCED ELECTRICAL SERVICES GROUP, INC.	1612 Wendy Way ,Garnet Valley
12905	ADVANCED ELECTRICAL TECHNOLOGIES, INC.	41350 Larchmont ,Murrieta
12906	ADVANCED ELECTROCIRCUITS CORPORATION	750 Trumbull Drive ,Pittsburgh
12908	ADVANCED ELECTRONIC DESIGN INC	344 John Dietsch Blvd Unit 2 ,North Attleboro
12910	ADVANCED ELECTRONIC SOLUTIONS, INC.	15-03 132nd Street ,College Point
12912	ADVANCED ELECTRONICS ASSEMBLY INC	324 S Franklin Street ,Boyerstown
12913	ADVANCED ELECTRONICS INC	721 Winston Street ,West Chicago
12915	ADVANCED ELEMENTS, INC.	5370 Gateway Plaza Drive ,Benicia
12916	ADVANCED ELEVATOR CO INC	Po Box 423 ,Chillicothe
12917	ADVANCED ELEVATOR TECHNOLOGIES, INC.	407R Mystic Ave ,Medford
12918	ADVANCED EMBROIDERY AND SCREEN PRINTING, INC.	5815 Steeplechase Lane ,Cumming
12919	ADVANCED E-MEDIA INC	6 B Liberty Suite 145 ,Aliso Viejo
12927	ADVANCED ENDODONTIC ASSOCIATES, PA	1398 Highway 35 ,Ocean
12928	ADVANCED ENDODONTIC ASSOCIATES, PC	39 Cross Street ,Peabody
12929	ADVANCED ENDODONTIC CARE, L.L.C.	10505 W. Clearwater, Bldg. A ,Kennewick
12930	ADVANCED ENDODONTIC LLC	100 Northfield Ave ,West Orange
12931	ADVANCED ENDODONTIC SPECIALISTS, LTD.	2 Executive Court, Suite 102 ,South Barrington
12932	ADVANCED ENDODONTIC SPECIALISTS,LLC	3003 S. Florida Ave ,Lakeland
12933	ADVANCED ENDODONTICS & MICROSURGERY OF STAMFORD, P.C.	44 Strawberry Hill Avenue ,Stamford
12934	ADVANCED ENDODONTICS OF BUFFALO	3993 Harlem Road ,Amherst
12935	ADVANCED ENDODONTICS OF CONNECTICUT, PC	546 South Broad St Suite 3B ,Meriden
12937	ADVANCED ENDODONTICS OF HAWAII LLC	1060 Young St Ste 323 ,Honolulu
12938	ADVANCED ENDODONTICS OF HOUSTON, P.A.	7700 San Felipe, Suite 320 ,Houston
12939	ADVANCED ENDODONTICS OF ILLINOIS	6448 College Road ,Lisle
12940	ADVANCED ENDODONTICS OF LONG ISLAND, P.C.	2500 Nesconset Hwy., Bldg. 18 ,Stony Brook
12945	ADVANCED ENDODONTICS, LLC	231 Farmington Avenue ,Farmington
12947	ADVANCED ENDODONTICS, P.C.	103 South Greenleaf, ,Gurnee
12954	ADVANCED ENDOSCOPY CENTER	11525 Olde Cabin Road ,St. Louis
12958	ADVANCED ENERGY INDUSTRIES, INC.	1625 Sharp Point Dr ,Fort Collins
12959	ADVANCED ENERGY SERVICES INC.	5555 Boone Ave N ,New Hope
12960	ADVANCED ENERGY SERVICES, LLC	5876 Puffer Rd Sw ,South Boardman
12961	ADVANCED ENERGY SOLUTIONS	15 Dowlin Forge Road ,Exton
12962	ADVANCED ENERGY SYSTEMS, INC	27 Industrial Blvd. ,Medford
12963	ADVANCED ENERGY SYSTEMS, INC.	474 Brookline Avenue ,Boston
12965	ADVANCED ENGINE TECHNOLOGIES CORP	2235 Polvorosa Ave, Suite 200 ,San Leandro
12967	ADVANCED ENGINEERED SYSTEMS, IN	14328 Commercial Pkwy ,South Beloit
12969	ADVANCED ENGINEERING ASSOCIATES INTERNATIONAL, INC.	185 Alewife Brook Parkway Suite 400 ,Cambridge
12970	ADVANCED ENGINEERING CONCEPTS INC.	1198 Pacific Coast Highway ,Seal Beach
12971	ADVANCED ENGINEERING CONCEPTS, INC.	3364 Harrison Road ,Montgomery
12972	ADVANCED ENGINEERING CONSULTANTS	1310 Dublin Road ,Columbus
12973	ADVANCED ENGINEERING CORP	45 Prince St ,Danvers
12974	ADVANCED ENGINEERING GROUP, P.C.	500 North Broadway ,East Providence
12975	ADVANCED ENGINEERING INC.	5299 N. Mishler Road ,Huntington
12976	ADVANCED ENGINEERING INVESTIGATIONS CORPORATION	8197 West Brandon Drive ,Littleton
12977	ADVANCED ENGINEERING SALES, INC.	4330 Redwood Highway ,San Rafael
12978	ADVANCED ENGINEERING SOLUTIONS, INC.	250 Advanced Dr ,Springboro
12979	ADVANCED ENGINEERING SYSTEMS, INC.	4630 Antelope Creek, Suite 200 ,Lincoln
12980	ADVANCED ENT AND ALLERGY, PLLC	4004 Dupont Circle, Ste 220 ,Louisville
12981	ADVANCED ENT PHYSICIANS & SURGEONS, OF CNY, PC	Physicians Office Building N, 3-S ,Syracuse
12983	ADVANCED ENTERTAINMENT TECHNOLOGIES, INC. D/B/A IMAGE ENGINEERING	3437 S. Hanover Street ,Baltimore
12984	ADVANCED ENTERTAINMENT TECHNOLOGY	735 Los Angeles Avenue ,Monrovia
12985	ADVANCED ENVIRONMENT SOLUTIONS, INC.	8710 Lagrange Street ,Lorton
12987	ADVANCED ENVIRONMENTAL CORP	347 5th Ave Rm 404 ,New York
12988	ADVANCED ENVIRONMENTAL MANAGEMENT GROUP, LLC	44339 Plymouth Oaks Blvd ,Plymouth
12990	ADVANCED ENVIRONMENTAL RECYCLING TECHNOLOGIES INC	914 North Jefferson Street ,Springdale
12992	ADVANCED ENVIRONMENTAL SERVICE	3100 Gravois Ave ,Saint Louis
12997	ADVANCED EQUIPMENT CO., INC.	236 Westhampton Ave. ,Capitol Heights
12998	ADVANCED EQUIPMENT COMPANY	P.O. Box 11382 ,Charlotte
12999	ADVANCED EQUIPMENT CORPORATION	2401 W Commonwealth Ave ,Fullerton
13000	ADVANCED EQUITIES FINANCIAL CORP	311 S Wacker Drive ,Chicago
13001	ADVANCED EQUITIES SERVICES CORP.	40 Wall Street, Suite 1704 ,New York
13003	ADVANCED EXCAVATING	Po Box 190 ,Jamestown
13005	ADVANCED EXCAVATING & PAVING, INC.	Po Box 581 ,Suncook
13006	ADVANCED EXCAVATING SPECIALISTS, LLC	1010 Columbia Blvd. ,Longview
13007	ADVANCED EXPRESS INC	1750 E Holly Ave ,El Segundo
13008	ADVANCED EXPRESS OF VA, INC.	8352 Terminal Rd ,Alexandria
13009	ADVANCED EXTRUDER TECHNOLOGIES, INC.	2281 Devon Avenue ,Elk Grove Village
13010	ADVANCED EXTRUSION SERVICES, INC.	6990 Soquel Avenue ,Santa Cruz
13011	ADVANCED EXTRUSION, INC.	14300 Liberty Lane ,Becker
13012	ADVANCED EYE ASSOCIATES	200 Jose Figueres Ave., Suite 350 ,San Jose
13013	ADVANCED EYE CARE	201 South Clinton St. ,Iowa City
13015	ADVANCED EYE CARE ASSOCIATES, LLC	780 North Main Street ,Providence
13016	ADVANCED EYE CARE CENTER, INC.	1991 Park Avenue West ,Mansfield
13017	ADVANCED EYE CARE CENTER, P.A.	220 Hamburg Turnpike ,Wayne
13018	ADVANCED EYE CARE INC	1250 East 3900 South, Ste 310 ,Salt Lake City
13019	ADVANCED EYE CARE INCORPORATED	8101 Hinson Farm Rd Ste 103 ,Alexandria
13020	ADVANCED EYE CARE OF BAY COUNTY, P.A.	P.O. Box 1493 ,Lynn Haven
13021	ADVANCED EYE CARE OF NEW JERSEY	592 Springfield Ave ,Westfield
13022	ADVANCED EYE CARE OF THE UPSTATE, P.A	10 Enterprise Boulevard ,Greenville
13023	ADVANCED EYE CARE OPTOMETRY	61 Chilpancingo Pkwy ,Pleasant Hill
13024	ADVANCED EYE CARE, INC.	911 North 3rd Avenue ,Chatsworth
13025	ADVANCED EYE CARE, LTD	2640 Golf Road ,Glenview
13027	ADVANCED EYE CARE, P.C.	2498 Lafayette Road ,Ft. Oglethorpe
13029	ADVANCED EYE CENTERS, INC	500 Faunce Corner Rd Bd 100 Ste 110 ,No. Dartmouth
13032	ADVANCED EYECARE	1832 Castleton ,Delaware
13034	ADVANCED EYECARE & VISION THERAPY, INC.	10505 N. 69th Street Suite 1000 ,Scottsdale
13035	ADVANCED EYECARE ASSOCIATES	1028 6th Street ,Los Banos
13036	ADVANCED EYECARE ASSOCIATES, LLC	410 Rt 10 W ,Ledgewood
13037	ADVANCED EYECARE CENTER, LLC	3237 Riverside Drive, Suite A ,Green Bay
13038	ADVANCED EYECARE CENTERS P.C.	1399 S. Havana Street, Ste 101 ,Aurora
13039	ADVANCED EYECARE, P.C.	322 Dewey Street ,Bennington
13042	ADVANCED FABRICATING MACHINERY, INC.	65 Route 125 ,Kingston
13043	ADVANCED FABRICATION INCORPORATED	6304 Seven Seas Ave. ,Bakersfield
13044	ADVANCED FACES	855 Oakley Seaver Dr ,Clermont
13049	ADVANCED FAMILY DENTISTRY	123 Hospital Dr ,Watertown
13052	ADVANCED FAMILY DENTISTRY OF O	6 Davis Road West ,Old Lyme
13053	ADVANCED FAMILY EYE CARE	4320 Suwanee Dam Rd Ste 2100 ,Suwanee
13055	ADVANCED FAMILY EYE, INC.	10557 E Hwy 51 ,Broken Arrow
13057	ADVANCED FAMILY EYECARE OF MADISON, P.C.	223 South Main Street ,Madison
13059	ADVANCED FAMILY MEDICINE	800 North Stone Street ,Deland
13060	ADVANCED FAMILY PRACTICE, PLLC	1315 Mount Dechantal Road ,Wheeling
13061	ADVANCED FAMILY SURGERY CENTER	944 Oak Ridge Turnpike ,Oak Ridge
13062	ADVANCED FAMILY VISION CENTER OPTOMETRY	19530 Van Buren Blvd, #G8 ,Riverside
13065	ADVANCED FASTENER INDUSTRIES INC	130 Main St ,Butler
13069	ADVANCED FEEDSCREWS, INC.	P.O. Box 7856 ,New Castle
13070	ADVANCED FERTILITY & REPRODUCTIVE ENDOCRINOLOGY INSTITUTE LLC	2324 Sunset Blvd. ,W. Columbia
13071	ADVANCED FERTILITY CARE, PLLC	9819 N. 95th Street Suite 105 ,Scottsdale
13072	ADVANCED FERTILITY CENTER OF CHICAGO, S.C.	P.O. Box 1299 ,Park Ridge
13074	ADVANCED FERTILITY SERVICES, PC	1625 3rd Ave ,New York
13075	ADVANCED FIBER TECHNOLOGY INC	100 Crossroads Blvd ,Bucyrus
13076	ADVANCED FIBER WORKS, INC.,	700 Route 46 West Unit 2 ,Clifton
13077	ADVANCED FIBER, INC.	160 East Hamton Rd. ,Binghamton
13078	ADVANCED FILTRATION CONCEPTS, INC.	P.O. Box 80759 ,Rancho Santa Margarita
13079	ADVANCED FILTRATION SYSTEMS INC	3206 Farber Drive ,Champaign
13080	ADVANCED FINANCIAL CONSULTANTS, INC.	12017 Glen Arm Rd. ,Glen Arm
13081	ADVANCED FINANCIAL SERVICES FEDERAL CREDIT UNION	785 Central Avenue ,New Providence
13083	ADVANCED FINANCIAL STRATEGISTS, INC .	1325 Satellite Blvd. Ste 1301 ,Suwanee
13084	ADVANCED FINISHES INC.	8844 B Washington Blvd ,Jessup
13085	ADVANCED FINISHING SYSTEMS, INC.	2304 N Killingsworth St. ,Portland
13086	ADVANCED FINISHING TECHNOLOGIES	835 W. River Center ,Comstock Park
13087	ADVANCED FIRE & SECURITY, INC.	Po Box 668370 ,Pompano Beach
13088	ADVANCED FIRE COMPANY, INC.	210 West Drive ,Greensburg
13089	ADVANCED FIRE PROTECTION SERVICES, INC.	37 Tupelo Avenue Se ,Fort Walton Beach
13090	ADVANCED FIRE PROTECTION SYSTEMS, LLC	508 Mccormick Drive ,Glen Burnie
13091	ADVANCED FIRE PROTECTION, INC.	181-A Greenwood Avenue ,Midland Park
13094	ADVANCED FIRE SYSTEMS DESIGN, INC.	4242 W Topeka Drive ,Glendale
13095	ADVANCED FIRE SYSTEMS, INC.	3518 E. Everett Ave. ,Spokane
13098	ADVANCED FIXTURES, INC.	2655 E. Audie Murphy Pkwy ,Farmersville
13099	ADVANCED FLEXIBLE COMPOSITES, INC.	14 Walter Court ,Lake In The Hills
13100	ADVANCED FLEXIBLE MATERIALS, INC.	755 Baywood Drive, 2nd Floor ,Petaluma
13101	ADVANCED FLEXIBLE MATERIALS, LLC	755 Baywood Drive, 2nd Floor ,Petaluma
13102	ADVANCED FLEXIBLE SYSTEMS, INC.	930 Folly Rd Ste E ,Charleston
13103	ADVANCED FLOOR COATINGS INC	1915 Cider Mill Road ,Salem
13105	ADVANCED FLOW ENGINEERING, INC.	252 Granite Street ,Corona
13107	ADVANCED FLUID SYSTEMS INC	Po Box 360 ,Royersford
13108	ADVANCED FLUID SYSTEMS INC. 15019 N. BRENTWOOD CHANNELVIEW, TX 77530	15019 N. Brentwood ,Channelview
13109	ADVANCED FLUID SYSTEMS, INC.	751 Hurricane Shoals Road ,Lawrenceville
13110	ADVANCED FOAM, INC.	1745 W 134th St ,Gardena
13112	ADVANCED FOOD EQUIPMENT, LLC	12150 Montgomery Road ,Fredericktown
13117	ADVANCED FOOT & ANKLE CARE CENTER, PC	397 Wallace Rd., Suite 411 ,Nashville
13118	ADVANCED FOOT & ANKLE CENTER PC	137 Professional Park Dr. Ste. C ,Mooresville
13120	ADVANCED FOOT & ANKLE SPECIALISTS	61 Summer Street ,Keene
13121	ADVANCED FOOT & ANKLE SPECIALISTS,	340 North Main Street ,Wake Forest
13122	ADVANCED FOOT & ANKLE SPECIALISTS, PC	400 Lacey Road ,Whiting
13123	ADVANCED FOOT & ANKLE SURGEONS	218 Ridgedale Ave. ,Cedar Knolls
13124	ADVANCED FOOT AND ANKLE CARE	579 Bergen Blvd- Suite 1A ,Ridgefield
13127	ADVANCED FOOT AND ANKLE CENTER, PC	25990 Kelly Road, Suite 4 ,Roseville
13128	ADVANCED FOOT AND ANKLE CLINIC	320 W Tenth Avenue Suite 104 ,Kennewick
13129	ADVANCED FOOT AND ANKLE SPECIALISTS	206 Buckingham Place, Ste 101 ,Brandon
13130	ADVANCED FOOT AND ANKLE SURGEONS, INC.	2180 Oakland Drive, Unit A ,Sycamore
13131	ADVANCED FOOTCARE, P.C.	41400 Dequindre Road Suite 100 ,Sterling Heights
13133	ADVANCED FREIGHT LOGISTICS LTD	1245 S Cleveland Massillon Rd ,Copley
13135	ADVANCED FUEL RESEARCH, INC.	87 Church Street ,East Hartford
13137	ADVANCED FUELING SYSTEMS, INC.	9998 Lickinghole Road ,Ashland
13138	ADVANCED FULFILLMENT, INC.	955 Godfrey Ave Sw ,Grand Rapids
13142	ADVANCED FURNITURE OUTFITTERS, INC.	13663 Co. Road A ,Bryan
13144	ADVANCED FUSION TECHNOLOGIES	7011 Hundsford Ln ,Springfield
13145	ADVANCED GAS & WELDING SOLUTIONS, LLC	30400 Lakeland Blvd., Unit 1 ,Wickliffe
13146	ADVANCED GAS ENGINE SOLUTIONS	616-B Beatty Rd ,Monroeville
13150	ADVANCED GASTROENTEROLOGY ASSOC LLC	34041 Us Hwy 19 North, Ste A ,Palm Harbor
13151	ADVANCED GASTROENTEROLOGY ASSOCIATES	4801 N. Butler, Ste. 13102 ,Farmington
13152	ADVANCED GASTROENTEROLOGY ASSOCIATES, LLC	4275 Johns Creek Parkway, Ste A ,Suwanee
13154	ADVANCED GASTROENTEROLOGY INC	555 Marin St Ste 270 ,Thousand Oaks
13155	ADVANCED GASTROENTEROLOGY OF BERGEN COUNTY P.A.	140 Sylvan Ave., Suite 101A ,Englewood Cliffs
13156	ADVANCED GASTROENTEROLOGY, P.A.	741 Northfield Avenue, Suite 204 ,West Orange
13157	ADVANCED GASTROENTEROLOGY, PLLC	2415 NE 134th Street, Suite 205 ,Vancouver
13158	ADVANCED GASTROINTESTINAL SPECIALISTS, P.C.	2301 Evesham Road ,Voorhees
13161	ADVANCED GEOENVIRONMENTAL, INC.	837 Shaw Road ,Stockton
13162	ADVANCED GEOMATICS ENGINEERING, INC.	1910 Mineral Ct ,Bakersfield
13163	ADVANCED GEOSERVICES CORPORATION	1055 Andrew Drive ,West Chester
13164	ADVANCED GEOSOLUTIONS INC	13 Orchard Road Suite 105 ,Lake Forest
13165	ADVANCED GEOTECHNICAL SERVICES	5251 Verdugo Way Ste L ,Camarillo
13166	ADVANCED GLASS INDUSTRIES, INC.	1335 Emerson Street ,Rochester
13169	ADVANCED GLOBAL CONSTRUCTION I	Inc ,Ashburn
13170	ADVANCED GOURMET EQUIPMENT & DESIGN, LLC	Po Box 18542 ,Greensboro
13172	ADVANCED GOVERNMENT SOLUTIONS, INC.	16901 Melford Boulevard, Suite 101 ,Bowie
13173	ADVANCED GRAPHIC IMAGING SOLUT	2082 Gladwick Street ,Rancho Dominguez
13174	ADVANCED GRAPHIC PRODUCTS, INC.	510 Portland Road ,San Antonio
13175	ADVANCED GRAPHICS, INC	470 Washington St. ,Norwood
13177	ADVANCED GREEN INNOVATIONS LLC	7030 W Oakland St # 103 ,Chandler
13178	ADVANCED GREIG LAMINATORS, INC.	801 Burton Blvd ,Deforest
13181	ADVANCED GYNECOLOGY AND	3238 Capital Ave. Sw ,Battle Creek
13182	ADVANCED GYNECOLOGY SPECIALISTS OF AUGUSTA	7013 Evans Town Center Blvd ,Evans
13183	ADVANCED GYNECOLOGY, PROF. L.L.C.	265 South Parkside Dr. Suite 100 ,Colorado Springs
13184	ADVANCED HAND & ORTHOPEDICS	3600 Lake Otis Parkway ,Anchorage
13185	ADVANCED HANDLING SYSTEMS, INC.	4861 Duck Creek Road ,Cincinnati
13186	ADVANCED HEALTH & WELLNESS CENTER OF OHIO, LLC	6900 Granger Road, Suite 203 ,Independence
13188	ADVANCED HEALTH CARE CORPORATION	215 N. Whitley, Ste 1 ,Fruitland
13189	ADVANCED HEALTH CARE, INC.	9116 Gravelly Lake Drive SW, Suite ,Lakewood
13190	ADVANCED HEALTH E-SOLUTIONS	1545 W. Florida Ave ,Hemet
13191	ADVANCED HEALTH MEDIA LLC	420 Mountain Avenue ,New Providence
13192	ADVANCED HEALTH MEDIA, LLC	420 Mountain Avenue ,Murray Hill
13193	ADVANCED HEALTH OF OAKBROOK	17W705 Butterfield Road, Suite E ,Oakbrook Terrace
13194	ADVANCED HEALTH PROFESSIONALS, P.C.	112 Main Street ,Norwalk
13195	ADVANCED HEALTH SERVICES,INC.	10646 West 165th St. ,Orland Park
13197	ADVANCED HEALTH, LTD	2500 W Strub Rd ,Sandusky
13199	ADVANCED HEALTHCARE ASSOCIATES	4400 Bishop Lane Suite 103 ,Louisville
13202	ADVANCED HEALTHCARE MANAGEMENT, INC	800 4th St. S. W. ,Magee
13203	ADVANCED HEALTHCARE SOLUTIONS	4512 Farragut Rd ,Brooklyn
13205	ADVANCED HEARING SOLUTIONS OF WISCONSIN, S.C.	12780 North Ave. Suite B ,Brookfield
13206	ADVANCED HEART & LUNG SURGEONS, INC .	2200 Philadelphia Dr. Ste. 301 ,Dayton
13207	ADVANCED HEART CARE ASSOCIATES	4275 Burnham Ave Ste 220 ,Las Vegas
13209	ADVANCED HEART CARE, P.A.	8150 N. Central Expressway ,Dallas
13213	ADVANCED HEAT PUMP SYSTEMS, INC.	2909 Rocky Top Road ,Johnson City
13214	ADVANCED HEAT TREAT CORP.	2825 Midport Blvd ,Waterloo
13215	ADVANCED HEAT TREATING, INC.	1059 Trout Run Road ,St. Marys
13216	ADVANCED HEATING & AIR CONDITIONING, INC	5825 SE Foster Road ,Portland
13222	ADVANCED HOME CARE, INC.	4001 Piedmont Parkway ,High Point
13227	ADVANCED HOME HEALTH CARE LTD.	5948 North Milwaukee Avenue ,Chicago
13228	ADVANCED HOME HEALTH HOSPICE	4370 Auburn Blvd ,Sacramento
13230	ADVANCED HOME MEDICAL, INC.	43 South Main St ,West Hartford
13231	ADVANCED HOME TECHNOLOGIES, INC.	71 South Main Street ,Clintonville
13232	ADVANCED HOMECARE MANAGEMENT, INC. DBA ENCOMPASS HOME HEALTH	6688 North Central Expressway ,Dallas
13233	ADVANCED HOMECARE SERVICES	1101 Loomis Road ,Weatherford
13234	ADVANCED HOMECARE, INC.	6816 Southpoint Parkway ,Jacksonville
13235	ADVANCED HORIZONS INC.	323 Ferndale ,Elmhurst
13236	ADVANCED HORIZONS, INC.	185 Fairfield Ave Ste 4C ,West Caldwell
13238	ADVANCED HOSPITALIST MEDICAL GROUP INC	25832 Cedar Bluff Terrace 1 ,Laguna Hills
13239	ADVANCED HR MANAGEMENT, LTD.	5353 W Alabama St Ste 420 ,Houston
13240	ADVANCED HR SOLUTIONS, LTD.	5353 W Alabama St Ste 420 ,Houston
13241	ADVANCED HUMAN SERVICES, INC.	112-15 72nd Road ,Forest Hills
13242	ADVANCED HYDRAULIC SUPPLY CO., LLC	4444 NE 148th Avenue ,Portland
13244	ADVANCED HYPERBARIC RECOVERY LLC	900 Larkspur Landing Circle ,Larkspur
13245	ADVANCED ICU CARE	1 Cityplace Drive, Suite 570 ,St. Louis
13246	ADVANCED ILLUMINATION, INC.	440 State Garage Road ,Rochester
13247	ADVANCED IMAGE SYSTEMS, INC.	1041 Lake Vista Road ,Edmond
13249	ADVANCED IMAGING	213 N Front Street ,Mchenry
13250	ADVANCED IMAGING ASSOCIATES, P.S.C.	2487 Ferguson Road ,Lexington
13253	ADVANCED IMAGING CENTER, LLC	7860 Burr Road ,Schererville
13254	ADVANCED IMAGING CENTERS OF LEESBURG, LLC	Po Box 1351 ,Tampa
13256	ADVANCED IMAGING CONSULTANTS	C/O Dr. Larry Reed ,St. Louis
13257	ADVANCED IMAGING CONSULTANTS INC.	1620 Virginia Rd ,San Marino
13258	ADVANCED IMAGING CONSULTANTS, INC.	2224 Mission Road ,Edmond
13261	ADVANCED IMAGING OF GADSDEN, LLC	820 South 4th Street ,Gadsden
13262	ADVANCED IMAGING OF REDDING, INC.	2380 Bechelli Ln ,Redding
13265	ADVANCED IMAGING RESEARCH, INC.	4700 Lakeside Avenue, Suite 400 ,Cleveland
13267	ADVANCED IMAGING SOLUTIONS	150 Business Center Dr ,Birminham
13271	ADVANCED IMPLANT & PERIODONTAL PROFESSIONALS	1011 Medical Plaza Drive, Suite 140 ,The Woodlands
13272	ADVANCED IMPLANT DENTISTRY AND ORAL RESTORATION PLLC	P O Box 543 ,Cedarhurst
13274	ADVANCED INDUSTRIAL AND MARINE SERVICES INC.	1617 Peach Leaf St. ,Houston
13277	ADVANCED INDUSTRIAL DEVICES, INC.	4323 South Elwood ,Tulsa
13278	ADVANCED INDUSTRIAL MANAGEMENT, INC.	998 Nandino Blvd ,Lexington
13280	ADVANCED INDUSTRIAL PRODUCTS	9901 Industrial Parkway Road ,Plain City
13281	ADVANCED INDUSTRIAL PRODUCTS, INC.	2064 Mercer Court ,Lexington
13282	ADVANCED INDUSTRIAL RESOURCES	3407 Novis Pointe NW ,Acworth
13283	ADVANCED INDUSTRIAL SERVICES, INC.	3250 Susquehanna Trail North ,York
13284	ADVANCED INDUSTRIAL SOLUTIONS	13614 N. Old Hwy 169 ,Collinsville
13287	ADVANCED INDUSTRIES, INC	3955 S. Fletcher Rd. ,Chelsea
13288	ADVANCED INDUSTRIES, INC.	5353 Majestic Parkway, E-1 ,Bedford Heights
13289	ADVANCED INDUSTRY SUPPORT INC	7600 Appling Center Dr Ste 104 ,Memphis
13290	ADVANCED INFORMATION SERVICES INC.	115 SW Adams Street ,Peoria
13291	ADVANCED INFORMATION SYSTEM INC.	14029 Welland Terrace ,Gaitheirsburg
13292	ADVANCED INFORMATION SYSTEMS GROUP, INC.	11315 Corporate Boulevard, Ste 210 ,Orlando
13293	ADVANCED INFRASTRUCTURE MGMT.	1815 E Heim Ave Ste 100 ,Orange
13294	ADVANCED INJECTION MOLDING	4504 Macks Drive ,Bossier City
13298	ADVANCED INSPECTION TECHNOLOGIES, LLC	19010 Doerre Road ,Spring
13299	ADVANCED INSTALLATIONS INC	44500 San Luis Rey Ave ,Palm Desert
13300	ADVANCED INSTITUTE FOR PLASTIC SURGERY	41540 Winchester Road, Suite B ,Temecula
13302	ADVANCED INSTRUMENT DEVELOPMENT, INC.	2545 Curtiss Street ,Downers Grove
13303	ADVANCED INSTRUMENT SALES AND SERVICES, INC.	Po Box 706 ,Manati
13304	ADVANCED INSTRUMENTATIONS, INC.	6800 NW 77th Court ,Miami
13305	ADVANCED INSTRUMENTS, INC.	2 Technology Way ,Norwood
13307	ADVANCED INSURANCE SOLUTIONS, INC.	546 West Chocolate Avenue ,Hershey
13309	ADVANCED INSURANCE SYSTEMS, IN	555 Sun Valley Dr Ste P3 ,Roswell
13311	ADVANCED INTEGRATED PEST MANAGEMENT	205 Kenroy Lane ,Roseville
13313	ADVANCED INTEGRATED SOFTWARE TEC	4530 S Woodlawn Ave, Unit 1003 ,Chicago
13314	ADVANCED INTEGRATED SOLUTIONS	1819 W Oriole Way ,Chandler
13315	ADVANCED INTEGRATED SOLUTIONS, INC.	12 Daniel Road East, Suite 304 ,Fairfield
13317	ADVANCED INTEGRATED TECHNOLOGIES	2427 Ingleside Road ,Norfolk
13319	ADVANCED INTEGRATION TECHNOLOGY	2805 E. Plano Parkway ,Plano
13320	ADVANCED INTEGRATION, LLC	4601 Hilton Corporate Drive ,Columbus
13324	ADVANCED INTERCONNECTIONS CORPORATION	5 Energy Way ,West Warwick
13326	ADVANCED INTERIOR ELECTRONICS INC.	2450 W 12Th St Ste 3 ,Tempe
13327	ADVANCED INTERIOR RESTORATION SERVICES	P.O. Box 4371 ,Modesto
13328	ADVANCED INTERIORS	821 East Mulberry ,Fort Collins
13329	ADVANCED INTERNAL MEDICINE	1900 W. Frye Rd. Suite 3 ,Chandler
13332	ADVANCED INTERNAL MEDICINE, INC.	3930 Pender Drive, Suite 230 ,Fairfax
13333	ADVANCED INTERNAL MEDICINE, P.C.	18121 Georgia Avenue ,Olney
13334	ADVANCED INTERNAL MEDICINE, PC	3452 Oak Canyon Drive ,Birmingham
13336	ADVANCED INTERNATIONAL SYSTEMS, INC.	14901 N. Scottsdale Road ,Scottsdale
13339	ADVANCED INTERNET SOLUTIONS INC.	2405 Dorval Rd ,Wilmington
13341	ADVANCED INTERVENTIONAL PAIN & DIAGNOSTICS OF W. ARK., LLC	Po Box 10206 ,Fort Smith
13342	ADVANCED INTERVENTIONAL PAIN CLINIC , LLC	1170 S. Semoran Boulevard ,Orlando
13343	ADVANCED INTERVENTIONAL PAIN MANAGE MANAGEMENT, PA	160 Kimel Forest Park Drive, Suite ,Winston-Salem
13345	ADVANCED INVASIVE PAIN MANAGEMENT OF HOUSTON, P.A.	308 W Parkwood Avenue, Unit 106 ,Friendswood
13348	ADVANCED INVESTMENT MANAGEMENT, INC.	518 North Main Street ,Butler
13349	ADVANCED INVESTMENT PARTNERS, LLC	100 Main Street Suite 301 ,Safety Harbor
13350	ADVANCED ION BEAM TECHNOLOGY, INC.	47370 Fremont Blvd ,Fremont
13351	ADVANCED IRRIGATION SOLTUIONS, LLC	4285 North Broad Street ,Fremont
13352	ADVANCED IT CONCEPTS INC	1351 Sundial Point ,Winter Springs
13354	ADVANCED IT SERVICES LLC	53A East Lee St ,Warrenton
13355	ADVANCED KIDNEY CARE MEDICAL ASSOCIATES, P.C.	4564 Penn Avenue, Suite 1050 ,Pittsburgh
13357	ADVANCED KIDNEY CARE OF NORTH TEXAS	4708 Alliance Blvd #600 ,Plano
13360	ADVANCED KIDNEY SPECIALISTS	170 Murray Guard Drive ,Jackson
13361	ADVANCED KIDS CARE, P.A.	5323 S. Mccoll Road, Suite 102 ,Edinburg
13362	ADVANCED KITCHEN DESIGN, INC.	Po Box 3857 ,Bluffton
13365	ADVANCED LABELWORX, INC.	1006 Larson Drive ,Oak Ridge
13366	ADVANCED LABORATORY SERVICES I	501 Elmwood Ave. ,Sharon Hill
13367	ADVANCED LANGUAGE SYSTEMS INTERNATIONAL INC.	6001 Montrose Road ,Rockville
13369	ADVANCED LAPAROSCOPIC SURGEONS OF MORRIS, LLC	83 Hanover Road ,Florham Park
13371	ADVANCED LAPAROSCOPIC SURGERY ASSOCIATES MEDICAL GROUP, INC.	1180 E. Shaw Avenue, Suite 101 ,Fresno
13372	ADVANCED LAPAROSCOPIC SURGERY INSTITUTE, P.C.	P.O. Box 648 ,Hoboken
13374	ADVANCED LASER & EYE CENTER OF ARIZONA, P.C.	3303 East Baseline Road, Suite 104 ,Gilbert
13375	ADVANCED LASER & SKIN CARE CENTER, MEDICAL GROUP INC.	208 Dorchester Lane ,Alamo
13376	ADVANCED LASER CENTER OF OKLAHOMA	11308 N Pennsylvania ,Oklahoma City
13377	ADVANCED LASER CLINIC OF TACOM	2115 S 56th St Ste 310 ,Tacoma
13378	ADVANCED LASER MACHINING, INC.	600 Cashman Drive ,Chippewa Falls
13379	ADVANCED LASER SYSTEMS TECHNOLOGY, INC	600 Third Avenue ,New York
13381	ADVANCED LEARNING CENTERS, INC.	317 Inverness Way South, Suite 150 ,Englewood
13383	ADVANCED LEARNING PARTNERSHIPS, INC	803 Long Meadows Rd ,Chapel Hill
13384	ADVANCED LEASE SYSTEMS INC	7658 Avianca Drive ,Redding
13385	ADVANCED LEASING	105 W Exchange Street ,Spring Lake
13386	ADVANCED LIFE SCIENCES, LLC	107521 E Laurel Lane ,Scottsdale
13387	ADVANCED LIFE SYSTEMS, INC.	2106 W. Washington Ave. ,Yakima
13388	ADVANCED LIFELINE SERVICES, INC.	9400 Williamsburg Plaza, Suite 200 ,Louisville
13389	ADVANCED LIGHTING & PRODUCTION SERVICES, INC.	65 Teed Drive ,Randolph
13390	ADVANCED LIGHTING & SOUND	1026 Maplelawn Dr. ,Troy
13392	ADVANCED LIGHTING TECHNOLOGIES INC	32000 Aurora Road, Ste A ,Solon
13393	ADVANCED LIGHTING, INC.	3099 South 1030 West ,Salt Lake City
13394	ADVANCED LINING SOLUTIONS, INC.	P. O. Box 20825 ,Phoenix
13395	ADVANCED LIPIDOLOGY	524 Milwaukee Street ,Delafield
13397	ADVANCED LIQUID LOGIC, INC.	615 Davis Dr Ste 800 ,Morrisville
13399	ADVANCED LITHO PRINTING MISSOULA, LLC	1702 Rankin ,Missoula
13402	ADVANCED LOGIC INDUSTRIES, INC.	1750 Kraft Dr Suite 1200 ,Blacksburg
13404	ADVANCED LOGISTICS GROUP, LLC	8051 Bennett Heights ,Batavia
13405	ADVANCED LOGISTICS SUPPORT CORPORATION	225 E. Idaho, Suite 4 ,Las Cruces
13406	ADVANCED LOGISTICS SYSTEMS INC	774 Mullis Street ,Friday Harbor
13407	ADVANCED LOGISTICS, LLC	2014 W. Pinhook Road ,Lafayette
13412	ADVANCED MACHINE DESIGN COMPANY	45 Roberts Ave. ,Buffalo
13414	ADVANCED MACHINE WORKS, INC.	Post Office Box 1020 ,Easley
13415	ADVANCED MACHINERY COMPANIES, INC.	4530 Wadsworth Road ,Dayton
13416	ADVANCED MACHINING & AUTOMATION, INC.	1505 W. Barton Lane ,Mt. Pleasant
13418	ADVANCED MACHINING SOLUTIONS, INC.	3523 Main Street Ste 606 ,Chula Vista
13419	ADVANCED MACHINING TECHNIQUES, INC.	16205 Vineyard Blvd ,Morgan Hill
13423	ADVANCED MANAGEMENT GROUP	4496 South Pecos Rd ,Las Vegas
13424	ADVANCED MANAGEMENT SERVICES, INC.	67 Cherry Street ,Milford
13425	ADVANCED MANAGEMENT SYSTEMS	4415 Sonoma Highway, Suite F ,Santa Rosa
13426	ADVANCED MANAGEMENT SYSTEMS INC	165 Jordan Rd ,East Greenbush
13431	ADVANCED MANUFACTURING TECHNIQUES, INC.	P.O. Box 617 ,Clifton Park
13432	ADVANCED MANUFACTURING TECHNOLOGIES , INC.	1090 Falls Road ,Grafton
13434	ADVANCED MANUFACTURING TECHNOLOGIES, INC.	2 Bixby Road ,Spencer
13437	ADVANCED MANUFACTURING TECHNOLOGY, INC	28 Millrace Drive ,Lynchburg
13438	ADVANCED MARKETING & DISTRIBUTION	16691 Noyes Ave ,Irvine
13440	ADVANCED MARKETING & SALES, INC.	100 N. Fairway Drive, Suite 130 ,Vernon Hills
13443	ADVANCED MARKETING INTL	4129 United Ave ,Mount Dora
13445	ADVANCED MARKETPLACE, INC.	3018 Hwy 301 N Suite 800 ,Tampa
13448	ADVANCED MASONRY, INC.	4520 So. Macarthur ,Oklahoma City
13449	ADVANCED MASSAGE THERAPY CENTERS, INC.	30290 Rancho Viejo Road ,San Juan Capistrano
13450	ADVANCED MASSAGE, LLC	2120 SW 152nd Street ,Burien
13453	ADVANCED MATERIALS GROUP, INC.	1314 W. Mcdermott, Suite 106 ,Allen
13455	ADVANCED MATERIALS PROCESSING	470 Lawndale Drive, Unit C ,Salt Lake City
13456	ADVANCED MD SOFTWARE, INC	10876 South River Front Parkway ,South Jordan
13457	ADVANCED MEASUREMENT TECHNOLOGY, INC.	300 StagS Leap Lane ,Broussard
13459	ADVANCED MECHANICAL INC	1415 Airport Rd ,Bismarck
13460	ADVANCED MECHANICAL SERVICES	2916 Bucklin Hill Road, Suite 484 ,Silverdale
13461	ADVANCED MECHANICAL SERVICES OF CENTRAL FLORIDA, INC	2475 Regent Avenue ,Orlando
13462	ADVANCED MECHANICAL SERVICES, INC.	1523 Summer Street ,Fort Wayne
13464	ADVANCED MECHANICAL SYSTEMS	Po Box 4125 ,Spokane
13465	ADVANCED MECHANICAL SYSTEMS, INC.	103 Crofton Street ,New Haven
13466	ADVANCED MECHANICAL TECHNOLOGY, INC.	176 Waltham Street ,Watertown
13467	ADVANCED MECHANICAL, INC.	P.O. Box 397 ,Brownsville
13469	ADVANCED MEDIA SERVICES, INC.	24 Keewaydin Drive ,Salem
13470	ADVANCED MEDIA, INC.	1440 Bridgegate Dr., Suite 370 ,Diamond Bar
13471	ADVANCED MEDICAL & REHAB., LLC	5977 Stewart Parkway ,Douglasville
13472	ADVANCED MEDICAL & REHABILITATION, INC.	Four Corporate Drive, Suite 385 ,Shelton
13473	ADVANCED MEDICAL AND COSMETIC DERMATOLOGY, INC.	23 Hoyt Street ,Stamford
13475	ADVANCED MEDICAL BILLING INC.	11418 Waples Mill Road ,Oakton
13478	ADVANCED MEDICAL ELECTRONICS CORPORATION	6901 E Fish Lake Road, Suite 190 ,Maple Grove
13479	ADVANCED MEDICAL EQUIEPMENT & SERVICES INC.	Urb. Miraflores Blg. 3-9 Calle 2 ,Bayamon
13480	ADVANCED MEDICAL EQUIPMENT, INC.	2655 South Dixie Drive ,Kettering
13482	ADVANCED MEDICAL GROUP, LLC	450 Old Peachtree Rd # 102 NW ,Suwanee
13483	ADVANCED MEDICAL HOME CARE SUP	1025 Andrew Drive Ste 150 ,West Chester
13490	ADVANCED MEDICAL INSTRUMENTS, INC.	3601 W. Albany ,Broken Arrow
13494	ADVANCED MEDICAL OPTICS, INC.	Corporate Benefits, D-589, Ap51 ,Abbott Park
13495	ADVANCED MEDICAL PERSONNEL SERVICES	5535 S Williamson Blvd, Ste 774 ,Port Orange
13496	ADVANCED MEDICAL PERSONNEL, INC	10 Mountain View Avenue ,Bay Point
13497	ADVANCED MEDICAL PHYSICS, INC.	9597 Jones Rd. #269 ,Houston
13498	ADVANCED MEDICAL PLACEMENT	18401 Burbank Blvd ,Tarzana
13500	ADVANCED MEDICAL RESEARCH FOUNDATION, INC.	1101 Beacon Street/2W ,Brookline
13502	ADVANCED MEDICAL RESOURCES, INC.	5820 High Drive ,Mission Hills
13504	ADVANCED MEDICAL REVIEW, INC	10780 Santa Monica Blvd ,Los Angeles
13505	ADVANCED MEDICAL SALES INC	216 Avenida Fabricante ,San Clemente
13507	ADVANCED MEDICAL SOLUTIONS	4112 West Valley View Drive ,Franklin
13508	ADVANCED MEDICAL SOLUTIONS LLC	21975 West 83rd St ,Lenexa
13509	ADVANCED MEDICAL SOLUTIONS US	170 Pine Street ,Norwell
13510	ADVANCED MEDICAL SOLUTIONS, INC.	106 W Grand River Ave ,Howell
13511	ADVANCED MEDICAL SPECIALTIES, LLC	9350 SW 72nd Street, Suite 200 ,Miami
13516	ADVANCED MEDICAL TECHNOLOGY ASSOCIATION	701 Pennsylvania Avenue, N.W. ,Washington
13518	ADVANCED MEDICAL, INC.	2750 Morris Rd Ste A200 ,Lansdale
13520	ADVANCED MEDTECH, INC.	1845 Hwy. 93 South, Suite 230 ,Kalispell
13521	ADVANCED MERCHANT SOLUTIONS INC.	604 Princeton Circle West ,Fullerton
13524	ADVANCED METAL FABRICATION & MACHINE, INC.	2600 Melville Road ,Prescott
13528	ADVANCED METAL FINISHING, INC.	50 East 1100 North ,North Salt Lake
13533	ADVANCED METALCRAFT INC	9128 Belden Avenue ,Franklin Park
13534	ADVANCED METALS GROUP, LLC	18 Mystic Lane ,Malvern
13537	ADVANCED MICRO COMPUTER SPECIALISTS	1 Ivybrook Blvd Ste 180 ,Ivyland
13539	ADVANCED MICRO DEVICES, INC.	Hr Service Center, Bldg 100 ,Austin
13540	ADVANCED MICRO SOLUTIONS, INC.	1709 S. State St. ,Edmond
13541	ADVANCED MICRO-ELECTRONICS, INC	6001 E Old Highway 50 ,Vincennes
13542	ADVANCED MICROENDODONTICS, PC	440 W. Centre Ave ,Portage
13543	ADVANCED MICRO-IMAGE SYSTEMS HAWAII, INC.	1259 Aala Street, No. 302 ,Honolulu
13549	ADVANCED MISSION GLASS CORPORATION	16396 Merrill Avenue ,Fontana
13550	ADVANCED MISSION SYSTEMS, LLC	3120 Whitehall Park Drive ,Charlotte
13552	ADVANCED MOBILE GROUP, LLC	301 South Main Street ,Doylestown
13553	ADVANCED MOBILITY, INC.	881 Flintridge Ave. ,La Canada
13554	ADVANCED MOLD & TOOLING INC	769 Trabold Rd ,Rochester
13556	ADVANCED MOLDING, INC.	Po Box 6598 ,Douglasville
13558	ADVANCED MONITORS CORPORATION	7098 Miratech Dr Ste 130 ,San Diego
13560	ADVANCED MOTION CONTROL, INC.	4705 S.W. 72 Avenue ,Miami
13561	ADVANCED MP TECHNOLOGY, INC.	1010 Calle Sombra ,San Clemente
13562	ADVANCED MRI CENTER LLC	50 Monument Rd Suite 100 ,Bala Cynwyd
13563	ADVANCED MULCH, INC.	9621 State Road 7 ,Boynton Beach
13565	ADVANCED MUSICAL ELECTRONICS, INC.	8665 Venice Boulevard ,Los Angeles
13566	ADVANCED MUSTANG ENERGY SERVICES	Po Box 77 ,Andrews
13567	ADVANCED NAVIGATION AND POSITIONING CORPORATION	489 N. 8th Street, Suite 203 ,Hood River
13569	ADVANCED NETWORK DESIGN, INC.	P.O. Box 30595 ,Edmond
13571	ADVANCED NETWORK INFORMATION, INC.	530 Lakeside Drive, Suite 200 ,Sunnyvale
13572	ADVANCED NETWORK MANAGEMENT, INC.	4601 Columbine Ave Ne ,Albuquerque
13573	ADVANCED NETWORK PRODUCTS, INC.	33 E. Glenside Avenue ,Glenside
13574	ADVANCED NETWORK SOLUTIONS, LLC	45300 Catalina Court ,Starling
13575	ADVANCED NETWORK SYSTEMS	355 West Rio Road, Suite 201 ,Charlottesville
13576	ADVANCED NETWORK SYSTEMS, INC.	12304 Santa Monica Blvd., Suite 333 ,W. Los Angeles
13577	ADVANCED NETWORK TECHNOLOGIES, INC. D/B/A BLACK BOX NETWORK SERVICES -	7950 Cherry Avenue, Suite 107 ,Fontana
13578	ADVANCED NETWORKING SYSTEMS, INC.	7525 238th Ave Ne ,Redmond
13579	ADVANCED NETWORKING, INC.	1316 Philadelphia Pike ,Wilmington
13581	ADVANCED NEUROLOGIC ASSOCIATES, INC	5433 State Route 113 East ,Bellevue
13582	ADVANCED NEUROLOGICAL EVALUATION & TREATMENT CENTER, P.C.	1721 E 19th Ave, Suite 468 ,Denver
13583	ADVANCED NEUROLOGY ASSOCIATES, INC	82 North Miller Rd ,Akron
13584	ADVANCED NEUROLOGY CENTER, LLC	4904 Timber Ridge Dr ,Douglasville
13586	ADVANCED NEUROLOGY OF THE PALM	3375 Burns Rd Ste 203 ,Palm Beach Gardens
13587	ADVANCED NEUROSCIENCE CLINIC, P.A.	Po Box 4100 ,Midland
13588	ADVANCED NEUROSCIENCES INSTITUTE	101 Forrest Crossing Blvd Suite 103 ,Franklin
13590	ADVANCED NEUROSURGERY, INC.	3533 Southern Blvd., Ste. 3000 ,Kettering
13591	ADVANCED NEUROSURGICAL ASSOCIATES, P.C.	20 Prospect Ave. Suite 905 ,Hackensack
13592	ADVANCED NUMICRO SYSTEM, INC.	1469 Sturgeon Way ,San Jose
13593	ADVANCED O AND P SOLUTIONS LLC	8641 West 95th Street ,Hickory Hills
13594	ADVANCED OB/GYN ASSOCIATES, P.C.	901 East Brady Street ,Butler
13595	ADVANCED OB/GYN CARE OF WARNER ROBBINS, L.L.C.	1570 Watson Boulevard, Suite 110 ,Warner Robins
13597	ADVANCED OBGYN ASSOCIATES	9 Cathyann Court ,Wayne
13598	ADVANCED OB-GYN ASSOCIATES	3201 E President George Bush H ,Richardson
13599	ADVANCED OB-GYN OF MICHIGAN	26680 Rose Hill Dr ,Farmington Hills
13601	ADVANCED OFFICE AUTOMATION, INC.	1065 N 33rd Street ,Lincoln
13602	ADVANCED OFFICE ENVIRONMENTS, INC.	160 Quaker Lane ,Malvern
13603	ADVANCED OFFICE EQUIPMENT, INC.	22821 Silverbrook Center Dr ,Sterling
13605	ADVANCED OFFICE SYSTEMS	129 E. First Ave ,Roselle
13606	ADVANCED OFFICE SYSTEMS INC	4060 Pike Lane ,Concord
13607	ADVANCED OFFICE SYSTEMS, INC	2441 Bedford St ,Johnstown
13608	ADVANCED OFFICE SYSTEMS, INC.	10645 Dutchtown Road ,Knoxville
13611	ADVANCED OFFICE TECHNOLOGY, INC.	10692 Haddington Drive ,Houston
13613	ADVANCED ONCOLOGY HEMATOLOGY ASSOC.	1336 Beechwood Blvd ,Pittsburgh
13615	ADVANCED ONION, INC.	12225 Carola Drive ,Carmel Valley
13616	ADVANCED ONLINE SOLUTIONS, INC.	1418 E. 71st Street, Suite Z ,Tulsa
13617	ADVANCED OPEN IMAGING, LLC	19401 40th Ave. W., Ste. 140 ,Lynnwood
13618	ADVANCED OPERATING SOLUTIONS INC	3951 Van Nord Avenue ,Studio City
13619	ADVANCED OPHTHALMOLOGY ASSOCIATES, PLC	330 East Fourteen Mile Road ,Clawson
13622	ADVANCED OPHTHALMOLOGY, INC.	14904 Jefferson Davis Highway Ste. ,Woodbridge
13623	ADVANCED OPTICAL SYSTEMS, INC.	6767 Old Madison Pike ,Huntsville
13624	ADVANCED OPTISURGICAL INCORPORATED	9 Orchard Road, Suite 111 ,Lake Forest
13626	ADVANCED OPTOMETRIC ASSOCIATES OF LONG ISLAND, P.C.	10 East Merrick Road, Suite 201 ,Valley Stream
13628	ADVANCED OPTOMETRY, P.L.L.C.	120 Paluster Street ,Cadillac
13630	ADVANCED ORAL & MAXILLOFACIAL	533 W North Avenue ,Elmhurst
13631	ADVANCED ORAL & MAXILLOFACIAL SURGERY CENTER	6160 Tutt Blvd., Ste 250 ,Colorado Springs
13632	ADVANCED ORAL AND MAXILLOFACIAL SURGERY	9094 East Mineral Ave, Ste 260 ,Centennial
13633	ADVANCED ORTHODONTIC SPECIALISTS	275 N. York Street, Suite 200 ,Elmhurst
13634	ADVANCED ORTHODONTICS, P. C.	1677 Golden Springs Road ,Anniston
13635	ADVANCED ORTHOPAEDIC & JOINT REPLACEMENT CENTER, PA	4 West Front Street ,Keyport
13636	ADVANCED ORTHOPAEDIC ASSOCIATES	1777 Hamburg Turnpike ,Wayne
13637	ADVANCED ORTHOPAEDIC ASSOCIATES OF PA, PC	479 Thomas Jones Way ,Exton
13640	ADVANCED ORTHOPAEDIC CENTERS, P.C.	7858 Shrader Road ,Richmond
13641	ADVANCED ORTHOPAEDIC PHYSICAL THERAPY	1212 Memorial Drive ,Manitowoc
13643	ADVANCED ORTHOPAEDIC SURGERY	250 3rd Street NW ,Winter Haven
13644	ADVANCED ORTHOPAEDICS	6701 Airport Blvd, Suite B 117 ,Mobile
13645	ADVANCED ORTHOPAEDICS & REHABILITATION, LLC	100 Trich Drive ,Washington
13646	ADVANCED ORTHOPAEDICS & SPORTS	789 Eastern Byp Ste 5 ,Richmond
13647	ADVANCED ORTHOPAEDICS & SPORTS MEDICINE, LLC	100 Brickhill Ave., Suite 303 ,So. Portland
13649	ADVANCED ORTHOPAEDICS, INC.	314 Baston Road ,Martinez
13651	ADVANCED ORTHOPEDIC & SPORTS INJURY CENTER, LTD.	1086 Forest Hill Road ,Lake Forest
13652	ADVANCED ORTHOPEDIC & SPORTS MEDICINE INSTITUTE, LLC	620 NW 11th Street, Suite E-25 ,Hermiston
13653	ADVANCED ORTHOPEDIC & SPORTS MEDICINE SPECIALISTS, P.C.	8101 E. Lowry Blvd. Suite 230 ,Denver
13654	ADVANCED ORTHOPEDIC AND SPINE CARE S.C.	6701 West 95th Street ,Oak Lawn
13655	ADVANCED ORTHOPEDIC ASSOCIATES, PC	2781 Ct Switzer Sr. Drive, Ste. 402 ,Biloxi
13658	ADVANCED ORTHOPEDIC SPECIALIST	2305 Genoa Business Park Dr St ,Brighton
13660	ADVANCED ORTHOPEDICS & SPORTS MEDICINE	8420 W. Warmsprings Road ,Las Vegas
13661	ADVANCED ORTHOPEDICS & SPORTS MEDICINE, PLLC	1720 E Reelfoot Avenue Suite 104 ,Union City
13663	ADVANCED ORTHOPEDICS AND SPORTS MEDICINE	301 Professional View Drive ,Freehold
13666	ADVANCED ORTHOPEDICS OF SOUTH FLORIDA II	7408 Lake Worth Road ,Lake Worth
13668	ADVANCED ORTHOPRO INC	2561 S 975 East ,Zionsville
13669	ADVANCED OTOLARYNGOLOGY P.C.	3 Kettlepond Road ,Jericho
13670	ADVANCED OTOLARYNGOLOGY PC	2001 S.Shields St. ,Fort Collins
13671	ADVANCED OTOLARYNGOLOGY, P.C.	8700 Stony Point Parkway, Suite 110 ,Richmond
13672	ADVANCED PACE FOOT AND ANKLE	2616 Sherwood Hall Ln Ste 401 ,Alexandria
13674	ADVANCED PACKAGING CORPORATION	27 Red Oak Lane ,Kinnelon
13676	ADVANCED PAIN & WELLNESS INSTITUTE	6245 Sheridan Drive ,Williamsville
13677	ADVANCED PAIN ASSOCIATES OF CALIFORNIA	6769 N. Fresno Street ,Fresno
13678	ADVANCED PAIN CARE M.D., S.C.	552 W. Oakdale ,Chicago
13679	ADVANCED PAIN CARE MEDICAL, P.C.	2417 Ocean Avenue ,Brooklyn
13681	ADVANCED PAIN CARE, P.C.	638 North Main Street ,Ashland
13682	ADVANCED PAIN CARE, PA	2000 S Mays Street ,Round Rock
13684	ADVANCED PAIN CLINIC, P.A.	505 W Vine Street, Ste 301 ,Kissimmee
13685	ADVANCED PAIN CONSULTANTS, PA	3948 Browning Place, Suite 109 ,Raleigh
13686	ADVANCED PAIN CONSULTANTS, S.C.	2100 Clearwater Drive Suite 100 ,Oakbrook
13687	ADVANCED PAIN CONSULTANTS,PA	326 North Route 73 ,Voorhees
13688	ADVANCED PAIN CONTROL	Atsb, Box 938 ,Dubuque
13689	ADVANCED PAIN CONTROL LTD	12345 W Bend Dr Ste 302 ,Saint Louis
13690	ADVANCED PAIN INSTITUTE LLC	42131 Veterans Ave Ste 100 ,Hammond
13691	ADVANCED PAIN INTERVENTION, S.C.	534 Roxbury Road ,Rockford
13694	ADVANCED PAIN MANAGEMENT CENTER LLC	598 Office Parkway, Suite A ,Westerville
13695	ADVANCED PAIN MANAGEMENT CENTER, PC	10305 SW Park Way Ste 300 ,Portland
13698	ADVANCED PAIN MANAGEMENT SERVICES	203 Broadway Street ,Frederick
13699	ADVANCED PAIN MANAGEMENT SPECIALISTS, P.A.	8255 College Parkway, Suite 200 ,Fort Myers
13701	ADVANCED PAIN MANAGEMENT SURGERY, INC.	4010 West Goeller Boulevard, ,Columbus
13702	ADVANCED PAIN MANAGEMENT, INC.	3 Woodland Rd Ste 322 ,Stoneham
13703	ADVANCED PAIN MANAGEMENT, LLC	4131 W. Loomis Road, Ste 300 ,Greenfield
13704	ADVANCED PAIN MANAGEMENT, P.C.	404 Town Park Blvd Ste 101 ,Evans
13705	ADVANCED PAIN MANAGEMENT, S.C.	4131 West Loomis Road, Ste 300 ,Greenfield
13708	ADVANCED PAIN MEDICINE	7000 Stonewood Dr. ,Wexford
13710	ADVANCED PAIN MEDICINE ASSOCIATES, LLC	3715 N. Oliver ,Wichita
13711	ADVANCED PAIN MEDICINE INSTITU	5530 Wisconsin Ave, Suite 1550 ,Chevy Chase
13712	ADVANCED PAIN MEDICINE, PSC	P.O. Box 23955 ,Lexington
13714	ADVANCED PAIN RELIEF SPECIALISTS, LTD.	5190 Euclid Avenue ,Palatine
13715	ADVANCED PAIN SOLUTIONS	7614 Rocio Dr ,Laredo
13716	ADVANCED PAIN SPECIALISTS OF TULSA, PLLC	9320 S. Mingo Road ,Tulsa
13718	ADVANCED PAIN TREATMENT CENTER, PLLC	162 Barnwood Drive ,Edgewood
13719	ADVANCED PAINTING & CONTRACTING	10245 East Via Linda, Suite 106 ,Scottsdale
13722	ADVANCED PARTS & SERVICE INC.	5348 East Avenue ,Countryside
13724	ADVANCED PATHOLOGY LABORATORY, LLC	334 West Oakcrest Ave ,Northfield
13725	ADVANCED PATIENT ADVOCACY, LLC	175 Admiral Cochrane Drive, Ste 403 ,Annapolis
13727	ADVANCED PAVING & CONSTRUCTION COMPANY, INC.	P. O. Box 125 ,Eastwood
13728	ADVANCED PAVING AND CONSTRUCTION LLC	P.O. Box 12847 ,Ogden
13729	ADVANCED PAVING COMPANY	2257 Joe Field Road ,Dallas
13731	ADVANCED PAYROLL SOLUTIONS, INC.	15320 Barranca Parkway Ste 100 ,Irvine
13732	ADVANCED PAYROLL SYSTEMS, INC.	13405 Eastpoint Centre, Suite 100 ,Louisville
13733	ADVANCED PEDIATRIC CARDIOLOGY	936 W Chandler Blvd Ste 2 ,Chandler
13734	ADVANCED PEDIATRIC CARE, INC.	3330 Fannin ,Beaumont
13736	ADVANCED PEDIATRICS GASTROENTEROLOGY	22208 N. 36th Street ,Phoenix
13738	ADVANCED PENSION ACTUARIES, INC.	100 North Centre Avenue, Suite 400 ,Rockville Centre
13739	ADVANCED PENSION DESIGNS LLC	4814 Outlook Drive ,Wall Township
13740	ADVANCED PENSION SOLUTIONS, INC.	6830 Commerce Court Drive ,Blacklick
13741	ADVANCED PEO SOLUTIONS, LLC	1933 East Edgewood Drive Suite 102 ,Lakeland
13742	ADVANCED PERFORMANCE AND	532 Old Short Hills Rd ,Short Hills
13743	ADVANCED PERFORMANCE AND REHABILITATION SERVICES, INC.	2245 West Koch Suite L ,Bozeman
13748	ADVANCED PERIODONTAL SERVICES PC	31-65 Emmons Avenue Suite C1 ,Brooklyn
13749	ADVANCED PERIODONTICS AND IMPL	4905 Old Orchard Ctr 501 ,Skokie
13752	ADVANCED PERIODONTICS,P.C.	30 Washington Avenue ,Hamden
13755	ADVANCED PERSONNEL INC DBA SNELLING PERSONNEL SVCS	7742 Office Park Blvd. Suite C-1 ,Baton Rouge
13756	ADVANCED PERSONNEL PROFILES, INC.	680 Azure Hills Drive ,Simi Valley
13757	ADVANCED PERSONNEL SYSTEMS, INC	4167 Avenida De La Plata ,Oceanside
13758	ADVANCED PETCARE OF OAKLAND	6378 Sashabaw Road ,Clarkston
13760	ADVANCED PHARMA, INC	9265 Kirby ,Houston
13761	ADVANCED PHARMACEUTICAL CONSULTANTS, INC.	9999 Northeast 2nd Avenue ,Miami Shores
13762	ADVANCED PHARMACY CONCEPTS, INC.	6899 Post Road ,North Kingstown
13763	ADVANCED PHARMACY SERVICES LLC	510 Arapaho ,Hydro
13764	ADVANCED PHARMACY SOLUTIONS, LLC	480 Airport Industrial Drive ,Southaven
13765	ADVANCED PHOTOGRAPHIC SOLUTIONS, LLC	1525 Hardeman Lane Ne ,Cleveland
13766	ADVANCED PHOTONIX, INC.	2925 Boardwalk ,Ann Arbor
13767	ADVANCED PHYSICAL MEDICINE	1508 Genesee Street ,Utica
13769	ADVANCED PHYSICAL MEDICINE AND REHABILITATION, LLC	1719 Main Street ,Lake Como
13773	ADVANCED PHYSICAL THERAPY & SPINAL CARE, LLC	383 Market Street ,Saddle Brook
13774	ADVANCED PHYSICAL THERAPY & SPORTS	220 NW Rd Mize Road ,Blue Springs
13775	ADVANCED PHYSICAL THERAPY & SPORTS MEDICINE	2105 E Enterprise Ave Ste 113 ,Appleton
13776	ADVANCED PHYSICAL THERAPY AND	101 Hodencamp Road ,Thousand Oaks
13777	ADVANCED PHYSICAL THERAPY ASSOCIATES, PA	210 North Avenue ,Cranford
13778	ADVANCED PHYSICAL THERAPY CENTER OF STAMFORD, LLC	1234 Summer Street ,Stamford
13779	ADVANCED PHYSICAL THERAPY OF FAYETTE, LLC	135 Brandywine Blvd Ste D ,Fayetteville
13781	ADVANCED PHYSICAL THERAPY SERVICES, LTD.	135 N. Williamsburg Dr. ,Bloomington
13782	ADVANCED PHYSICAL THERAPY SOLUTIONS, LLC	501 Executive Place ,Fayetteville
13783	ADVANCED PHYSICAL THERAPY, INC.	1917 Abbott Road, Suite 200 ,Anchorage
13785	ADVANCED PHYSICAL THERAPY, LLC	465 Wolcott Rd ,Wolcott
13787	ADVANCED PHYSICAL THERAPY, MICHAEL BEAUDOIN,	2127 Rhawn St ,Philadelphia
13788	ADVANCED PHYSICAL THERAPY, PLLC	3701 Maccorkle Avenue, Se ,Charleston
13789	ADVANCED PHYSICIANS, S.C.	16101 Weber Road ,Crest Hill
13794	ADVANCED PLAN DESIGNS, LLC	3859 S. Cox ,Springfield
13795	ADVANCED PLANNING, INC.	201 Countryside Ct. ,Southlake
13797	ADVANCED PLASTIC CORPORATION	3725 West Lunt Avenue ,Lincolnwood
13799	ADVANCED PLASTIC SURGERY CENTRE, INC.	6319 Cypresswood Drive ,Spring
13801	ADVANCED PLASTIC SURGERY OF NORTH SHORE, P.C.	444 Lakeville Road ,Lake Success
13803	ADVANCED PLASTICS, INC.	7360 Cockrill Bend Blvd ,Nashville
13804	ADVANCED PLASTIFORM INC	535 Mack Todd Road ,Zebulon
13808	ADVANCED PNEUMATICS CO INC	9708 Ashley Dawn Ct ,Fredericksburg
13809	ADVANCED PODIATRIC SPECIALISTS PC	1389 West Main Street, Suite 222 ,Waterbury
13811	ADVANCED PODIATRY, INC.	502 N 40th Avenue, Ste 1 ,Yakima
13812	ADVANCED PODIATRY, P.C.	12277 North 134th Way ,Scottsdale
13814	ADVANCED POLY PACKAGING, INC.	1331 Emmitt Road ,Akron
13815	ADVANCED POLYMER COATINGS, INC.	951 Jaycox Road ,Avon
13816	ADVANCED POLYMER TECHNOLOGIES	3837 Imperial Way ,Stockton
13817	ADVANCED POLYMER, INC.	400 Paterson Plank Road ,Carlstadt
13818	ADVANCED POLYMERS, INC.	29 Northwestern Dr. ,Salem
13820	ADVANCED POWDER COATING, LLC	12220 Shale Ridge Lane ,Auburn
13821	ADVANCED POWDER SOLUTIONS, INC.	14102 Halprin Creek Drive ,Cypress
13822	ADVANCED POWER & LIGHTING, INC.	708 Blair Mill Road ,Willow Grove
13823	ADVANCED POWER CONTROL, INC.	126 Sandy Drive ,Newark
13824	ADVANCED POWER SERVICES NA INC.	31 Milk St ,Boston
13825	ADVANCED POWER SERVICES, LLC	161 Woodford Avenue ,Plainville
13826	ADVANCED POWER TECHNOLOGIES	433 N 36th Street ,Lafayette
13827	ADVANCED POWER TECHNOLOGIES, LLC	215 State Route 10, Building 2 ,Randolph
13828	ADVANCED PRACTICE STRATEGIES	470 Atlantic Avenue 14 Floor ,Boston
13829	ADVANCED PRECISION ENGINEERING, INC	16 Mitchell Road ,Ipswich
13830	ADVANCED PRECISION MACHINING L	1131 Delaware Ave Ste 3 ,Longmont
13831	ADVANCED PRECISION MANUFACTURING	1844 South 3850 West ,Salt Lake City
13832	ADVANCED PRECISION MANUFACTURING IN C	2301 Estes Ave ,Elk Grove Village
13833	ADVANCED PRECISION SPRING CORP.	1754 Junction Avenue, Unit A ,San Jose
13835	ADVANCED PRESSURE TECHNOLOGY	687 Technology Way ,Napa
13836	ADVANCED PRINTING	1183 Quarry Lane ,Pleasanton
13838	ADVANCED PROBING SYSTEMS, INC	2300 Central Ave Suite F ,Boulder
13839	ADVANCED PROCESS SERVICES INC	2746 South Vail Ave ,Commerce
13840	ADVANCED PROCESS TECHNOLOGIES, INC.	150 Swendra Boulevard ,Cokato
13842	ADVANCED PRODUCTION SYSTEMS, INC	8016 Vinecrest Ave ,Louisville
13843	ADVANCED PRODUCTIVITY SERVICES, INC.	2116 Alaqua Drive ,Longwood
13845	ADVANCED PROFESSIONAL HOME HEALTH CARE, INC.	2075 West Big Beaver Road Suite 400 ,Troy
13847	ADVANCED PROGRAMS, INC.	7125 Riverwood Dr. ,Columbia
13848	ADVANCED PROJECT CONSULTING, LLC	306 N. Davis Dr., Suite B ,Warner Robins
13851	ADVANCED PROJECT SOLUTIONS	4501 Femrite Dr. ,Madison
13853	ADVANCED PROPANE, INC.	7790 B Highway 109 N. ,Lebanon
13856	ADVANCED PROSTHETICS & ORTHOTICS, LLC	2800 Saint Leo St ,Greensboro
13857	ADVANCED PROSTHETICS AND ORTHOTICS SOLUTION, INC.	2281 W. 24th Street ,Yuma
13859	ADVANCED PROTECTION SERVICES, INC.	8211 Sunset Lane ,Pasco
13861	ADVANCED PROTECTION TECHNOLOGIES, INC.	14550 58th St N ,Clearwater
13863	ADVANCED PROTECTIVE TECHNOLOGIES, L	1101 Cumberland Crossing #180 ,Valparaiso
13865	ADVANCED PROTOTYPE TECHNOLOGIES INC	4208 Russell Road Units Klm ,Mukilteo
13872	ADVANCED PUMPING, LLC	P.O. Box 10423 ,Corpus Christi
13873	ADVANCED QUICKPRINTING, INC.	1445 Jefferson Road ,Rochester
13874	ADVANCED RACING SUSPENSIONS, INC	1698 Midwest Blvd ,Indianapolis
13875	ADVANCED RADIATION CORPORATION	2210 Walsh Avenue ,Santa Clara
13876	ADVANCED RADIATION ONCOLOGY	Po Box 20725 ,Lehigh Valley
13880	ADVANCED RADIOLOGIC PHYSICIANS, INC.	3455 Mill Run Drive Suite 450 ,Hilliard
13881	ADVANCED RADIOLOGICAL IMAGING ASSOCIATES, P.C.	29-16 Astoria Blvd. ,Astoria
13882	ADVANCED RADIOLOGY CONSULTANTS, L.L.C	3 Enterprise Dr ,Shelton
13883	ADVANCED RADIOLOGY CONSULTANTS, LLC	56 Quarry Road ,Trumbull
13886	ADVANCED RADIOLOGY OF GRAND ISLAND, P.C.	730 N. Diers Avenue ,Grand Island
13887	ADVANCED RADIOLOGY SERVICES P.C.	3264 North Evergreen Drive Ne ,Grand Rapids
13889	ADVANCED RADIOLOGY, INC.	525 Broad Street Suite 202 ,Cumberland
13891	ADVANCED RADIOLOGY, PC	367 Hospital Drive ,Jackson
13892	ADVANCED RADON MITIGATION INC	180 Londonderry Tpke Ste 1 ,Hooksett
13893	ADVANCED RADON MITIGATION INC.	13910 W Warren Dr ,Lakewood
13897	ADVANCED REASONING INCORPORATED	82 Boston Post Road ,Waterford
13898	ADVANCED RECONNAISSANCE CORP	1401 Route 52 Suite 101 ,Fishkill
13901	ADVANCED RECYCLING SYSTEMS, INC.	4000 Mccartney Road ,Lowelville
13905	ADVANCED REGULATORY COMPLIANCE, INC.	415 N Camden Dr, #223 ,Beverly Hills
13906	ADVANCED REHAB MGT INC	900 West Valley Road Suite 300 ,Wayne
13907	ADVANCED REHAB SOLUTIONS, LLC	609 Morris Avenue ,Springfield
13909	ADVANCED REHABILITATION MEDICAL SERVICES, P.A.	P.O. Box 510816 ,Punta Gorda
13910	ADVANCED REHABILITATION PHYSICAL THERAPY, P.C.	133 East 58th Street ,New York
13911	ADVANCED REHABILITATION TECHNOLOGIES	7950 Dunbrook ,San Diego
13912	ADVANCED REHABILITATION TECHNOLOGY, LTD.	01-116 Cr 17 ,Bryan
13913	ADVANCED REHABILITATION, INC	1020C 11th St ,Tell City
13915	ADVANCED REIMBURSEMENT MANAGEMEN	3200 N Central Avenue ,Phoenix
13916	ADVANCED REIMBURSEMENT MANAGEMENT HOLDINGS, LLC DBA ADREIMA	3200 N. Central Avenue, Suite 1000 ,Phoenix
13918	ADVANCED RELIABILITY TECHNOLOGIES, LLC	1110 Nasa Parkway ,Houston
13919	ADVANCED REMOTE SENSING, INC.	1220 Cerro Gordo Road ,Santa Fe
13920	ADVANCED REPRODUCTIVE CARE, INC.	20665 4th Street, Suite 201 ,Saratoga
13921	ADVANCED REPRODUCTIVE CONCEPTS, PLLC	9800 Kincey Avenue, Suite 160 ,Huntersville
13922	ADVANCED REPRODUCTIVE HEALTH CENTERS, LTD.	5225 Old Orchard Road, Suite 10 ,Skokie
13923	ADVANCED REPRODUCTIVE MEDICINE AND GYNECOLOGY OF HAWAII, INC.	407 Uluniu Street, Suite 312 ,Kailua
13924	ADVANCED REPROGRAPHICS, LLC	50 Corporate Ave ,Plainville
13925	ADVANCED RESEARCH CORPORATION	501 Elmwood Ave ,Sharon Hill
13927	ADVANCED RESEARCH SYSTEMS, INC.	7476 Industrial Park Way ,Macungie
13928	ADVANCED RESERVATIONS SYSTEMS, INC.	3750 Convoy Street ,San Diego
13929	ADVANCED RESIDENTIAL & COMMERCIAL ELECTRONICS	8742 Robbins Rd ,Indianapolis
13930	ADVANCED RESOURCE RECOVERY, LLC	27140 Princeton Ave ,Inkster
13931	ADVANCED RESOURCE SOLUTIONS, INC.	3420 Coach Lane, Suite 13 ,Shingle Springs
13932	ADVANCED RESOURCE TECHNOLOGIES, INC	1555 King Street ,Alexandria
13933	ADVANCED RESOURCES GROUP, INC.	687 Trade Center Blvd Suite 110 ,Chesterfield
13934	ADVANCED RESOURCES INTERNATIONAL, INC.	4501 Fairfax Drive, Suite 910 ,Arlington
13935	ADVANCED RESPIRATORY & SLEEP MEDICINE, PLLC	16507 Northcross Dr Ste F ,Huntersville
13939	ADVANCED RETAIL MERCHANDISING, INC.	2515 Drane Field Road ,Lakeland
13941	ADVANCED RETINA ASSOCIATES MEDICAL GROUP, INC.	17750 Sherman Way, Suite 100 ,Reseda
13942	ADVANCED RETINA CENTER, L.C.	8233 Old Courthouse Road, Suite 300 ,Vienna
13944	ADVANCED RETIREMENT	Advanced Retirement Resources Inc. ,Lino Lakes
13945	ADVANCED RETIREMENT CONSULTANTS, INC.	310 E. 4500 S. ,Salt Lake City
13947	ADVANCED RHEUMATOLOGY, PC	4202 Collins Road, Suite 115 ,Lansing
13948	ADVANCED RISK & BROKERAGE, INC.	235 Portland Rd. ,Gray
13949	ADVANCED RISK MANAGERS, LLC	298 4th Avenue #398 ,San Francisco
13952	ADVANCED ROOFING SYSTEMS INC	7160 Krick Rd Ste B ,Walton Hills
13953	ADVANCED ROOFING TECHNOLOGY IN	1601 West Detroit St ,Broken Arrow
13954	ADVANCED ROOFING, INC.	1055 Manufacturers Drive ,Westland
13956	ADVANCED ROOT CANAL SPECIALISTS OF MASSACHUSETTS, P.C.	154 High Street ,Taunton
13958	ADVANCED RUBBER MOLDING, INC.	1202 East Avenue J ,Grand Prairie
13959	ADVANCED RUPTURE DISK TECH., INC.	P.O. Box 670248 ,Houston
13960	ADVANCED RX MANAGEMENT, INC.	4683 Chabot Drive, Suite 200 ,Pleasanton
13962	ADVANCED SAFETY SYSTEMS, INC.	141 Summit St. ,Peabody
13963	ADVANCED SAWMILL MACHINERY, INC.	481 Machinery Circle ,Holt
13966	ADVANCED SCIENTIFICS, INC.	163 Research Lane ,Millersburg
13968	ADVANCED SEALING & SUPPLY CO.	13452 Alondra Blvd. ,Cerritos
13970	ADVANCED SEARCH GROUP	625 Plainfield Road ,Willowbrook
13973	ADVANCED SECURITY CONTRACTORS, INC.	135 Rio West ,El Paso
13974	ADVANCED SECURITY DESIGNS	31441 Santa Margarita Pkwy ,Rcho Sta Marg
13975	ADVANCED SECURITY ENGINEERING	7060 Koll Center Pkwy Ste 316 ,Pleasanton
13976	ADVANCED SECURITY SYSTEMS INC	11 Chestnut St ,Tenafly
13977	ADVANCED SECURITY SYSTEMS, INC.	1800 Milltown Road ,Wilmington
13978	ADVANCED SEPTIC SOLUTIONS, INC.	7505 320th Street West ,Northfield
13979	ADVANCED SERVICES GROUP, INC.	1020 West Fourteen Mile Road ,Clawson
13980	ADVANCED SERVICES, INC.	6410 Shelby View, Suite 110 ,Memphis
13984	ADVANCED SIGN SOLUTIONS	3218 Sarasota Ave ,Panama City
13985	ADVANCED SIGNING, LLC	4 Industrial Park Road ,Medway
13986	ADVANCED SIMULATION CORPORATION	Po Box 1010 ,Point Roberts
13988	ADVANCED SKIN CARE AND LASER CENTER	3150 N. 12Th Street, 2nd Floor ,Grand Junction
13989	ADVANCED SKIN TREATMENT CENTER ELAINE COOK, MD, PA	2609 Wolflin Village ,Amarillo
13991	ADVANCED SLEEP MEDICINE SERVICES, INC.	11500 W. Olympic Blvd., Suite 4 ,Los Angeles
13992	ADVANCED SLEEP NEURODIAGNOSTIC	24001 Orchard Lake Rd ,Farmington
13993	ADVANCED SLEEP THERAPY, LTD	2035 South Arlington Heights Rd ,Arlington Heights
13994	ADVANCED SMILES DENTAL, P.A.	8701 West Parmer Lane ,Austin
13995	ADVANCED SMILES, LLC	685 Bloomfield Avenue ,Verona
14000	ADVANCED SOFTWARE RESOURCES, INC.	21756 Congress Hall Lane ,Saratoga
14001	ADVANCED SOFTWARE SYSTEMS, INC.	22866 Shaw Road ,Sterling
14005	ADVANCED SOLUTIONS & TECHNOLOGIES INC.	9123 Strada Place #7305 ,Naples
14008	ADVANCED SOLUTIONS INSURANCE, INC.	5680 State Farm Drive, Suite 104 ,Rohnert Park
14009	ADVANCED SOLUTIONS INTERNATIONAL INC.	4030 W Braker Ln Ste 175 ,Austin
14011	ADVANCED SOLUTIONS, INC	1901 Nelson Miller Pkwy ,Louisville
14012	ADVANCED SOLUTIONS, INC.	7815 Shaffer Parkway ,Littleton
14015	ADVANCED SOUTHLAKE ENDODONTICS, PLLC	1100 E Southlake Blvd ,Southlake
14016	ADVANCED SPECIAL TOOLS INC.	320 Clark Road ,Battle Creek
14018	ADVANCED SPECIALTY CARE FOR WOMEN, P.A.	6411 Glen Road ,Woodbury
14021	ADVANCED SPECTRAL TECHNOLOGY INC.	960 Enchanted Way, #104 ,Simi Valley
14022	ADVANCED SPECTRO TECHNOLOGIES	1933 Davis Street, Ste. 207A ,San Leandro
14023	ADVANCED SPINAL REHABILITATION	1585 Butte House Rd. Ste A ,Yuba City
14024	ADVANCED SPINE & ORTHOPAEDIC SPECIA LISTS	10730 Nall Ave., Suite 200 ,Overland Park
14025	ADVANCED SPINE & PAIN MANAGEME	1360 Clifton Ave ,Clifton
14026	ADVANCED SPINE & PAIN MANAGEMENT, INC.	7691 Five Mile Rd Ste 10 ,Cincinnati
14027	ADVANCED SPINE & PAIN, LLC	2 Eighth Street ,Hammonton
14031	ADVANCED SPINE ASSOCIATES, P.A.	8232 Highway 65 ,Spring Lake Park
14032	ADVANCED SPINE CARE & PHYSICAL REHABILITATION, LLC	728 Bennetts Mills Road ,Jackson
14034	ADVANCED SPORTS INTERNATIONAL	10940 Dutton Rd ,Philadelphia
14036	ADVANCED STAINLESS & ALLOYS, INC.	8266 Phlox ,Downey
14042	ADVANCED STRIPING EQUIPMENT	8905 Gurley Rd ,Douglasville
14043	ADVANCED STRUCTURAL TECHNOLOGIES INC	5001 American Blvd West ,Bloomington
14045	ADVANCED SUPPLY CHAIN INTERNATIONAL	3201 C Street Suite 308 ,Anchorage
14046	ADVANCED SUPPLY COMPANY	8901 W. 192nd St., Suite D ,Mokena
14049	ADVANCED SURFACES CORPORATION	3355 Liberty Road ,Villa Rica
14050	ADVANCED SURGEONS, PC	860 Montclair Road ,Birmingham
14051	ADVANCED SURGERY CENTER OF METAIRIE, LLC	720 Veterans Blvd, Suite 100 ,Metairie
14052	ADVANCED SURGERY CENTER, INC.	5771 N. Fresno Street ,Fresno
14053	ADVANCED SURGERY CENTER, LLC	10110 Molecular Dr Suite 100 ,Rockville
14055	ADVANCED SURGERY PC	9707 Medical Center Dr ,Rockville
14057	ADVANCED SURGICAL ARTS CENTER, PC	3913 Lockport Street ,Bismark
14059	ADVANCED SURGICAL ASSOCIATES, A MEDICAL GROUP, INC.	200 Jose Figueres Ave. Suite 225 ,San Jose
14060	ADVANCED SURGICAL ASSOCIATES, LLC	155 Morris Avenue, 2nd Floor ,Springfield
14062	ADVANCED SURGICAL ASSOCIATES, LTD	2945 S Dobson Road ,Mesa
14064	ADVANCED SURGICAL ASSOCIATES, P.C.	1722 Pine Street, Suite 904 ,Montgomery
14066	ADVANCED SURGICAL ASSOICATES O	901 W Main Street ,Freehold
14069	ADVANCED SURGICAL CONCEPTS PLLC	7446 Shallowford Rd, Suite 205 ,Chattanooga
14070	ADVANCED SURGICAL GROUP OF NW GEORGIA, PC	800 Canton Road Ne ,Marietta
14072	ADVANCED SURGICAL SOLUTIONS, LLC	7 Industrial Road ,Pequannock
14076	ADVANCED SYSTEM TECHNOLOGY INC	8229 Boone Blvd Ste 520 ,Vienna
14079	ADVANCED SYSTEMS CONCEPTS, INC.	1180 Headquarters Plaza/West Tower ,Morristown
14080	ADVANCED SYSTEMS CONSULTANTS	4074 E Patterson Rd ,Beavercreek
14082	ADVANCED SYSTEMS DEVELOPMENT, INC.	4401 Ford Ave Suite 500 ,Alexandria
14083	ADVANCED SYSTEMS ENGINEERING CORPORATION	12020 Sunrise Valley Drive Ste 250 ,Reston
14084	ADVANCED SYSTEMS FOR POWER ENGINEERING, INC.	49 N. San Mateo Drive ,San Mateo
14085	ADVANCED SYSTEMS GROUP INC	6660 S Sheridan Rd Ste 160 ,Tulsa
14087	ADVANCED SYSTEMS SOUTHEAST, INC.	15373 Roosevelt Blvd ,Clearwater
14088	ADVANCED SYSTEMS TECHNOLOGY, INCORPORATED	Po Box 2305 ,Lawton
14089	ADVANCED SYSTEMS, INC.	2945 Airport Blvd ,Waterloo
14091	ADVANCED TAX SOLUTIONS CPA PC	1609 Gaylord St ,Denver
14092	ADVANCED TAX STRATEGIES, PC	1750 So Brentwood Blvd Suite 808 ,St. Louis
14093	ADVANCED TECH CONSULTING INC	Consulting Inc ,Gilbert
14094	ADVANCED TECHNICAL CERAMICS COMPANY	511 Manufacturers Rd ,Chattanooga
14096	ADVANCED TECHNICAL CORPORATION	1915 Armacost Avenue ,Los Angeles
14097	ADVANCED TECHNICAL INTELLIGENC	2685 Hibiscus Way Ste 110 ,Beavercreek
14098	ADVANCED TECHNICAL MARKETING, INC.	8581-154th Ave. Ne ,Redmond
14099	ADVANCED TECHNICAL MATERIALS, INC.	49 Rider Avenue ,Patchogue
14100	ADVANCED TECHNICAL SALES	111 W. Spring Valley ,Richardson
14102	ADVANCED TECHNICAL SERVICES, INC.	702 Leclair St ,Cedar Falls
14103	ADVANCED TECHNICAL SOLUTIONS	20 Main Street ,Acton
14104	ADVANCED TECHNICAL SOLUTIONS I	2986 Navajo St ,Yorktown Heights
14105	ADVANCED TECHNICAL SOLUTIONS, LLC	21800 Towncenter Plz Ste 266A-815 ,Sterling
14106	ADVANCED TECHNICAL SUPPORT, INC.	10 Grassmere Ave. ,West Hartford
14109	ADVANCED TECHNOLOGIES GROUP, INC	3489 SE Gran Park Way ,Stuart
14111	ADVANCED TECHNOLOGIES GROUP, INC.	1601 48th Street, Suite 220 ,West Des Moines
14112	ADVANCED TECHNOLOGIES INTEGRATION, INC.	7760 France Ave S ,Minneapolis
14113	ADVANCED TECHNOLOGIES RESEARCH GROUP, INC.	307 Seventh Avenue - Suite 707 ,New York
14114	ADVANCED TECHNOLOGIES SOLUTIONS OF CENTRAL	12740 Gran Bay Pkwy ,Jacksonville
14117	ADVANCED TECHNOLOGY & RESEARCH CORP.	6650 Eli Whitney Drive ,Columbia
14119	ADVANCED TECHNOLOGY CONSTRUCTION	3828 E. Portland Avenue ,Tacoma
14120	ADVANCED TECHNOLOGY CONSULTANT	804 Horan Drive ,Fenton
14121	ADVANCED TECHNOLOGY GROUP	101 Roundhill Dr. ,Rockaway
14122	ADVANCED TECHNOLOGY GROUP, INC	1795 Clarkson Road Ste 301 ,Chesterfield
14123	ADVANCED TECHNOLOGY GROUP, INC.	455 SE 2nd Avenue ,Hillsboro
14127	ADVANCED TECHNOLOGY LOGISTICS, INC.	4046 Highway 154, Suite 102 ,Newnan
14128	ADVANCED TECHNOLOGY MATERIALS, INC.	7 Commerce Drive ,Danbury
14130	ADVANCED TECHNOLOGY SERVICES CORPORATION	1995 Frenchtown Road ,East Greenwich
14131	ADVANCED TECHNOLOGY SERVICES GROUP LLC	1200 Atwater Drive ,Malvern
14132	ADVANCED TECHNOLOGY SERVICES, INC	8201 North University Street ,Peoria
14133	ADVANCED TECHNOLOGY SERVICES, INC.	8201 N. University ,Peoria
14134	ADVANCED TECHNOLOGY SOLUTIONS	10335 Democracy Ln Ste 201 ,Fairfax
14136	ADVANCED TECHNOLOGY SOLUTIONS, INC.	251 Monmouth Road ,Oakhurst
14138	ADVANCED TECHNOLOGY SOLUTIONS, L.L.C.	P.O.Box 830 ,Harvard
14140	ADVANCED TECHNOLOGY SYSTEMS COMPANY	2010 Corporate Ridge Road ,Mclean
14141	ADVANCED TECHNOLOGY SYSTEMS IN	255 Roselawn Ave E Ste 45 ,Maplewood
14142	ADVANCED TECHNOLOGY SYSTEMS, INC.	7925 Jones Branch Drive, 4th Floor ,Mclean
14143	ADVANCED TECHNOLOGY, INC.	6106 W. Market Street ,Greensboro
14144	ADVANCED TELECOM SERVICES INCO	1150 1st Ave Ste 105 ,King Of Prussia
14145	ADVANCED TELECOMMUNICATIONS HOLDINGS, INC	1272 Bond St. ,Naperville
14146	ADVANCED TELECOMMUNICATIONS, INC.	3466 Progress Drive Suite 112 ,Bensalem
14148	ADVANCED TELEPHONE CONCEPTS LLC	158 Industrial Parkway ,Lafayette
14150	ADVANCED TEMPORARIES, INC.	Po Box 8022 ,Tyler
14152	ADVANCED TERMITE AND PEST CONT	1008 Industrial Hwy ,West Berlin
14154	ADVANCED TESTING & ENGINEERING	12255 Delta St ,Taylor
14155	ADVANCED TESTING LABORATORY, INC.	6954 Cornell Road ,Cincinnati
14159	ADVANCED TEXTILE COMPOSITES	700 East Parker Street ,Scranton
14160	ADVANCED THERAPEUTIC CONCEPTS, INC.	501 Chestnut Ridge Road #205 ,Chestnut Ridge
14164	ADVANCED THERAPY SERVICES, LLC	1901 N Westwood Blvd ,Poplar Bluff
14166	ADVANCED THERMAL SOLUTIONS, INC.	89-27 Access Rd ,Norwood
14169	ADVANCED TIME MANAGEMENT	2663 44th St SW Ste 106 ,Wyoming
14171	ADVANCED TOOL INC.	9169 River Road ,Marcy
14172	ADVANCED TOOLING SPECIALISTS, INC	1435 Midway Rd ,Menasha
14174	ADVANCED TOOLING, INC.	Atsb, Po Box 938 ,Dubuque
14175	ADVANCED TORQUE PRODUCTS, LLC	201 Christian Lane, Unit A ,Berlin
14176	ADVANCED TRACKING TECHNOLOGIES, INC	6001 Savoy Drive Suite 600 ,Houston
14177	ADVANCED TRADING COMPANY	Po Box 2482 ,Winchester
14178	ADVANCED TRAFFIC SOLUTIONS, INC.	522 Gillingham Drive ,Sugar Land
14180	ADVANCED TRAINING & LEARNING TECHNOLOGY, LLC	4445 Coporation Lane ,Virginia Beach
14181	ADVANCED TRAINING AND REHAB LL	14450 S Outer 40 ,Chesterfield
14182	ADVANCED TRAINING INSTITUTE	5150 S Decatur Blvd ,Las Vegas
14183	ADVANCED TRAINING SYSTEMS INTERNATIONAL CORP	6355-A S. Sossaman Road ,Mesa
14184	ADVANCED TRAINING SYSTEMS INTERNATIONAL, INC.	6355-A S. Sossaman Road ,Mesa
14185	ADVANCED TRANSCRIPTION, INC.	12042 SE Sunnyside Rd ,Clackamas
14186	ADVANCED TRANSLATIONS TECHNOLOGY	5146 Douglas Fir Road Suite 100 ,Calabasas
14187	ADVANCED TRANSPORTATION SERVICES, INC.	2348 W Whitendale, No. E ,Visalia
14188	ADVANCED TRANSPORTATION SYSTEMS, INC.	Po Box 360 ,Croydon
14189	ADVANCED TRAUMA SOLUTIONS, INC.	11 Melrose Dr. - Suite 200 ,Farmington
14191	ADVANCED TRIMWRIGHT INC	Po Box 278 ,East Taunton
14193	ADVANCED TUBING TECHNOLOGY, INC.	150 Intercraft Dr ,Statesville
14194	ADVANCED TUBULAR TECHNOLOGIES, INC.	2548 Campbellgate Dr ,Waterford
14197	ADVANCED ULTRASOUND ELECTRONICS	9522 East 47th Pl ,Tulsa
14200	ADVANCED URETHANE TECHNOLOGIES	187 Route 36, Suite 101 ,West Long Branch
14202	ADVANCED URGENT CARE	5201 N 19th Avenue ,Phoenix
14203	ADVANCED UROGYNECOLOGY OF MICHIGAN	18100 Oakwood Boulevard, Suite 213 ,Dearborn
14206	ADVANCED UROLOGICAL CARE, P.C.	435 E 63rd St ,Ny
14207	ADVANCED UROLOGY	8540 S. Sepulveda Blvd. #911 ,Westchester
14209	ADVANCED UROLOGY ASSOCIATES, LLC	2355 Dougherty Ferry Road Suite 410 ,St Louis
14211	ADVANCED UROLOGY ASSOCIATES, P.C.	3041 Avenue U ,Brooklyn
14212	ADVANCED UROLOGY ASSOCIATES, S.C.	1541 Riverboat Center Drive ,Joliet
14214	ADVANCED UROLOGY, INC.	82 North Miller Road ,Akron
14215	ADVANCED UROLOGY, LLC	8091 Township Line Road, Suite 109 ,Indianapolis
14217	ADVANCED UROLOGY, P.C.	11960 Lioness Way ,Parker
14220	ADVANCED VACUUM COMPANY, INC.	1215 Business Parkway North ,Westminster
14221	ADVANCED VALLEY EYE ASSOCIATES	2035 Lyndell Terrace, Ste. 100 ,Davis
14222	ADVANCED VALUATION ANALYTICS, LTD.	1901 L Street, N.W. ,Washington
14223	ADVANCED VALVE DESIGN, INC.	480 Mickley Road ,Whitehall
14224	ADVANCED VASCULAR ASSOCIATES, INC	127 N. Broad Street ,Woodbury
14225	ADVANCED VASCULAR ASSOCIATES, P.C.	131 Madison Avenue ,Morristown
14227	ADVANCED VASCULAR SURGERY, LLC	4345 Delco Dell Road ,Kettering
14228	ADVANCED VEIN & LASER CENTRE, LTD.	1800 Hollister Drive ,Libertyville
14229	ADVANCED VEIN & VASCULAR CENTER, INC.	744 West Lancaster Avenue,Suite 225 ,Wayne
14230	ADVANCED VEIN THERAPIES, P.L.L.C. DBA MILLER VEIN	46325 W. Twelve Mile Rd. ,Novi
14233	ADVANCED VETERINARY INTERNAL MEDICINE, INC.	2965 Edinger Avenue ,Tustin
14237	ADVANCED VIRTUAL ENGINE TEST CELL, INC.	4170 Allium Court ,Springfield
14238	ADVANCED VISION & ACHIEVEMENT CENTER	3404 W. Cheryl Drive ,Phoenix
14239	ADVANCED VISION ASSOCIATES, LLC	4405 Bellemeade Ave., Ste. 101 ,Evansville
14240	ADVANCED VISION CARE A CALIFOR	2080 Century Park E Ste 911 ,Los Angeles
14243	ADVANCED VISION CARE, INC.	1005 Bellefontaine Ave, Suite 140 ,Lima
14244	ADVANCED VISION INSTITUTE	5215 Monticello Avenue ,Williamsburg
14245	ADVANCED VISION RESEARCH, INC	660 Main Street ,Woburn
14246	ADVANCED VISION TECHNOLOGY, INC.	900 Circle 75 Parkway, Ste 175 ,Atlanta
14247	ADVANCED VISION, P.C.	2799 Lawrenceville Hwy ,Decatur
14248	ADVANCED VISUAL SYSTEMS INC	300 Fifth Ave 6th Floor ,Watham
14250	ADVANCED WAREHOUSES, INC.	241 Francis Avenue ,Mansfield
14251	ADVANCED WASTE MANAGEMENT SYS, INC.	6430 Hixson Pike ,Hixson
14252	ADVANCED WASTE SERVICES, INC.	1126 S. 70th Street, Suite N408B ,West Allis
14254	ADVANCED WATER PRODUCTS LLC	14500 Commerce Way Suite 108 ,Kerman
14255	ADVANCED WATER SOLUTIONS INC	307 N Olive Street ,Ventura
14256	ADVANCED WEALTH SOLUTIONS, LLC	1921 Whittlesey Road, Suite #300 ,Columbus
14257	ADVANCED WEB OFFSET, INC.	2260 Oak Ridge Way ,Vista
14258	ADVANCED WEB TECHNOLOGIES, LLC	600 Hoover Street Ne ,Minneapolis
14259	ADVANCED WEIGHING SYSTEMS, INC.	2100 Olson Drive, Suite 200 ,Chippewa Falls
14260	ADVANCED WEIGHT LOSS SURGERY	9707 Medical Center Dr Ste 200 ,Rockville
14261	ADVANCED WELDING & MFG, INC.	651 S Kansas Ave ,Springfield
14263	ADVANCED WELDING INC	1333 Woodswether Rd ,Kansas City
14264	ADVANCED WELDING, INC.	1088-A Independence Avenue ,Mountain View
14269	ADVANCED WELLNESS SPORTS & SPINE, PC	Atsb, Po Box 938 ,Dubuque
14270	ADVANCED WHEEL SALES, LLC	1645 Westbelt Drive ,Columbus
14271	ADVANCED WHEELS OF TECHNOLOGY INC.	33 Bradley Park Road ,East Granby
14272	ADVANCED WINDOW SYSTEMS, INC.	7470 Forest Hills Road ,Loves Park
14274	ADVANCED WIRELESS SOLUTIONS, INC.	P.O. Box 8593 ,Gray
14275	ADVANCED WOMENS CARE	901 E. Cheves Street ,Florence
14277	ADVANCED WOMENS CARE OF THE	60 Main St Unit C ,Hilton Head Island
14279	ADVANCED WOMENS HEALTH CARE PLLC	206 Cornelia Street, Suite 202 ,Plattsburgh
14280	ADVANCED WOMENS HEALTH CENTER	221 Mariner Blvd. ,Spring Hill
14282	ADVANCED WOMENS HEALTH OB-GYN SERVICES, PLLC.	133-47 Sanford Ave., ,Flushing
14283	ADVANCED WOMENS HEALTH SPECIALISTS	785 Primera Blvd ,Lake Mary
14285	ADVANCED WOMENS HEALTHCARE,P.A.	7777 Forest Lane ,Dallas
14286	ADVANCED WOOD FLOORS LLC	202 W Nakoma ,San Antonio
14287	ADVANCED WOODWORKING INDUSTRIES, LLC	3601 NE 4th Avenue ,Oakland Park
14288	ADVANCED WORKPLACE STRATEGIES, INC.	17542 E. 17th St, Suite 330 ,Tustin
14290	ADVANCED WORKZONE SERVICES, LLC	Po Box 1569 ,Muskogee
14293	ADVANCED XEROGRAPHICS IMAGING SYSTE	6851 Tpc Drive ,Orlando
14294	ADVANCEDEPM CONSULTING, INC	8803 Brecksville Road ,Brecksville
14296	ADVANCEMENT FOR BEHAVIORAL & EDUCATIONAL DEVELOPMENT & INTERVENTION	2082 Business Center Drive, ,Irvine
14297	ADVANCEMENT GROUP, INC	9175 S. Yale Ave Ste #200 ,Tulsa
14298	ADVANCEMENT PARTNERS, INC.	9004 Tartan Fields Dr ,Dublin
14299	ADVANCEMENT, LLC	32200 Solon Road ,Solon
14300	ADVANCEMENTS IN ALLERGY & ASTHMA CARE, LTD.	12450 Wayzata Boulevard, Suite 215 ,Minnetonka
14302	ADVANCEONLINE SOLUTIONS, INC.	2400 Augusta Drive Ste 465 ,Houston
14303	ADVANCEPIERRE FOODS, INC.	9990 Princeton Road ,Cincinnati
14304	ADVANCES LEARNING CENTER, INC.	51 Water St Ste 200 ,Watertown
14305	ADVANCEV CORPORATION	12140 Woodside Drive ,Saratoga
14308	ADVANCIAL FEDERAL CREDIT UNION	1845 Woodall Rodgers Frwy ,Dallas
14309	ADVANCING DATA RESOURCES, INC.	Post Office Box 293968 ,Phelan
14312	ADVANCING WELLNESS, LLC	1445 Route 130 ,North Brunswick
14313	ADVANCO CORPORATION	4338 Keheley Lake Ct NE Bldg A ,Marietta
14314	ADVANCO FIRE PROTECTION, INC.	615 S. Oaks Avenue ,Ontario
14315	ADVANDX, INC.	400 Trade Center, Suite 6990 ,Woburn
14316	ADVANEX AMERICAS, INC.	5780 Cerritos Ave ,Cypress
14317	ADVANS TECHNOLOGIES INC	65 Boston Post Rd W ,Marlborough
14318	ADVANSOFT INTERNATIONAL, INC.	415 W. Golf Road ,Arlington Heights
14320	ADVANSTAR COMMUNICATIONS INC.	131 West First Street ,Duluth
14322	ADVANT HOME HEALTH SERVICES, INC.	11615 Forest Central Drive ,Dallas
14323	ADVANTA CORP.	196 West Ashland Street ,Doylestown
14324	ADVANTA HEALTHCARE PARTNERS, LLC	2010 Crow Canyon Place, Suite 100 ,San Ramon
14326	ADVANTA IRA ADMINISTRATION, LLC	13191 Starkey Road ,Largo
14327	ADVANTA IRA SERVICES, LLC	13191 Starkey Road ,Largo
14330	ADVANTA U.S., INC.	Po Drawer 2420 ,Hereford
14331	ADVANTACARE HEALTH, INC.	5 Mandeville Court ,Monterey
14333	ADVANTAGE 2000, INC.	1590 29th Ave ,San Francisco
14334	ADVANTAGE ADMINISTRATION INC	401 Congress Avenue ,Austin
14335	ADVANTAGE AGRI-SERVICE, LLC	Po Box 810 ,Onalaska
14337	ADVANTAGE AIR LLC	30 Main St ,Valley Park
14339	ADVANTAGE AMERICA TITLE & CLOSING SVCS INC	300 N. Corporate Drive, Suite 270 ,Brookfield
14342	ADVANTAGE BANK	1475 North Denver Avenue ,Loveland
14345	ADVANTAGE BEHAVIORAL SERVICES	5039 Beckwith Suite 105 ,San Antonio
14347	ADVANTAGE BENEFITS CONSULTANTS, INC	595 Summer Street ,Stamford
14348	ADVANTAGE BENEFITS GROUP	89 Monroe Ctr NW Ste 200 ,Grand Rapids
14350	ADVANTAGE BROADCASTING	207 Bogden Blvd Suite A ,Millville
14351	ADVANTAGE BUILDING & FACILITY SVCS, LLC	901 S. Bolmar Street, Building Iii ,West Chester
14352	ADVANTAGE BUILDING COMPONENTS, LLC	1011 Pittsburgh Road ,Valencia
14353	ADVANTAGE BUILDING MAINTENANCE	1532 Marquette St. Se ,Wyoming
14354	ADVANTAGE BUSINESS	12838A NE Airport Way Bldg 4 ,Portland
14355	ADVANTAGE BUSINESS MEDIA, LLC	100 Enterprise Dr. ,Rockaway
14357	ADVANTAGE CABLE SERVICES, INC	Po Box 1045 ,Arlington
14358	ADVANTAGE CAPITAL MANAGEMENT CORP.	190 Carondelet Plaza, Suite 1500 ,St. Louis
14359	ADVANTAGE CARE REHABILITATION, INC.	5035 Clairton Blvd. ,Pittsburgh
14360	ADVANTAGE CHEVROLET OF BOLINGBROOK	115 W South Frontage Road ,Bolingbrook
14361	ADVANTAGE CHIROPRACTIC CLINIC OF GREEN BAY, S.C.	C/O Retirement Strategies, Llc ,Little Chute
14362	ADVANTAGE CIVIL DESIGN GROUP, LLP	1170 Center Point Drive ,Henderson
14363	ADVANTAGE COACHING & TRAINING	480 E. Roosevelt Rd., Suite 105 ,West Chicago
14365	ADVANTAGE COMMUNICATION INC	515 S Highland Dr ,Hollywood
14368	ADVANTAGE COMMUNITY BANK	101 West Center Avenue ,Dorchester
14370	ADVANTAGE COMP., INC.	112 Woodland Avenue ,Somers Point
14371	ADVANTAGE COMPANIES, LLC	1035 33rd Ave Sw ,Cedar Rapids
14373	ADVANTAGE COMPUTING SYSTEMS, INC.	3850 Ranchero Drive ,Ann Arbor
14377	ADVANTAGE CONSULTING AND ENGIN	1624 Saratoga Ct ,Fort Washington
14378	ADVANTAGE CONSULTING GROUP, INC.	377 Oak Street ,Garden City
14379	ADVANTAGE CONSULTING GROUP, LLC.	7817 Astral Avenue ,Las Vegas
14380	ADVANTAGE CONSULTING MANAGEMENT CORP.	1 Hewitt Square, Suite 156 ,East Northport
14383	ADVANTAGE CONTROLS LLC	4700 Harold Abitz Dr ,Muskogee
14384	ADVANTAGE CONVERTING INC	959 Terminal Way ,San Carlos
14385	ADVANTAGE CORPORATE APARTMENTS, LLC	2377 John Glenn Drive, Suite 101 ,Atlanta
14386	ADVANTAGE COUNSELING SERVICES INC	1299 Battlecreek Road, Suite 230 ,Jonesboro
14387	ADVANTAGE CREDIT COUNSELING SERVICE , INC.	2403 Sidney St Ste 400 ,Pittsburgh
14388	ADVANTAGE CREDIT UNION	121 W 3rd St N ,Newton
14389	ADVANTAGE CREDIT UNION INC.	Po Box 2674 ,Mansfield
14390	ADVANTAGE CREDIT, INC.	32065 Castle Ct. Suite 300 ,Evergreen
14391	ADVANTAGE DATA INC.	One Federal Street ,Boston
14392	ADVANTAGE DATASYSTEMS CORPORATION	8061 Lougheed Highway, Suite 110 ,Burnaby
14393	ADVANTAGE DEALER SERVICES,INC.	5400 Laurel Springs Pkwy ,Suwanee
14394	ADVANTAGE DENTAL GROUP LLC	339 Flanders Road, ,East Lyme
14395	ADVANTAGE DENTAL GROUP, PC	1800 W Fortino Blvd Ste 1 ,Pueblo
14396	ADVANTAGE DENTAL INC	123 Marble Mill Road ,Marietta
14397	ADVANTAGE DENTAL PRODUCTS, INC.	4498 Klais Drive ,Clarkston
14399	ADVANTAGE DENTISTRY PC	2887 Elmwood Avenue ,Kenmore
14402	ADVANTAGE DOCUMENT SOLUTIONS, CORP.	200 6th Street ,Fort Wayne
14404	ADVANTAGE ELECTRIC, INC.	720 W. 20th ,Houston
14406	ADVANTAGE ELECTRONICS, INC.	P.O. Box 407 ,Greenwood
14408	ADVANTAGE ENERGY GROUP, INC.	800 Mcardle Dr., Unit A ,Crystal Lake
14409	ADVANTAGE ENGINEERING & IT SOLUTIONS, INC.	425 Heath Drive ,Eldersburg
14410	ADVANTAGE ENGINEERING ASSOCIATES, PC	101 Interchange Plaza ,Cranbury
14412	ADVANTAGE ENGINEERS, LLC	910 Century Drive ,Mechanicsburg
14414	ADVANTAGE ENTERPRISES, INC.	360 Littlefield Avenue ,South San Francisco
14415	ADVANTAGE ENVIRONMENTAL CONSUL	8610 Baltimore Washington Blvd ,Jessup
14417	ADVANTAGE FAYETTEVILLE LLC	3800 Raeford Rd ,Fayetteville
14418	ADVANTAGE FEDERAL CREDIT UNION	1975 Buffalo Rd ,Rochester
14423	ADVANTAGE FIRE SPRINKLER CO	2300 Alcovy Rd ,Dacula
14425	ADVANTAGE FIXTURES, INC.	P.O. Box 632209 ,Irving
14426	ADVANTAGE FLOORING SERVICE, LTD.	P.O. Box 399 ,Kirkersville
14427	ADVANTAGE FORD INC	1031 North Central Avenue ,Duarte
14428	ADVANTAGE FORD LINCOLN MERCURY	P.O. Box 1433 ,Henderson
14429	ADVANTAGE FORD-LINCOLN, INC.	2350 Park Rd ,Connersville
14430	ADVANTAGE FORD-LINCOLN-MERCURY, INC	P.O. Box 1167 ,Fremont
14432	ADVANTAGE GLASS COMPANY, INC.	1560 Elmwood Avenue ,Cranston
14435	ADVANTAGE HEALTH	21650 Oxnard Street ,Woodland Hills
14438	ADVANTAGE HEALTH CARE HIV & CO	12665 Garden Grove Blvd ,Garden Grove
14440	ADVANTAGE HEALTH PHYSICIANS, P.C.	245 State Street, Se ,Grand Rapids
14441	ADVANTAGE HEALTH PLANS TRUST	13431 N. Broaway Ext. Suite 130 ,Oklahoma City
14442	ADVANTAGE HEALTH SOLUTIONS, INC	9045 River Rd ,Indianapolis
14443	ADVANTAGE HEALTH, INC	2281 W. 24th Street ,Yuma
14444	ADVANTAGE HEALTHCARE INC.	475 Wall Street ,Princeton
14445	ADVANTAGE HEATING & COOLING, INC.	5253-A Challedon Drive ,Virginia Beach
14446	ADVANTAGE HOME	3429 Crenshaw Blvd., ,Los Angeles
14447	ADVANTAGE HOME CARE INC.	4600B Montgomery Blvd NE Ste 202 ,Albuquerque
14448	ADVANTAGE HOME CARE, LLC	550 Forest Ave Ste 206 ,Portland
14449	ADVANTAGE HOME HEALTH CARE, INC.	4008 N. Wheeling Avenue ,Muncie
14452	ADVANTAGE IMAGING LLC	3733 Park East Dr Ste 100 ,Beachwood
14453	ADVANTAGE IMAGING SOLUTIONS	220 Forbes Road ,Braintree
14454	ADVANTAGE INDUSTRIAL AUTOMATION INC	4775 River Green Parkway ,Duluth
14455	ADVANTAGE INDUSTRIAL SYSTEMS, LLC	9320 Corsair Road ,Frankfort
14456	ADVANTAGE INFORMATION SERVICES	516 Garrison Avenue ,Fort Smith
14457	ADVANTAGE INSULATION INC	7843 Canterbury Rd ,Felton
14458	ADVANTAGE INSURANCE BROKER INC.	C/O Rocco Bene Sarago Agy ,Philadelphia
14459	ADVANTAGE INSURANCE MANAGEMENT USA LLC	177 Meeting Street ,Charleston
14461	ADVANTAGE INTEGRATION TECHNOLOGY, I	4617 Parkbreeze Court ,Orlando
14464	ADVANTAGE LAW GROUP, APC	5820 Oberlin Drive, Suite 110 ,San Diego
14465	ADVANTAGE LEASING CORPORATION	13400 Bishops Lane Ste. 280 ,Brookfield
14468	ADVANTAGE MACHINE & TOOL, INC.	2504 Overland Avenue ,Billings
14470	ADVANTAGE MACHINING INC	601 W New York St ,Aurora
14471	ADVANTAGE MANAGEMENT CORPORATION	800 Lone Oak Road ,Eagan
14472	ADVANTAGE MANAGEMENT GROUP	17515 W Nine Mile Road ,Southfield
14473	ADVANTAGE MANAGEMENT INC	1107 W Chapman Ave ,Orange
14474	ADVANTAGE MANAGEMENT, INC.	750 N Orleans St Ste 220 ,Chicago
14475	ADVANTAGE MANAGEMENT, L.C.	P. O. Box 1006 ,Orem
14477	ADVANTAGE MANUFACTURING TECHNOLOGIES, INC	14298 169th Drive Se ,Monroe
14478	ADVANTAGE MARKETING ASSOC., DBA RDA ADVANTAGE	5808 S. Rapp Street, Ste. 220 ,Littleton
14479	ADVANTAGE MARKETING CONSULTANT	597 Oliver Street ,Fayetteville
14481	ADVANTAGE MARKETING, INC.	Po Box 27233 ,Salt Lake City
14486	ADVANTAGE MEDIA MANAGEMENT INC.	P.O. Box 45 ,Captiva
14489	ADVANTAGE MEDICAL ELECTRONICS, INC.	10630 Wiles Road ,Coral Springs
14490	ADVANTAGE MEDICAL GROUP LLP	9900 SW Hall Blvd Ste 200 ,Tigard
14492	ADVANTAGE MEDICAL, INC.	1090 Fifth Street ,Calimesa
14494	ADVANTAGE METAL POWDERS, INC.	44 Spleen Road ,Ridgway
14495	ADVANTAGE METAL PRODUCTS, INC.	7855 Southfront Rd ,Livermore
14497	ADVANTAGE METALWORK & FINISHING LLC	1000 University Avenue Suite 700 ,Rochester
14499	ADVANTAGE MOLD AND DESIGN	10246 Mercer Pike, Po Box 455 ,Meadville
14500	ADVANTAGE MOLD INC	576 Mammoth Rd ,Londonderry
14501	ADVANTAGE MOLD, INC.	525 N. Wheeling Street ,Toledo
14502	ADVANTAGE MOVING & STORAGE	2641 Corporate Parkway ,Algonquin
14504	ADVANTAGE NETWORK INC.	389 Hwy 21 - Suite 401 ,Madisonville
14505	ADVANTAGE OFFICE PRODUCTS INC DBA ADVANTAGE OFFICE SOLUTIONS	65 Leggett Drive ,Villa Rica
14506	ADVANTAGE OFFICE SOLUTIONS	573 Charcot Avenue ,San Jose
14508	ADVANTAGE ONE FEDERAL CREDIT UNION	23670 Telegraph Rd ,Brownstown
14509	ADVANTAGE ORTHOPEDIC & SPORTS MEDICINE CLINIC LLP LLP	24076 SE Stark Ste 110 ,Gresham
14512	ADVANTAGE PARTNERS, INC.	29225 Chagrin Boulevard, Suite 300 ,Pepper Pike
14514	ADVANTAGE PERFORMANCE GROUP	700 Larkspur Landing Circle, ,Larkspur
14515	ADVANTAGE PERSONNEL RESOURCES INC.	4907-B NW 43rd Street ,Gainesville
14516	ADVANTAGE PERSONNEL, INC.	630 N. Cotner Blvd., Suite 100 ,Lincoln
14518	ADVANTAGE PHYSICAL MEDICINE & REHABILITATION, LLC	60 Dunning Rd ,Miidletown
14519	ADVANTAGE PHYSICAL THERAPY	204 S Pine St ,Burlington
14520	ADVANTAGE PHYSICAL THERAPY ASSOCIATES, LLC	2821 East Prospect Road ,York
14521	ADVANTAGE PLASTIC PRODUCTS, INC.	38 Henniker Street ,Concord
14522	ADVANTAGE PLUMBING & HEATING SUPPLY COMPANY	7850 N. Milwaukee ,Niles
14525	ADVANTAGE PLUS HOMECARE, INC.	853 North Zavalla ,Jasper
14526	ADVANTAGE POINT CORPORATION	4044 W Lake Mary Blvd Unit #104-405 ,Lake Mary
14527	ADVANTAGE POINT GROUP, INC.	475 Cleveland Ave N, Suite 103 ,St. Paul
14529	ADVANTAGE PRINTING AND MAILING	1600 North Kraemer Blvd ,Anaheim
14530	ADVANTAGE PRIVATE NURSING SERVICES, INC.	1820 Hilltop Road ,St. Joseph
14532	ADVANTAGE PRODUCT PIPELINE LLC	8509 Sunstate Street ,Tampa
14533	ADVANTAGE PRODUCTS, INC.	3003 Copper Rd. ,Santa Clara
14536	ADVANTAGE PROTOTYPE SYSTEMS CORPORATION	420 Forest Avenue ,Sheboygan Falls
14537	ADVANTAGE PUBLICATIONS GROUP, INC.	8 Bald Eagle Dr. ,Paron
14538	ADVANTAGE REALTY AND MANAGEMENT COMPANY	2120 Crown Centre Dr Ste 400 ,Charlotte
14540	ADVANTAGE REHABILITATION SERVICES, LLC	35 Journal Square ,Jersey City
14541	ADVANTAGE RELIABILITY SERVICES, INC.	1034 Abbie Glenn Lane ,Shreveport
14542	ADVANTAGE REPORTING SERVICES, LLC	1083 Lincoln Avenue ,San Jose
14543	ADVANTAGE REPROGRAPHICS	115 W 45th 2nd Fl ,New York
14544	ADVANTAGE RESEARCH, INC.	213 South Main Street ,Milltown
14548	ADVANTAGE RN, LLC	8892 Beckett Road ,West Chester
14549	ADVANTAGE ROUTE SYSTEMS, INC.	3201 Liberty Square Parkway ,Turlock
14550	ADVANTAGE SALES & MARKETING, LLC	18100 Von Karman Ave ,Irvine
14551	ADVANTAGE SALES & SUPPLY CO., INC.	99 Servidea Drive ,Ridgway
14552	ADVANTAGE SALES, LLC	1400 Douglass Road, Suite 200 ,Anaheim
14553	ADVANTAGE SCAFFOLD & LADDERS, LLC	5261 Ashton Ave Ne ,Fridley
14554	ADVANTAGE SCI, LLC	222 N. Sepulveda Blvd. ,El Segundo
14555	ADVANTAGE SEAL, INC.	694 Veterans Parkway ,Bolingbrook
14556	ADVANTAGE SECURITY, INC.	13693 E Iliff Ave Ste 200 ,Aurora
14557	ADVANTAGE SENTRY AND PROTECTIO	1229 3rd Ave. Ste E ,Chula Vista
14558	ADVANTAGE SERVICE COMPANY	1797 Cypress St ,North Little Rock
14559	ADVANTAGE SHEET METAL	51 Elm Street ,Naugatuck
14560	ADVANTAGE SIGN SUPPLY INC	3939 N Greenbrooke Dr Se ,Grand Rapids
14561	ADVANTAGE SINTERED METALS, INC.	60 Clark Road ,Battle Creek
14562	ADVANTAGE SOFTWARE, INC	119 Backstretch Ln ,Mooresville
14563	ADVANTAGE SOFTWARE, INC.	925 Central Parkway ,Stuart
14564	ADVANTAGE SOLUTIONS, INC.	12210 Taylor Road ,Houston
14565	ADVANTAGE SPEECH THERAPY LLC	8402 Six Forks Road Suite 101 ,Raleigh
14566	ADVANTAGE STORAGE TRAILERS, INC.	931 Metromedia Pl ,Dallas
14567	ADVANTAGE STORAGE, INC.	2600 Eldorado Parkway Suite 110 ,Mckinney
14568	ADVANTAGE SUPPORT, INC.	2887 Elmwood Avenue ,Kenmore
14569	ADVANTAGE SURVEILLANCE, INC.	P.O. Box 788 ,Thomasville
14570	ADVANTAGE SYSTEMS	34 Executive Circle, Suite 100 ,Irvine
14571	ADVANTAGE TAX & BUSINESS SERVICES, INC	2516 Penn Ave ,West Lawn
14573	ADVANTAGE TECHNOLOGIES INC	30 Miller Circle ,Armonk
14574	ADVANTAGE TECHNOLOGY CONSULTING INC.	126 South Lincoln Avenue ,Monterey Park
14575	ADVANTAGE TELECOM, INC.	3337 Consear Road ,Lambertville
14578	ADVANTAGE THERAPY SERVICE	17709 Old Jefferson Hwy Suite A ,Prairieville
14582	ADVANTAGE TITLE SERVICES INC	156 Worcester Providence Turnpike ,Sutton
14586	ADVANTAGE TOYOTA, INC.	1 Superior Way ,Barboursville
14589	ADVANTAGE TRANSPORT	2224 W Northern Avenue ,Phoenix
14590	ADVANTAGE TRANSPORT, LLC	P.O. Box 1878 ,Zillah
14592	ADVANTAGE TRAVEL OF CNY, INC.	313 East Willow Street ,Syracuse
14593	ADVANTAGE TREATMENT CENTER, INC	12220 Highway 61 ,Sterling
14595	ADVANTAGE VACUUM COMPANY	110 South Avenue ,Garwood
14596	ADVANTAGE WAYPOINT, LLC	13521 Prestige Place ,Tampa
14597	ADVANTAGE WORKCOMP SERVICES, INC.	Po Box 2227 ,Sandy
14598	ADVANTAGE WORKERS COMPENSATION INSURANCE COMPANY	Po Box 2227 ,Sandy
14600	ADVANTAGE, INC.	206 12Th Avenue South ,Nashville
14602	ADVANTAGE, L.P.	1055 Washington Boulevard ,Stamford
14603	ADVANTAGECARE PHYSICIANS	440 Ninth Ave ,New York
14604	ADVANTAGEPLUS OF INDIANA FEDERAL CREDIT UNION	1122 N Fruitridge Ave ,Terre Haute
14605	ADVANTAGES PRINTING, INC.	120-34 Queens Blvd. - Suite 310 ,Kew Gardens
14606	ADVANTAGEWARE, INC.	618 Beaver Street Suite 201 ,Sewickley
14607	ADVANTAX GROUP, LLC	200 W. River Drive ,St. Charles
14608	ADVANTCO INTERNATIONAL, LLC	8601 Six Forks Road, Ste. 120 ,Raleigh
14609	ADVANTEC COMPUTER COMPANY, INC	1500 Buckeye Drive ,Milpitas
14610	ADVANTEC COMPUTER SYSTEMS, LLC	50 DAngelo Drive, Bldg 1 ,Marlborough
14612	ADVANTECH CONSULTING, INC.	99 Winding Brook Ln ,Stamford
14613	ADVANTECH CORPORATION	380 Fairview Way ,Milpitas
14615	ADVANTECH GS ENTERPRISES, INC.	11772 Sorrento Valley Road, Ste 234 ,San Diego
14618	ADVANTECH MANUFACTURING, INC.	2450 S Commerce Dr ,New Berlin
14619	ADVANTECH PLASTICS LLC	2500 S. Eastwood Drive ,Woodstock
14620	ADVANTECH SOLUTIONS, INC.	2340 S. Arlington Heights Road ,Arlington Heights
14621	ADVANTECH U.S., INC.	160 Industry Drive ,Pittsburgh
14622	ADVANTECH, INC.	2661 Riva Road ,Annapolis
14624	ADVANT-EDGE DECORATIVE CURBING	9715 W Peoria Ave ,Peoria
14625	ADVANTEDGE HEALTHCARE HOLDINGS, INC.	30 Technology Dr Ste 1N ,Warren
14626	ADVANTEDGE HEALTHCARE SOLUTIONS	30 Technology Drive ,Warren
14628	ADVANTEDGE TECHNOLOGY, INC	271 Market Street ,Port Hueneme
14629	ADVANTEDGE, LLC	44040 Airport View Dr Ste C ,Hollywood
14630	ADVANTEK INTERNATIONAL CORPORATION	3300 South Gessner Road, Suite 257 ,Houston
14631	ADVANTEL, INC	2222 Trade Zone Blvd. ,San Jose
14635	ADVANTEX SOLUTIONS	248-45 Jericho Turnpike ,Bellrose
14637	ADVANTICA ADMINISTRATIVE SERVICES, INC.	12399 Gravois Road ,St. Louis
14639	ADVANTICOM, INC.	1010 Western Avenue, 7th Floor ,Pittsburgh
14640	ADVANTIS CREDIT UNION	Po Box 14220 ,Portland
14642	ADVANTIS MANAGEMENT SOLUTIONS	10685-B Hazelhurst Dr. #14949 ,Houston
14644	ADVANTIV TECHNOLOGIES, INC.	48890 Milmont Drive, Suite 104-D ,Fremont
14645	ADVANTONE FLORIDA INC.	855 SW 78th Avenue, Suite C200 ,Plantation
14646	ADVANTOR SYSTEMS CORPORATION	12612 Challenger Pkwy ,Orlando
14649	ADVANTRIA, LLC	255 N.Sierra Street #1207 ,Reno
14652	ADVANTUS CORPORATION	12276 San Jose Blvd. ,Jacksonville
14653	ADVANTUS STRATEGIES LLC	1011 E. Main Street Suite 400 ,Richmond
14654	ADVANTX HOME CARE, INC.	6190 Lbj Freeway Suite 200 ,Dallas
14657	ADVAXIS INC	305 College Rd E ,Princeton
14659	ADVECT GROUP LLC	97 John Clarke Road ,Middletown
14660	ADVENIR REAL ESTATE MANAGEMENT	17501 Biscayne Blvd Suite 300 ,Aventura
14661	ADVENIRA ENTERPRISES	788 Palomar Avenue ,Sunnyvale
14662	ADVENT	12508 E Briarwood Avenue ,Centennial
14663	ADVENT ADVISORY GROUP LLC	209 Main Street, Rear Entrance ,Northport
14664	ADVENT AIR CONDITIONING, INC.	500 S Kealy St, Suite 107 ,Lewisville
14665	ADVENT AUTOMATION, INC.	7466 New Ridge Rd., Ste. 18 ,Hanover
14666	ADVENT BUSINESS FORMS	400 W Highland Drive ,Seattle
14667	ADVENT CAPITAL MANAGEMENT LLC	1271 Avenue Of The Americas Fl ,New York
14668	ADVENT CHRISTIAN VILLAGE, INC.	10680 Dowling Park Drive ,Live Oak
14670	ADVENT COMMUNICATIONS	250 Meadowlands Blvd ,Washington
14672	ADVENT DENTAL	509 Madison Ave. ,New York
14673	ADVENT DENTAL PC	745 S Main St ,Hinesville
14674	ADVENT DESIGN CORPORATION	Canal Street And Jefferson Avenue ,Bristol
14675	ADVENT ELECTRIC INCORPORATED	5901 Walden Dr ,Knoxville
14676	ADVENT ELECTRIC, INC.	301 East Fourth Street ,Bridgeport
14677	ADVENT ENGINEERING SERVICES, INC.	12647 Alcosta Blvd., Suite 440 ,San Ramon
14679	ADVENT ENVIRONMENTAL INC	498 Wando Park Blvd ,Mt Pleasant
14681	ADVENT GLOBAL SOLUTIONS INC	12777 Jones Road ,Houston
14683	ADVENT HOME HEALTH	700 E Silverado Ranch Blvd ,Las Vegas
14684	ADVENT HOME HEALTH SERVICES, INC.	1S450 Summit Ave. ,Oakbrook Terrace
14685	ADVENT HOUSE MINISTRIES, INC.	743 N. Martin Luther King Blvd. ,Lansing
14686	ADVENT INTERMODAL SOLUTIONS LLC	890 Mountain Avenue ,New Providence
14687	ADVENT INTERNATIONAL CORPORATION	75 State Street ,Boston
14689	ADVENT MEDIA GROUP	205 W. Fourth Street ,Cincinnati
14690	ADVENT MEDICAL	2 Scenic Dr ,Mcveytown
14691	ADVENT NEUROLOGY, SC	169 North Clyde Avenue ,Palatine
14692	ADVENT PROPERTY ADVISORS, INC.	5284 S Commerce Drive ,Murray
14694	ADVENT SECURITY CORPORATION	101 Roesch Avenue ,Oreland
14696	ADVENT SOFTWARE, INC.	600 Townsend Street ,San Francisco
14698	ADVENT SPEECH AND FEEDING THERAPY, LLC	3001 Easton Avenue ,Bethlehem
14699	ADVENT SYSTEMS INC.	521 South Rita Lane ,Chandler
14700	ADVENT SYSTEMS, INC.	435 West Fullerton Avenue ,Elmhurst
14701	ADVENT TOOL & MANUFACTURING, INC.	710 Anita Ave ,Antioch
14702	ADVENT TOOL AND MOLD CO, INC.	999 Ridgeway Avenue ,Rochester
14703	ADVENT, LLC	2316 Cruzen Street ,Nashville
14704	ADVENT, LLP	2425 S. 144th Street, Suite 202 ,Omaha
14705	ADVENTA CORPORATION	107 Placid Drive Unit A ,Harvest
14711	ADVENTIUM ENTERPRISES LLC	111 3rd Avenue South Ste. 100 ,Minneapolis
14712	ADVENTIVE MARKETING, INC.	415 East Golf Road, Ste 111 ,Arlington Heights
14714	ADVENT-MORRO EQUITY PARTNERS, INC.	206 Tetuan Street ,San Juan
14715	ADVENTOS, LLC	5600 S. Quebec St., Ste 310 D ,Greenwood Village
14716	ADVENTURE 16 INC	4620 Alvarado Canyon Rd ,San Diego
14717	ADVENTURE ASSOCIATES, INC.	601 Lexington Avenue ,El Cerrito
14718	ADVENTURE CARAVANS, INC.	125 Promise Lane ,Livingston
14719	ADVENTURE EXPLORATION PARTNERS II LLC	500 West Texas Suite 1000 ,Midland
14724	ADVENTURE HOMES, LLC	1119 Fuller Drive ,Garrett
14725	ADVENTURE HOUSE CORPORATION	230 Seventh Avenue ,New York
14727	ADVENTURE LANDS OF AMERICA, INC.	305 34th Ave NW ,Altoona
14728	ADVENTURE LIGHTING, INC	90 Washington Ave ,Des Moines
14732	ADVENTURE PUBLICATIONS OF CAMBRIDGE, INC.	820 Cleveland Street South ,Cambridge
14734	ADVENTURE SCIENCE CENTER - NASHVILLE	800 Fort Negley Blvd ,Nashville
14735	ADVENTURE SOLUTIONS INC	2450 Atlanta Hwy Ste 1403 ,Cumming
14736	ADVENTURE SUBARU LLC	1991 Mentor Ave ,Painesville
14737	ADVENTURE SUBARU, INC.	2269 N. Henbest Dr. ,Fayetteville
14738	ADVENTURE TIME EXTENDED DAY CARE	P.O. Box 5009 ,Berkley
14739	ADVENTURE TOYS & TEACHERS SUPPLIES	173 Main Street ,Los Altos
14740	ADVENTURE TRAVELS OF POMPANO BEACH, INC.	2451 East Atlantic Blvd. ,Pompano Beach
14741	ADVENTURE UNLIMITED	5201 South Quebec Street ,Greenwood Village
14743	ADVENTURE WV, LLC	Po Box 78 ,Lansing
14744	ADVENTURER LP	3303 West Washington Avenue ,Yakima
14745	ADVENTURES BY THE SEA INC	299 Cannery Row ,Monterey
14747	ADVENTURES IN BRIDGE, INC.	Po Box 14915 ,Tallahassee
14748	ADVENTURES IN HEALTH	507 N. Huntington Street ,Syracuse
14749	ADVENTURES PRESCHOOL CHILDRENS CENTER, INC.	160 B Lexington Street ,Belmont
14750	ADVENTURES WITH 4 KIDS, INC.	2316 Via Cordova Court ,Austin
14754	ADVENTUS TECHNOLOGIES, INC.	6001 Savoy, Suite 511 ,Houston
14757	ADVERTIR, INC.	1296 Adams Road ,Bensalem
14758	ADVERTISE.COM	15303 Ventura Blvd. ,Sherman Oaks
14760	ADVERTISER PRINTERS, INC.	320 Clay Street ,Dayton
14761	ADVERTISERS MAILING SERVICE, INC.	16105 Gundry Ave. ,Paramount
14762	ADVERTISERS PRESS, INC.	2222 Parview Road ,Middleton
14764	ADVERTISING & DESIGN SERVICES, INC.	2405 E. 16th Street, Suite 1A ,Bremerton
14765	ADVERTISING & DESIGN SOLUTIONS,	6538 Reefton Ave ,Cypress
14766	ADVERTISING ANYTHING	1224 N Lewis Ave ,Tulsa
14767	ADVERTISING ART STUDIOS, INC.	4120 North Calhoun Road, Suite 200 ,Brookfield
14768	ADVERTISING ASSOCIATES INTERNATIONAL, LLC	1240 Ala Moana Boulevard, Suite 305 ,Honolulu
14769	ADVERTISING AUDIT INTERNATIONAL, LLC	32663 Red Maple St., Ste. 100 ,Union City
14770	ADVERTISING CLUB OF GREATER BO	22 Batterymarch Street ,Boston
14771	ADVERTISING CLUB OF NEW YORK, INC	989 Avenue Of The Americas ,New York
14772	ADVERTISING CONCEPTS	11799 Wills Creek Rd ,San Diego
14773	ADVERTISING CONCEPTS, INC	520 Nebraska Street ,Sioux City
14774	ADVERTISING CONCEPTS, INC.	110 Abbot Street ,Andover
14775	ADVERTISING CREATIONS, INC.	2618 Industrial Drive ,Madison
14776	ADVERTISING DATABASE, INC.	12 East 32nd Street ,New York
14777	ADVERTISING DESIGN, INC.	105 North Broadway ,Billings
14778	ADVERTISING DIGITAL IDENTIFICATION, LLC	1065 Avenue Of The Americas ,New York
14780	ADVERTISING EDGE, INC.	9840 Prospect Ave ,Santee
14781	ADVERTISING EDUCATIONAL FOUNDATION, INC.	220 East 42nd Street, Suite 3300 ,New York
14782	ADVERTISING FLAG COMPANY, INC.	3801 S. Ashland Avenue ,Chicago
14784	ADVERTISING MANAGEMENT SERVICES, INC	283 South Main Street ,Andover
14786	ADVERTISING NOVELTIES COMPANY	1625 S. Boston Avenue ,Tulsa
14787	ADVERTISING RESEARCH FOUNDATION INC	432 Park Avenue South ,New York
14788	ADVERTISING SPECIALTY INSTITUTE, INC.	4800 Street Road ,Trevose
14789	ADVERTISING VEHICLES, INC.	10810 Kenwood Road ,Cincinnati
14790	ADVERTISING VENTURES, INC.	117 Chapman Street ,Providence
14791	ADVERTISING, BOELTER & LINCOLN - MILWAUKEE	C/O 555 Main Street, Suite 300 ,Racine
14795	ADVEX CORPORATION	121 Floyd Thompson Drive ,Hampton
14797	ADVICE COMPANY	2330 Marinship Way, Ste 120 ,Sausalito
14800	ADVICEAMERICA, INC.	121 Mission Falls Lane ,Fremont
14802	ADVICS NORTH AMERICA, INC.	1650 Kingsview Drive ,Lebanon
14804	AD-VINTAGE MARKETING	4 Mile Road ,Suffern
14805	ADVION BIOSCIENCES, INC	19 Brown Road ,Ithaca
14806	ADVION, INC.	10 Brown Road ,Ithaca
14807	ADVIS, INC.	High Tech Rochester Inc ,West Henrietta
14808	ADVISEN LTD.	1430 Broadway ,New York
14809	ADVISER COMPLIANCE ASSOCIATES, LLC	8403 Colesville Road ,Silver Spring
14810	ADVISER INVESTMENT MANAGEMENT, INC.	85 Wells Ave Ste 109 ,Newton
14811	ADVISICON, INC.	5411 Northeast 107th Avenue ,Vancouver
14812	ADVISOR FINANCIAL SERVICES, LLP	302 Creekstone Ridge ,Woodstock
14813	ADVISOR INSIGHTS INC	1538 Seasons Lane ,Rochester
14814	ADVISOR PERSPECTIVES INC	Po Box 380 ,Lexington
14815	ADVISOR PRODUCTS, INC.	333 Jericho Turnpike ,Jericho
14816	ADVISOR SOFTWARE, INC.	2175 N. California Blvd., Suite 400 ,Walnut Creek
14817	ADVISOR SOLUTIONS GROUP, INC.	1300 Bristol Street North, Ste 100 ,Newport Beach
14819	ADVISORNET PROPERTY & CASUALTY, LLC	529 Ontario Avenue ,Sheboygan
14820	ADVISORS ACADEMY, LLC	1921 Boston Post Road ,Westbrook
14821	ADVISORS ASSET MANAGEMENT, INC.	18925 Base Camp Rd ,Monument
14822	ADVISORS CAPITAL INVESTMENTS, INC.	17 Tripp Road ,Woodstock
14823	ADVISORS CAPITAL MANAGEMENT LLC	777 Terrace Ave. Ste 608 ,Hasbrouck Heights
14824	ADVISORS EXCEL, LLC	2950 SW Mcclure ,Topeka
14827	ADVISORS FINANCIAL, INC.	8391 Old Courthouse Road ,Vienna
14829	ADVISORS LLP	11911 San Vicente Boulevard Ste 265 ,Los Angeles
14830	ADVISORS MANAGEMENT CO., LLC	1479 North Hermitage Road ,Hermitage
14831	ADVISORS MANAGEMENT GROUP, INC.	505 King Street, Suite 208 ,Lacrosse
14833	ADVISORS RESOURCE	7900 Excelsior Blvd ,Hopkins
14834	ADVISORS TRUST PLANNING AND INVESTMENT CO., INC	1185 Immokalee Road, Suite 120 ,Naples
14835	ADVISORSHARES .	2 Bethesda Metro Ctr St 1330 ,Bethesda
14837	ADVISORY FINANCIAL GROUP	401 E. Las Olas Blvd., Suite 1400 ,Fort Lauderdale
14838	ADVISORY MORTGAGE, LLC	210 S. East St. ,Brighton
14839	ADVISORY PLATFORM SOLUTIONS LL	Po Box 224 ,Mendenhall
14840	ADVISORY SERVICES & INVESTMENTS, LLC	15 SW Colorado Ave Ste 280 ,Bend
14841	ADVISORY SERVICES CORP	4600 East Park Drive, Suite 300 ,Palm Beach Gardens
14842	ADVISTOR, INC.	1163 Pittsford-Victor Rd Suite 150 ,Pittsford
14843	ADVIT CONSULTING INC	763 Sigmund Road ,Naperville
14844	ADVIZEX TECHOLOGIES LLC	6480 Rockside Wood Blvd ,Independence
14847	ADVIZOR SOLUTIONS, INC.	1333 Butterfield Road, Suite 280 ,Downers Grove
14849	ADVO COMPANIES, INC.	Po Box 51744 ,Amarillo
14851	ADVOCACY AND PROTECTIVE SERVICES, INC.	4110 N. High Street - 2nd Floor ,Columbus
14852	ADVOCACY ASSOCIATES, INC.	108 S. Monroe Street, Suite 200 ,Tallahassee
14853	ADVOCACY ASSOCIATES, LLC	1030 15th Street, NW, Ste. 750 West ,Washington
14854	ADVOCACY CENTER	8325 Oak Street ,New Orleans
14856	ADVOCACY RESOURCE CENTER OF MARION, INC.	2800 SE Maricamp Rd ,Ocala
14857	ADVOCACY RESOURCE CENTER, INC. - MA CON	4664 Sheraton Dr ,Macon
14858	ADVOCAP, INC.	19 West First Street ,Fond Du Lac
14859	ADVOCARE GROUP, INC.	25001 Emery Road, Suite 300 ,Cleveland
14860	ADVOCARE INTERNATIONAL LP	2801 Summit Ave ,Plano
14861	ADVOCARE, INC.	2525 North State Road 7 Ste 115 ,Hollywood
14862	ADVOCARE, LLC	402-404 Lippincott Drive ,Marlton
14863	ADVOCASE, LLC	2715 State Route 9 Ste 104 ,Ballston Spa
14864	ADVOCATE & LICHTENSTEIN LLP	708 3rd Ave Ste 2110 ,New York
14866	ADVOCATE CARE SERVICES, INC.	520 Oakwood St ,Rose Hill
14867	ADVOCATE CONSULTING GROUP, INC.	12353 Hampton Park Blvd. ,Tampa
14868	ADVOCATE CONSULTING GROUP, LLC	1771 West Diehl Road, Suite 360 ,Naperville
14870	ADVOCATE CONSULTING LEGAL GROUP PLLC	3073 Horseshoe Dr. South Suite 210 ,Naples
14872	ADVOCATE HOME CARE INC	P O Box 2301 ,Mill Valley
14873	ADVOCATE HOME CARE SERVICES, LLC	7866 West Commercial Boulevard ,Lauderhill
14874	ADVOCATE HOME CARE, INC.	27789 Mound Road ,Warren
14875	ADVOCATE HOME SPECIALTY CARE	P.O. Box 63 ,Wamego
14878	ADVOCATE PEDIATRIC HOME CARE LLC	1300 S Frazier ,Conre
14879	ADVOCATE PROGRAM, INC.	1150 NW 72nd Avenue ,Miami
14880	ADVOCATE RADIOLOGY BILLING & REIMBURSEMENT SPECIALISTS, LLC	10567 Sawmill Parkway ,Powell
14882	ADVOCATE SOLUTIONS LLC	762 South Pearl Street ,Columbus
14885	ADVOCATE WEALTH MANAGEMENT, LLC	528 N. 5th Avenue ,Sequim
14888	ADVOCATES FOR BARTOWS CHILDREN INC.	P.O. Box 446 ,Cartersville
14889	ADVOCATES FOR BASIC LEGAL EQUALITY INC	525 Jefferson Avenue, Suite 300 ,Toledo
14890	ADVOCATES FOR CHILDREN & YOUTH, INC	8 Market Place Ste 500 ,Baltimore
14891	ADVOCATES FOR CHILDREN AND FAMILIES INC.	210 Tilley Street ,Port Lavaca
14892	ADVOCATES FOR CHILDREN OF NEW JERSEY, INC.	35 Halsey Street ,Newark
14894	ADVOCATES FOR FAMILY PEACE	1611 NW 4th St ,Grand Rapids
14895	ADVOCATES FOR HIGHWAY & AUTO SAFETY	750 First Street, N.E., Suite 901 ,Washington
14899	ADVOCATES FOR YOUTH	2000 M Street, NW ,Washington
14900	ADVOCATES IN MANPOWER MANAGEME	20423 State Road 7 - Pmb#458 ,Boca Raton
14901	ADVOCATES LAW FIRM, LLC	11 Franklin Square ,New Britain
14902	ADVOCATES PROFESSIONAL SERVICES, INC.	119 N. Park Avenue, Suite 303 ,Rockville Center
14903	ADVOCATES, INC	609 Vine St ,Liverpool
14904	ADVOCATES, INC.	One Clarks Hill ,Framingham
14905	ADVOCATION INC	1415 L Street Suite 1000 ,Sacramento
14906	ADVOCATION STRATEGIES INC	1029 J Street Suite 150 ,Sacramento
14908	ADVOFIT	2208 Wynhaven Dr ,Prattville
14909	ADVOMATIC, LLC	30 Vesey Street ,New York
14910	ADVOSERV	2520 Wrangle Hill Road, Suite 200 ,Bear
14911	ADVOTECH COMPANY INC	632 W 24th Street ,Tempe
14915	ADWAIY TECH LLC	42442 Longacre Dr ,Chantilly
14917	ADWEN P. YAP DDS, INC.	11481 Heacock St., Suite 160 ,Moreno Valley
14918	ADWERKS, INC.	512 N. Main Ave. ,Sioux Falls
14919	ADWEST TECHNOLOGIES, INC.	1175 N. Van Horne Way ,Anaheim
14920	ADWHITE	33300 Egypt Lane, Ste. F300 ,Magnolia
14921	ADWOOD CORPORATION	260 Durand Ave ,High Point
14922	ADWOOD EQUIPMENT LEASING CORPO	Po Box 1195 ,High Point
14923	ADWORKS ADVERTISING AGENCY, INC.	3350 Shelby St. ,Ontario
14924	ADWORKS CORP	Urb. Villa Caparra ,Guaynabo
14925	ADWORKS INC	5335 Wisconsin Ave NW #440 ,Washington
14926	ADWORKZ, INC.	10 N. Post, Suite 400 ,Spokane
14929	ADYNXX, INC	731 Market Street ,San Francisco
14930	ADZIMA FUNERAL HOME, INC.	50 Paradise Green Place ,Stratford
14931	AE & ASSOCIATES LLC	506 Queensland Cirlce ,Corona
14932	AE & LY MEDICAL ASSOCIATES, PLLC	132-52 41st Ave, 1F/L ,Flushing
14933	AE ADVANCED FUELS KEYES, INC.	Po Box 879 ,Keyes
14934	AE BUSINESS SOLUTIONS	2310 Crossroads Drive, Suite 2800 ,Madison
14935	AE DESIGN GROUP	40 North Main St ,Southington
14936	AE DESIGN, INC.	Atsb, Po Box 938 ,Dubuque
14938	AE ENGINEERING INC	1492 Belleshore Cir ,Jacksonville
14939	AE ENTERPRISES, INC.	18001 N Main St ,Smithville
14942	AE GROUP, INC.	Po Box 32188 ,Knoxville
14944	AE PERFORMANCE SOLUTIONS INCORPORATED	Po Box 225 ,Cabin John
14945	AE PETSCHE PROPERTY INC	Po Box 121404 ,Arlington
14946	AE SALES INC	436 Marrett Rd ,Lexington
14948	AE STRATEGIES LLC	1616 Anderson Road Suite 229 ,Mclean
14952	AEA FEDERAL CREDIT UNION	1780 S 1st Ave ,Yuma
14957	AEA, LLC	20214 Veterans Dr #600 ,Omaha
14959	AEB BIOCHEMICAL USA	2031 26th Street, #201 ,San Francisco
14962	AEC CONSULTING AND EXPEDITING, INC	20 Vesey Street ,New York
14963	AEC ENGINEERING INCORPORATED	15 South 5th St, Suite 400 ,Minneapolis
14964	AEC GROUP, INC.	114 E Main St ,Saint Charles
14967	AEC SOFTWARE, INC	22611 Markey Court ,Sterling
14968	AEC, INC.	39085 Pioneer Blvd., Suite 100 ,Sandy
14970	AECG, LLC	12711 Ventura Blvd., Ste. 110 ,Studio City
14971	AECHELON TECHNOLOGY, INC.	600 Townsend Street, #425W ,San Francisco
14973	AECO SALES AND SERVICES, INC.	619 North Broadway ,Tecumseh
14974	AECO SYSTEMS, INC.	3512 Breakwater Court ,Hayward
14976	AECOM TECHNOLOGY CORPORATION	515 South Flower Street ,Los Angeles
14977	AECON BUILDINGS, INC.	19020 33rd Ave. W. ,Lynnwood
14980	AED, INC	624 S. Perry Lane Suite 101 ,Tempe
14981	AED, INC.	6525 Belcrest Rd, Ste. 426 ,Hyattsville
14983	AEDIFOS GROUP LLC	1624 Market St ,Denver
14986	AEE LIQUIDATING TRUST	P.O. Box 1564 ,West Chester
14988	AEEC LC	11710 Plaza America Drive ,Reston
14989	AEES INC.	36555 Corporate Drive, Ste. 300 ,Farmington Hills
14991	AEF SYSTEMS CONSULTING INC.	8502 E. Chapman, Suite 376 ,Orange
14992	AEFFE USA, INC.	30 West 56th St ,New York
14995	AEG POWER SOLUTIONS USA, INC.	800 Klein Rd Ste 400 ,Plano
14998	AEGEAN SOLUTIONS	47007 Bainbridge Place ,Sterling
15000	AEGERION PHARMACEUTICALS, INC.	101 Main Street ,Cambridge
15001	AEGION CORPORATION	17988 Edison Ave ,Chesterfield
15003	AEGIS ADMINISTRATIVE SERVICES, INC.	6970 W. Diversey Ave. ,Chicago
15005	AEGIS ADVANTAGE LLC	980 N. Michigan Ave, Suite 1400 ,Chicago
15007	AEGIS BUSINESS CREDIT, LLC	5510 West Lasalle Street ,Tampa
15008	AEGIS COMPLIANCE & ETHICS CENTER, LLP	4147 No. Ravenswood Ave., Suite 200 ,Chicago
15010	AEGIS CONSTRUCTION, INC.	456 W. 5th St. ,Laplace
15011	AEGIS CORPORATION	18550 W. Capitol Drive ,Brookfield
15012	AEGIS CORPS INC	14163 Robert Paris Court ,Chantilly
15013	AEGIS CREATIVE COMMUNICATIONS	44 Union Blvd Ste 250 ,Lakewood
15014	AEGIS CREDIT UNION	1200 N 2nd St ,Clinton
15015	AEGIS DEFENSE SERVICES, LLC	1655 Fort Myer Drive, Suite 360 ,Arlington
15017	AEGIS ENERGY SERVICES, INC.	55 Jackson Street ,Holyoke
15018	AEGIS ENGINEERING SERVICES, INC.	141 Weymouth Street ,Rockland
15021	AEGIS ENVIRONMENTAL INC	1013 N Bluff Rd ,Greenwood
15022	AEGIS ENVIRONMENTAL MANAGEMENT, INC.	2205 Ridgewood Dr ,Midland
15023	AEGIS ENVIRONMENTAL, INC.	105 Southeast Parkway ,Franklin
15025	AEGIS FILMS INC	3135 Medlock Bridge Rd ,Norcross
15026	AEGIS FIRE PROTECTION SYSTEMS,	156 Industrial Loop South ,Orange Park
15027	AEGIS FIRE SYSTEMS TECHNOLOGY, INC.	500 Boulder Court, Suite A ,Pleasanton
15028	AEGIS FLOW TECHNOLOGIES, LLC	6041 Industrial Drive ,Geismar
15029	AEGIS FOOD TESTING LABORATORIES INC	224 N. Derby Lane ,North Sioux City
15030	AEGIS GLOBAL, INC.	222 West Las Colinas Blvd Suite 200 ,Irving
15032	AEGIS HEALTH GROUP INC.	8 Cadillac Drive Suite 450 ,Brentwood
15033	AEGIS HEALTH PERSPECTIVES	20270 Middlebelt ,Livonia
15037	AEGIS HOME HEALTH, INC.	3200 Broadway Suite 260 ,Garland
15038	AEGIS IDENTITY SOFTWARE, INC.	750 W. Hampden Avenue, Suite 120 ,Englewood
15039	AEGIS INCORPORATED	10290 Old Columbia Road ,Columbia
15040	AEGIS INDUSTRIAL SOFTWARE CORP.	5 Walnut Grove Suite 320 ,Horsham
15041	AEGIS INFORMATION SYSTEMS LLC	53 New Britain Ave ,Rocky Hill
15042	AEGIS INFORMATION SYSTEMS, INC.	4 Summit View ,Goshen
15043	AEGIS INSURANCE SERVICES INC	3000 Wellington Road ,Johns Creek
15044	AEGIS INSURANCE SERVICES, INC.	1 Meadowlands Plaza ,East Rutherford
15045	AEGIS INTERNATIONAL, INC.	43 Elm Street ,Windsor
15046	AEGIS LAW GROUP LLP	801 Pennsylvania Avenue, N.W. ,Washington
15049	AEGIS MANAGEMENT GROUP, INC.	1016 San Vicente Blvd. ,Santa Monica
15050	AEGIS MECHANICAL CORP.	2056 Lord Baltimore Drive ,Baltimore
15051	AEGIS MEDIA AMERICAS, INC.	150 East 42nd Street ,New York
15052	AEGIS MEDICAL SYSTEMS, INC.	7246 Remmet Ave. ,Canoga Park
15053	AEGIS MOBILE, LLC	6518 Meadowridge Road ,Columbia
15055	AEGIS PROPERTY GROUP, LTD.	1600 Market Street ,Philadelphia
15057	AEGIS PUBLICATIONS, LLC	104 Pheasant Run ,Newtown
15059	AEGIS RISK MANAGEMENT INSURANCE SERVICES, INC	3424 W Carson St Ste 300 ,Torrance
15060	AEGIS SCIENCES CORPORATION	515 Great Circle Road ,Nashville
15061	AEGIS SECURITY, INC.	P.O. Box 3153 ,Harrisburg
15062	AEGIS SENIOR COMMUNITIES, LLC	17602 NE Union Hill Rd. ,Redmond
15063	AEGIS STRATEGIES LLC	2211 Timber Valley Drive ,Pacific
15064	AEGIS THERAPEUTICS LLC	11770 Bernardo Plaza Court ,San Diego
15065	AEGIS TOOLS INTERNATIONAL, INC	2881 Commerce Park Drive ,Madison
15066	AEGIS USA, INC.	2049 Century Park East ,Los Angeles
15069	AEGIS.NET, INC.	P.O. Box 3897 ,Merrifield
15070	AEGISOUND, LLC	825 Park Street ,Christianburg
15072	AEGON USA, LLC	4333 Edgewood Road Ne ,Cedar Rapids
15076	AEHI INC.	14586 Central Avenue ,Chino
15078	AEHS, INC.	4402 Center Gate ,San Antonio
15080	AEI CONSULTANTS	2500 Camino Diablo, Suite 200 ,Walnut Creek
15083	AEI SERVICES LLC	1600 Smith Street ,Houston
15084	AEI TECHNOLOGIES INC	201 Hunters Crossing Blvd Ste 10-17 ,Bastrop
15085	AEI, INC.	4675 Weitz Road ,Morris
15088	AEIFS INC.	3699 Wilshire Blvd Suite 510 ,Los Angeles
15091	AEL SERVICES INC	2503 Waldorf Ct NW ,Grand Rapids
15092	AEL, LLC	P.O. Box 189010 ,Utica
15095	AELION ENTERPRISES, INC.	152 NE 167th Street Suite 500 ,North Miami Beach
15096	AELIUS EXPLOITATION TECHNOLOGIES, LLC	6317 Still Spring Place ,Alexandria
15097	AELOTT AIR CONDITIONING	812 W Washington Ave ,Escondido
15099	AEM CONSULTING, INC	15042 Prairie Place ,Broomfield
15104	AEMT INC	1349 South Killian Drive ,Lake Park
15105	AEMTEK, INC.	46309 Warm Spring Blvd ,Fremont
15108	AEOLUS, INC.	751 Taft Street ,Albany
15109	AEON	901 North 3rd Street, Suite 150 ,Minneapolis
15112	AEON LAW	1218 3rd Ave. ,Seattle
15113	AEON LLC	5960 Getwell Road, Ste 212A ,Southaven
15115	AEON PROCESS EQUIPMENT & CONTROL SOLUTIONS, INC.	P. O. Box 7607 ,Shreveport
15117	AEP ENERGY, INC.	363 W. Erie Street, Suite 700 ,Chicago
15120	AEP INDUSTRIES, INC.	95 Chestnut Ridge Rd. ,Montvale
15122	AEPC GROUP, LLC	5000 Executive Parkway, Suite 475 ,San Ramon
15124	AEPS CORPORATION	7700 Chevy Chase Dr. Suite 230 ,Austin
15126	AEQUITAS CAPITAL MANAGEMENT, INC.	5300 Meadows Road ,Lake Oswego
15127	AEQUITAS LAW GROUP, A PROFESSIONAL LAW CORPORATION	500 South Grand Avenue ,Los Angeles
15128	AEQUOR CPLC	377 Hoes Ln ,Piscataway
15129	AEQUUS STRATEGY GROUP, INC.	774A Walker Road ,Great Falls
15132	AER LINGUS LIMITED	300 Jericho Quadrangle Suite 130 ,Jericho
15133	AER MANUFACTURING, L.P.	P. O. Box 979 ,Carrollton
15135	AER TECHNOLOGIES, INC.	650 Columbia Street ,Brea
15136	AER TRAVEL INC	5465 Morehouse Dr Ste 160 ,San Diego
15137	AERA ENERGY SERVICES COMPANY	10000 Ming Avenue ,Bakersfield
15138	AERAS	1405 Research Blvd ,Rockville
15139	AERATION INDUSTRIES INTERNATIONAL, LLC	4100 Peavey Road ,Chaska
15140	AERATION INDUSTRIES INTL INC.	4100 Peavey Road ,Chaska
15141	AERATION TECHNOLOGIES, INC.	P.O. Box 488 ,North Andover
15142	AERC.COM, INC	2591 Mitchell Avenue ,Allentown
15143	AERCAP GROUP SERVICES	100 NE 3rd Ave Ste 800 ,Ft Lauderdale
15144	AERCO INTERNATIONAL, INC.	100 Oritani Drive ,Blauvelt
15146	AERCO SYSTEMS INCORPORATED	12069 Riverside Dr ,Lakeside
15148	AEREO, INC.	280 Summer Street ,Boston
15149	AEREX INDUSTRIES, INC.	3504 Industrial 27th Street ,Ft. Pierce
15151	AERGO SOLUTIONS	33 Wood Ave S Ste 520 ,Iselin
15152	AERIAL AVIONICS	2550 John Montgomery Dr. ,San Jose
15153	AERIAL BIOPHARMA, LLC	9001 Aerial Center Parkway ,Morrisville
15158	AERIAL DATA SERVICE, INC.	8301 E 51st St Ste 100 ,Tulsa
15159	AERIAL FOCUS, INC.	4885 Alpha Rd., Suite 155 ,Dallas
15160	AERIAL INFORMATION SYSTEMS, INC.	112 First Street ,Redlands
15162	AERIAL LIGHTING & ELECTRIC, INC.	26 Hotchkiss St ,Naugatuck
15163	AERIAL MACHINE & TOOL CORPORATION	4298 Jeb Stuart Highway ,Meadows Of Dan
15164	AERIAL MAPPING COMPANY, INC.	3141 West Clarendon Avenue ,Phoenix
15166	AERIAL SERVICES, INC	6315 Chancellor Drive ,Cedar Falls
15168	AERIAL SOLUTIONS INC	7074 Ramsey Ford Rd ,Tabor City
15170	AERIALS GYMNASTICS, INC.	151 Industrial Way East ,Eatontown
15172	AERIE CONSTRUCTION COMPANY, LLC	9005 North Saddleback Road ,Park City
15173	AERIE PHARMACEUTICALS,INC.,	135 Us Highway 206 ,Bedminster
15174	AERIE, INC.	460 E. 2nd Ave. ,Eugene
15175	AERIES ENTERPRISES, LLC	1100 Carillon Point ,Kirkland
15177	AERION CORPORATION	1325 Airmotive Way, Suite 370 ,Reno
15178	AERION RENTAL SERVICES, LLC	102 Annonce Street ,Lafayette
15180	AERIS COMMUNICATIONS, INC.	2350 Mission College Blvd., Ste 600 ,Santa Clara
15181	AERIS ENTERPRISES, INC.	59 Damonte Ranch Pkway B292 ,Reno
15183	AERIS, INC.	Po Box 1519 ,Santa Rosa
15184	AERITAE CONSULTING GROUP, LTD.	81 E. 7th Street Suite 400 ,St. Paul
15185	AERNNOVA ENGINEERING, INC.	3891 Ranchero Drive, Suite 100 ,Ann Arbor
15186	AERO & ASSOCIATES, INC.	6714 S Rt 83 ,Darien
15187	AERO ACCESSORIES INC	1240 Springwood Church Road ,Gibsonville
15188	AERO AIR, LLC	2050 NE 25th Avenue ,Hillsboro
15189	AERO ALL-GAS COMPANY	3150 Main Street ,Hartford
15190	AERO ARC	1336 E Francis ,Ontario
15191	AERO ASSEMBLIES, INC.	12012 12Th Avenue S ,Burnsville
15192	AERO AUTOMATIC SPRINKLER COMPANY	21605 N. Central Ave. ,Phoenix
15198	AERO CHARTER, INC.	501 Turbine Avenue ,Chesterfield
15199	AERO CHIP	14333 S Figueroa St ,Gardena
15200	AERO COMMUNICATIONS INC.	5711 Research Dr ,Canton
15202	AERO COMPONENTS, INC.	5124 Kaltenbrun Road ,Fort Worth
15204	AERO COMPRESSOR INC.	12966 Park Street ,Santa Fe Springs
15206	AERO CONTROLS, INC.	1610 20th Street NW ,Auburn
15208	AERO DESIGN SERVICES INC	4905 34th Street South ,Saint Petersburg
15209	AERO DESIGN, INC	3409 E Wood St ,Phoenix
15213	AERO DYNAMICS INC	142 Batchelder Rd ,Seabrook
15214	AERO DYNAMIX, INC.	3227 West Euless Blvd. ,Euless
15217	AERO ENGINE INTERNATIONAL CORP.	1562 S.W. 150 Terrace ,Davie
15220	AERO FABRICATORS, INC.	Po Box 181 ,Lyons
15222	AERO FEDERAL CREDIT UNION	18301 North 79th Avenue Bld A-100 ,Glendale
15225	AERO FOIL INTERNATIONAL	1920 Port City Blvd. ,Muskegon
15227	AERO FULFILLMENT SERVICES CORPORATION	3900 Aero Drive ,Mason
15233	AERO INDUSTRIAL SUPPLY CO., INC. D/B/A AERO INDUSTRIAL SALES CO, INC	One Cross Island Plaza ,Rosedale
15234	AERO INDUSTRIES, INC.	4243 W Bradbury Ave ,Indianapolis
15235	AERO INSTITUTE	38256 Sierra Highway ,Palmdale
15236	AERO INSTRUMENTS & AVIONICS, INC.	7290 Nash Road ,North Tonawanda
15238	AERO JET SERVICES, LLC	15100 N. 78th Way, Suite #203 ,Scottsdale
15239	AERO MACHINE, LLC	1251 Transport Drive ,Valparaiso
15240	AERO MAG 2000 CLE, LLC	6030 Cargo Road ,Cleveland
15241	AERO MAINTENANCE GROUP LLC	2200 NW 84th Ave ,Miami
15242	AERO MANUFACTURING CORPORATION	100 Sam Fonzo Dr. ,Beverly
15243	AERO MARK, INC.	1940 International Way ,Idaho Falls
15244	AERO MATERIAL HANDLING, INC.	103 Pleasant Street ,Anoka
15245	AERO MECHANICAL INDUSTRIES	4901 Rockaway Blvd. Ne ,Rio Rancho
15246	AERO MECHANICAL, INC.	10 Leah Street ,Johnston
15247	AERO MECHANISM PRECISION, INC.	21700 Marilla Street ,Chatsworth
15248	AERO METAL FINISHING, INC.	2150 North Lark Industrial Drive ,Fenton
15251	AERO MIST, INC.	22832 N. 19th Ave ,Phoenix
15253	AERO NAV LABORATORIES, INC.	14-29 112Th Street ,College Point
15254	AERO OPTICS, INC.	655 Deep Valley Dr Ste 335 ,Rolling Hills Estates
15258	AERO PLUMBING & HEATING CO., INC.	P.O. Box 51 ,Vienna
15259	AERO PRECISION INDUSTRIES, LLC	30 Lindbergh Avenue ,Livermore
15260	AERO PRECISION PRODUCTS, INC.	14000 NW 19th Avenue ,Opa Locka
15261	AERO PRECISION REPAIR AND OVERHAUL CO.,INC.	580 South Military Trail ,Deerfield Beach
15262	AERO PRECISION, LLC	2338 Holgate Street ,Tacoma
15263	AERO PRODUCTS COMPONENT SERVICES, INC.	551 N. 40th Street ,Show Low
15264	AERO PRODUCTS INTERNATIONAL, INC.	2381 NW Executive Center Drive ,Boca Raton
15265	AERO PROPANE GAS, INC	255 South Ironwood Drive ,Apache Junction
15266	AERO PROPULSION SUPPORT, INC.	108 May Drive ,Harrison
15269	AERO RESEARCH ASSOCIATES, INC.	1350-9 Lincoln Towers Lincoln Ave ,Holbrook
15271	AERO SALES, INC.	29313 Clemens Rd. ,Westlake
15272	AERO SHADE TECHNOLOGIES, INC	3104 Industrial Avenue Three ,Ft. Pierce
15274	AERO SOLUTIONS, LLC	5500 Flatiron Parkway ,Boulder
15276	AERO SPACE TOOLING & MACHINING	2190 West 1700 South ,Salt Lake City
15277	AERO SPECIALTIES CORP.	20 Burt Drive ,Deer Park
15283	AERO SURVEY INC.	4700 Tabor Valley Road ,Manhattan
15285	AERO TECH MANUFACTURING INC.	395 W 1100 N ,North Salt Lake
15286	AERO TECH SERVICE ASSOCIATES, INC.	909 S. Meridian Ave., Suite 200 ,Oklahoma City
15287	AERO THERMO TECHNOLOGY, INC	620 Discovery Drive ,Huntsville
15289	AERO TRANSPORTATION PRODUCTS	3300 East Geospace Drive ,Independence
15290	AERO TURBINE INTERNATIONAL, INC.	24 Hilcrest Road ,Niantic
15291	AERO TURBINE, INC.	6800 S. Lindbergh Street ,Stockton
15293	AERO US INC	1818 White Oaks Ct ,Campbell
15294	AERO WAYS, INC.	131 N. Dupont Highway ,New Castle
15295	AERO, INC.	1010 W West Maple Road ,Walled Lake
15296	AEROANTENNA TECHNOLOGY, INC.	20732 Lassen St. ,Chatsworth
15298	AEROBICS & FITNESS ASSOCIATION OF AMERICA	15250 Ventura Blvd. Suite 200 ,Sherman Oaks
15299	AEROBIOLOGY LABORATORIES ASSOCIATES, INC	43760 Trade Center Place, Suite 100 ,Dulles
15300	AERO-BOND CORP.	1 Allen Street ,Springfield
15301	AEROBOTIX. INC.	351-F Electronics Blvd ,Huntsville
15303	AEROCARE EMPLOYEE BENEFITS INC.	3325 Bartlett Blvd. ,Orlando
15304	AEROCARE HOLDINGS, INC.	3325 Bartlett Blvd. ,Orlando
15306	AEROCISION, LLC	12A Inspiration Lane ,Chester
15307	AEROCOACH TRANSPORTATION LLC	4140 10th St ,Riverside
15308	AEROCOAT SOURCE, LLC	1105 Queens Road ,Cherry Hill
15311	AEROCON PHOTOGRAMMETRIC SERVICES, INC.	4515 Glenbrook Rd ,Willoughby
15312	AEROCONTROLEX GROUP, INC.	1301 E. 9th St. Ste. 3000 ,Cleveland
15313	AEROCRAFT HEAT TREATING CO. INC.	11126 Palmer Avenue ,Southgate
15315	AEROCRINE, INC.	5151 Mccrimmon Parkway, Suite 260 ,Morrisville
15316	AERO-DATA CORP	8245 Ymca Plaza Drive ,Baton Rouge
15318	AERODINE MACHINE, INC.	2542 S. 3400 W. ,West Valley City
15320	AERODYN ENGINEERING INC	1919 S Girls School Rd ,Indianapolis
15322	AERODYNAMIC ENGINEERING, INC.	15495 Graham Street ,Huntington Beach
15323	AERODYNAMIC SOLUTIONS INC.	1515 Willowhaven Ct ,San Jose
15324	AERODYNAMICS, INC.	6544 Highland Road ,Waterford
15325	AERO-DYNAMICS, INC.	905 S. 11th ,Broken Arrow
15326	AERODYNE INDUSTRIES LLC	3982 Tampa Rd ,Oldsmar
15327	AERODYNE INDUSTRIS LLC	8737 N 77th Dr ,Peoria
15328	AERODYNE RESEARCH LLC	1407 Flight Line Blvd ,Deland
15329	AERODYNE RESEARCH, INC.	45 Manning Road ,Billerica
15331	AEROED INSPECTION SERVICES LLC	725 Mariner Circle ,Webster
15332	AERO-ENGINES, INC.	3033 North Collidge Avenue ,Los Angeles
15333	AEROFIELD SERVICES, LLC	13659 E 104th Avenue, Suite 100 ,Commerce City
15334	AEROFIL TECHNOLOGY, INC.	225 Industrial Park Drive ,Sullivan
15335	AEROFIT, INC.	1425 S. Acacia Avenue ,Fullerton
15336	AEROFIT, LLC.	1425 S. Acacia Avenue ,Fullerton
15337	AEROFLEX COLORADO SPRINGS, INC. F/ K /A AEROFLEX UTMC	35 South Service Rd ,Plainview
15339	AEROFLEX INCORPORATED	35 South Service Road ,Plainview
15340	AEROFLEX USA INC.	282 Industrial Park Road ,Sweetwater
15341	AEROFLIGHT EXECUTIVE SERVICES IN	8555 Perimeter Rd S ,Seattle
15343	AEROFLOW HEALTHCARE, INC.	3165 Sweeten Creek Rd. ,Asheville
15347	AERO-GLEN INTERNATIONAL, LLC	1720 Minters Chapel Road ,Grapevine
15348	AEROGLIDE CORPORATION	100 Aeroglide Drive ,Cary
15349	AEROGO, INC.	1170 Andover Park West ,Seattle
15351	AEROGROW INTERNATIONAL, INC.	6075 Longbow Dr # 200 ,Boulder
15352	AEROHEAD GROUP, INC.	1090 Rainbow Drive ,Spring Branch
15353	AEROHIVE NETWORKS INC.	330 Gibraltar Drive ,Sunnyvale
15354	AERO-K, INC.	10764 Lower Azusa Road ,El Monte
15356	AERO-LAC INC	420 S. 96th Sp. 11 ,Seattle
15357	AEROLASE CORPORTION	777 Old Saw Mill River Rd Ste ,Tarrytown
15358	AEROLINEAS ARGENTINAS, S.A.	100 NW 57th Court Suite #120 ,Miami
15360	AEROLITE EXTRUSION COMPANY	4605 Lake Park Road ,Youngstown
15362	AEROLYUSA, INC.	999 Oyster Bay Road, Suite 109 ,Bethpage
15364	AEROMACH USA, LLC	10015-F Metromont Industrial B ,Charlotte
15365	AERO-MARINE ENGINEERING., INC.	708 West Highway 380 ,Bryson
15366	AEROMARITIME AMERICA, INC.	4927 E. Falcon Drive ,Mesa
15367	AERO-MARK MRO, LLC DBA AMRO	14560 Greeno Rd ,Fairhope
15368	AERO-MARK, INC.	10423 Danner Drive ,Streetsboro
15370	AEROMAX INDUSTRIES INC	9027 Canoga Ave Unit H And I ,Canoga Park
15371	AEROMECH INCORPORATED	1604 Hewitt Avenue ,Everett
15372	AERO-MED EXPRESS, INC.	P.O. Box 1568 ,Rogers
15374	AEROMED, INC.	2342 North Penn Road ,Hatfield
15375	AERO-MED, LTD	P. O. Box 151 ,Glastonbury
15380	AERO-METRIC, INC	4020 Technology Pky ,Sheboygan
15381	AEROMIX SYSTEMS, INC.	7135 Madison Ave W ,Golden Valley
15382	AERO-MOD, INC.	7927 U.S. Highway 24 ,Manhattan
15383	AERON BIOTECHNOLOGY, INC.	1933 Davis Street ,San Leandro
15384	AERON GROUP, LLC	5748 E. 102 Street ,Tulsa
15385	AERONAUTIC INVESTMENT INC	2200 NW 102nd Ave Unit 4 ,Miami
15387	AERONAUTICAL SYSTEMS, INC.	43671 Trade Center Place ,Sterling
15388	AERONAVDATA, INC.	1839 Ghent Rd Ste 230 ,Columbia
15389	AERONET WIRELESS BROADBAND CORP.	Metro Office Park # 18 Suite 303 ,Guaynabo
15393	AEROPARTS FABRICATING & MACHINING, INC.	P.O. Box 778 211 East Sample Street ,Ebensburg
15394	AEROPARTS MANUFACTURING & REPAIR, INC.	431 Rio Rancho Blvd. N.E. ,Rio Rancho
15396	AEROPLATE CORPORATION	P. O. Box 10368 ,Fresno
15399	AEROPOSTALE, INC.	112 West 34th Street, 22nd Floor ,New York
15400	AEROPRES CORPORATION	1324 N. Hearne Ave ,Shreveport
15401	AEROQUEST, INC.	100 Boulderbrook Circle ,Lawrenceville
15403	AEROSAT CORPORATION	62 Route 101A ,Amherst
15404	AEROSCOPE, INC.	11901 Allison Street ,Broomfield
15405	AEROSCOPIC ENVIRONMENTAL, INC.	1833 Dana Street ,Glendale
15406	AEROSCOUT, INC.	1300 Island Dr., ,Redwood City
15408	AEROSMITH AVIATION, INC.	321 Corporate Road ,Longview
15409	AERO-SMITH, INC	214 Aviation Way ,Martinsburg
15413	AEROSONIC CORPORATION	1212 North Hercules Avenue ,Clearwater
15414	AEROSOURCE INC	390 Campus Dr ,Somerset
15415	AEROSPACE & MARINE INTERNATIONAL CORPORATION	6910 Santa Teresa Boulevard ,San Jose
15416	AEROSPACE ALLOYS, INC.	11 Britton Drive ,Bloomfield
15417	AEROSPACE BUSINESS DEVELOPMENT ASSOCIATES, INC.	3100 Presidential Drive ,Fairborn
15418	AEROSPACE CLAIMS MANAGERS, INC.	1072 Casitas Pass Road #281 ,Carpinteria
15419	AEROSPACE COATINGS INTERNATIONAL, LLC	370 Knight Drive ,Oxford
15421	AEROSPACE COMPOSITE PRODUCTS	78 Lindbergh Ave. ,Livermore
15423	AEROSPACE DEFENSE COATINGS OF GEORGIA, INC.	378 Centerpointe Circle Suite 1272, ,Altamonte Springs
15424	AEROSPACE DISTRIBUTORS, INC.	34110 9th Ave. S. ,Federal Way
15426	AEROSPACE ENGINEERING & SUPPORT	1307 West 2550 South ,Ogden
15430	AEROSPACE FASTENERS, INC	205 E. Neches Street ,Palestine
15431	AEROSPACE FEDERAL CREDIT UNION	2310 E El Segundo Blvd ,El Segundo
15432	AEROSPACE INDUSTRIES ASSOCIATION	1000 Wilson Blvd, Ste 1700 ,Arlington
15434	AEROSPACE INTERNATIONAL, INC.	3250 Airflite Way ,Long Beach
15435	AEROSPACE LOGISTICS RESOURCES, LLC	2600 International Parkway ,Woodridge
15436	AEROSPACE LUBRICANTS, INC.	1600 Georgesville Road ,Columbus
15437	AEROSPACE MAINTENANCE SOLUTIONS	8759 Mayfield Road ,Chesterland
15438	AEROSPACE MAINTENANCE SUPPLIES AND SERVICES INC	8161 NW 91th Terrace ,Medley
15439	AEROSPACE MANUFACTURING, INC.	80 Van Winkle Ave. ,Wallington
15441	AEROSPACE MEDICAL ASSOCIATION	320 South Henry Street ,Alexandria
15443	AEROSPACE MUSEUM OF CALIFORNIA	3200 Freedom Park Dr ,Mcclellan
15444	AEROSPACE OPTICS, INC.	3201 Sandy Lane ,Fort Worth
15445	AEROSPACE PRODUCTS INTERNATIONAL, INC.	3778 Distriplex Dr. North ,Memphis
15446	AEROSPACE PRODUCTS S.E., INC.	7047 Old Madison Pike ,Huntsville
15447	AERO-SPACE REPORTS, INC.	6916 NW 112Th St. ,Oklahoma City
15449	AEROSPACE SERVICES INTERNATIONAL	14101 Parke Long Court ,Chantilly
15450	AERO-SPACE SOUTHWEST, INC.	21450 North 3rd Avenue ,Phoenix
15451	AEROSPACE TECHNIQUES, INC.	1100 Country Club Road ,Middletown
15453	AEROSPACE TECHNOLOGIES INTERNATIONAL, INC.	2945 Center Green Ct ,Boulder
15456	AEROSPACE TESTING AND PYROMETRY	35 Christine Lane ,Bangor
15457	AEROSPACE TESTING LABORATORY INC	Po Box 612 ,South Windsor
15458	AEROSPACE TURBINE ROTABLES, INC.	3414 W 29th St S ,Wichita
15459	AEROSPACE WELDING, MPLS. INC.	1045 Gemini Road ,Eagan
15462	AEROSPACECOMPUTING, INC.	465 Fairchild Drive, Suite 224 ,Mountain View
15463	AEROSPEC, INC.	505 E Alamo Drive ,Chandler
15464	AEROSPHERE AVIATION SERVICE, INC.	7619 Boeing Drive ,Greensboro
15466	AEROSPHERES, INC.	220 Little Falls Road ,Cedar Grove
15467	AEROSTAR AEROSPACE MFG., INC	20825 N 25th Pl ,Phoenix
15470	AEROSTAR GLOBAL LOGISTICS, INC.	901 Oak Creek Dr. ,Lombard
15471	AEROSTAR INTERNATIONAL INC	Po Box 5107 ,Sioux Falls
15473	AEROSTRUCTURES CONTRACT EMPLOYEES, INC	2306 Oak Lane ,Grand Prairie
15474	AEROSUDS, INC.	135 Alter ,Broomfield
15475	AEROSWISS LLC	20 Powers Drive ,Meriden
15476	AEROTAGE DESIGN GROUP INC	Po Box 1026 ,Central
15477	AEROTEC ALLOYS, INC.	10632 Alondra Blvd. ,Norwalk
15479	AERO-TECH ENGINEERING, INC.	2326 Southeast Blvd. ,Wichita
15480	AEROTECH ENTERPRISE INC	8511 Mulberry Rd ,Chesterland
15481	AEROTECH MACHINING INC	803 Bloomingdale Rd ,Bloomingdale
15482	AEROTECH MAPPING, INC.	2580 Montessouri St. Ste. 104 ,Las Vegas
15483	AERO-TECH SERVICES INC	500 Airport Road ,Lititz
15484	AEROTECH SERVICES, INCORPORATED	887 Mitten Road, Suite 200 ,Burlingame
15485	AEROTECH SOLUTIONS, INC.	2250 Central Street, Bldg. C ,Richmond
15486	AEROTECH, INC.	101 Zeta Drive ,Pittsburgh
15487	AEROTEK AVIATION LLC	P.O. Box 1782 ,Oxford
15488	AEROTEK SOFTWARE SOLUTIONS INC	1034 Blankets Creek Dr ,Canton
15489	AEROTEK, INC.	7301 Parkway Drive ,Hanover
15490	AERO-TEL WIRE HARNESS CORP	3748 Silver Star Rd ,Orlando
15491	AEROTERM U.S., INC.	201 West Street Suite 200 ,Annapolis
15492	AEROTHRUST CORPORATION	P.O. Box 549 ,Wilmington
15493	AEROTURBINE, INC.	15701 SW 29th Street ,Miramar
15494	AEROVEL CORPORATION	83 Oak Ridge Road ,White Salmon
15496	AEROVIRONMENT INC	181 West Huntington Drive ,Monrovia
15497	AEROVOX CORP	167 John Vertente Boulevard ,New Bedford
15498	AEROWOOD ANIMAL HOSPITAL	2975 - 156th Ave. Se ,Bellevue
15499	AEROXCHANGE, LTD.	5221 N. OConnor Blvd., #800E ,Irving
15500	AERO-ZONE, INC.	2200 S. Stearman Drive ,Chandler
15501	AERSALE, INC.	121 Alhambra Plaza ,Coral Gables
15503	AERTRADE, LLC	2066 Bunker Circle ,Naperville
15504	AERVOE INDUSTRIES, INC.	1100 Mark Circle ,Gardnerville
15506	AERZEN USA CORP.	108 Independence Way ,Coatesville
15508	AES BUILDER AND HOME IMPROVEMENT	6915 Golden Ring Rd ,Baltimore
15509	AES CAYUGA, LLC	228 Cayuga Drive ,Lansing
15510	AES CLEAN TECHNOLOGY INC	422 Stump Road ,Montgomeryville
15511	AES CONSULTANTS, INC.	Po Box 930 ,Silverdale
15512	AES CORPORATION	285 Newbury Street ,Peabody
15514	AES DRILLING FLUIDS PERMIAN, LLC	4605 Fielder Street ,Midland
15515	AES DRILLING FLUIDS, LLC	11767 Katy Freeway ,Houston
15516	AES ELECTRICAL INC	13335 Mid Atlantic Blvd ,Laurel
15517	AES ENTERPRISES	889 Pickwick St. ,Savannah
15521	AES MOTOMATION INC.	48501 Warm Springs Blvd. ,Fremont
15522	AES NUCLEAR, INC.	9111 Cross Park Drive, Suite D200 ,Knoxville
15523	AES NY, L.L.C.	130 East Seneca Street ,Ithaca
15525	AES PUERTO RICO, LP	Po Box 1890 ,Guayama
15527	AES REMEDIAL CONTRACTING, LLC	132 Town Line Road ,Southington
15528	AES SOLAR ENERGY, LTD.	4301 Fairfax Dr. Ste 360 ,Arlington
15529	AES SOMERSET, LLC	7725 Lake Road ,Barker
15530	AES SYSTEMS	1167 N. 450 West ,Springville
15531	AES TITLE PARTNERS LLC	11000 Regency Pkwy Ste 101 ,Cary
15533	AES, A PROFESSIONAL CORPORATION	5248 Olde Towne Rd Ste 1 ,Williamsburg
15534	AESBUS COMPANY	3707 Fm 1960 West, Suite 400 ,Houston
15536	AESCO ELECTRONICS, INC.	2230 Picton Parkway ,Akron
15537	AESCULAP, INC.	3773 Corporate Parkway ,Center Valley
15539	AESEC GLOBAL SERVICES, INC.	725 Cowper Street ,Palo Alto
15541	AESICA L L C	601 Route 35 N ,Neptune
15543	AESKU, INC	95 Linden Street ,Oakland
15545	AESSEAL, INC.	355 Dunavant Drive ,Rockford
15547	AESTHETIC & IMPLANT DENTISTRY OF ATLANTA, LLC	200 Galleria Prkway ,Atlanta
15549	AESTHETIC & RECONSTRUCTIVE PLASTIC SURGERY MEDICAL ASSOCIATES, INC.	4165 Blackhawk Cir Ste 150 ,Danville
15550	AESTHETIC & RECONSTRUCTIVE PLASTIC SURGERY, PLLC	2304 Wesvill Court, Suite 360 ,Raleigh
15552	AESTHETIC & RECONSTRUCTIVE SURGERY ASSOCIATES, S.C.	10554 N Port Washington Rd ,Mequon
15553	AESTHETIC & RECONSTRUCTIVE SURGERY,	105 Collier Rd., Ste. 3010 ,Atlanta
15554	AESTHETIC ABSTRACTIONS, INC.	5N373 Fairway Lane ,Itasca
15556	AESTHETIC AND GENERAL DERMATOLOGY OF SEATTLE	13610 1st Avenue South ,Burien
15558	AESTHETIC AND RECONSTRUCTIVE PLASTIC SURGERY, PA	3790 7th Terrace ,Vero Beach
15564	AESTHETIC ASSOCIATES P.A.	5642 Esplanade Drive ,Corpus Christi
15565	AESTHETIC CENTER FOR BREAST AND COSMETIC SURGERY, P.A.	615 Halton Road, Suite 100 ,Greenville
15567	AESTHETIC CENTER FOR PLASTIC SURGERY, LLP	12727 Kimberley Ste 300 ,Houston
15569	AESTHETIC DENTAL CARE, LLC	287 Rutland Avenue ,Teaneck
15570	AESTHETIC DENTAL CENTER OF UNION	490 Post Street ,San Francisco
15572	AESTHETIC DENTAL PC	551 Anderson Ave ,Cliffside Park
15573	AESTHETIC DENTISTRY	134 Milestone Way ,Greenville
15574	AESTHETIC DENTISTRY BY DIPILLA, P.C	600 N. Old Woodward Ave ,Birmingham
15575	AESTHETIC DENTISTRY OF CHARLOT	900 Gardens Blvd. Ste. 600 ,Charlottesville
15576	AESTHETIC DENTISTRY OF COLLIERVILL	362 New Byhalia Road Ste 3 ,Collierville
15577	AESTHETIC DENTISTRY OF PALM CITY, INC.	2812 SW Mapp Rd. ,Palm City
15581	AESTHETIC DENTISTRY, P.C.	240 Main Street ,North Reading
15582	AESTHETIC DERMATOLOGIC SURGERY, LLC	3009 North Ballas Road ,Town And Country
15585	AESTHETIC DERMATOLOGY ASSOCIATES, P.C.	1088 West Baltimore Pike ,Media
15586	AESTHETIC DERMATOLOGY, LLC	771 Route 70 East ,Marlton
15588	AESTHETIC DESIGNS OF CHERRY CREEK	C/O Rps Plan Administrators ,Greenwood Village
15589	AESTHETIC ENHANCEMENT COSMETIC	525 Oak Centre Dr Ste 260 ,San Antonio
15590	AESTHETIC ENHANCEMENTS PLASTIC SURGERY, L.L.C.	7009 Dr. Phillips Blvd., Suite 100 ,Orlando
15593	AESTHETIC EYE, PC	323 E Riverside Dr, Ste 136 ,Eagle
15594	AESTHETIC FACIAL PLASTIC SURGERY CENTER, INC.	1340 Fenimore Lane ,Gladwyne
15595	AESTHETIC FACIAL PLASTIC SURGERY, PLLC	1810 116th Ave. Northeast #102 ,Bellevue
15596	AESTHETIC FACIAL SURGERY CENTER OF NY	44 East 65th Street ,New York
15597	AESTHETIC FAMILY DENTISTRY	1551 West Parks Highway ,Wasilla
15599	AESTHETIC FAMILY DENTISTRY OF BEL AIR, LLC	2012 Tollgate Road ,Bel Air
15602	AESTHETIC MOBILE LASER	905 E. Hillsboro Blvd. ,Deerfield Beach
15603	AESTHETIC MOVEMENT	9-20 35th Ave, Suite 3F ,Long Island City
15607	AESTHETIC PLASTIC SURGERY ASSOC.	801 Weisgarber Road, Suite 500 ,Knoxville
15609	AESTHETIC PLASTIC SURGERY CENTER, P.C.	416 Gordon Ave ,Thomasville
15611	AESTHETIC PLASTIC SURGERY OF DEL	1600 Pennsylvania Ave ,Wilmington
15612	AESTHETIC PLASTIC SURGERY OF EVANSVILLE	2701 Lincoln Avenue ,Evansville
15613	AESTHETIC PLASTIC SURGERY OF INDIANA, P.C.	12188A N. Meridian St. ,Carmel
15614	AESTHETIC PLASTIC SURGERY OF PITTSBURGH, LLC	5750 Centre Avenue Suite 360 ,Pittsburgh
15615	AESTHETIC PLASTIC SURGERY OF SYRACUSE, PLLC	4822 Manor Hill Drive ,Syracuse
15617	AESTHETIC PLASTIC SURGERY, LLC	8315 Cantrell Road, Suite 120 ,Little Rock
15618	AESTHETIC PLASTIC SURGERY, P.A.	2577 Stantonsburg Road ,Greenville
15621	AESTHETIC PORCELAIN STUDIOS INC	3213 De Witt Avenue ,Los Angeles
15622	AESTHETIC PROSTHETICS INC	1095 N. Allen Ave. ,Pasadena
15627	AESTHETIC SMILES & COSMETIC DENTIST	4795 N. Sumitt Way, Ste 120 ,Meridian
15630	AESTHETIC SOLUTIONS, INC.	651 Canyon Road, Suite A ,Novato
15631	AESTHETIC SURGEONS OF ARIZONA, P.C.	7425 East Shea Blvd., Suite 103 ,Scottsdale
15632	AESTHETIC SURGERY ASSOCIATES	2301 South Clear Creek Road ,Killeen
15634	AESTHETIC SURGERY ASSOCIATES INC	969 N. Mason Suite 170 ,St. Louis
15637	AESTHETIC SURGERY CENTER, LLC	722 Post Road ,Darien
15638	AESTHETIC SURGERY CENTRE, PLLC	3209 S. 23rd Street, Suite 110 ,Tacoma
15639	AESTHETIC SURGERY OF TUCSON, INC.	5585 N. Oracle Rd. ,Tucson
15640	AESTHETIC SURGERY OF VIRGINIA	3505 Brambleton Avenue Sw ,Roanoke
15641	AESTHETIC SURGICAL ASSOCIATES, LLC	3223 8th Street, Suite 200 ,Metairie
15644	AESTHETICA CLINIQUE, L.L.C.	801 Pacific Avenue ,Tacoma
15645	AESTHETICA COSMETIC AND LASER SURGERY CENTER, P.C.	1342 Chelsea Ave ,Bethlehem
15646	AESTHETICA MEDI SPA, INC.	17750 Sherman Way, Suite 305 ,Reseda
15647	AESTHETICARE LLC	11100 Ash St, Ste 210 ,Leawood
15648	AESTHETICARE MEDICAL CORPORATION	30260 Rancho Viejo Road ,San Juan Capistrano
15650	AESTHETICS AND OBGYN FOR WOMEN CARE	105-25 64th Ave Apt 2 F ,Forest Hills
15651	AESTHETICS, INC.	301 Spruce Street ,San Diego
15652	AESTHETIQUE COSMETIC AND PLASTIC SURGERY LLC	3301 Woodburn Road Suite 202 ,Annandale
15653	AESTHETIX CORP.	P.O. Box 608 ,Lihue
15655	AESTIQUE PLASTIC SURGICAL ASSOCIATE S, LTD	One Aesthetic Way ,Greensburg
15657	AESYNT INCORPORATED	500 Cranberry Woods Drive ,Cranberry Township
15659	AESYS TECHNOLOGIES, L.L.C.	693 North Hills Road ,York
15660	AET INC., LIMITED	1900 West Loop South, Suite 920 ,Houston
15662	AETEA INFORMATION TECHNOLOGY, INC.	1445 Research Blvd, Suite 300 ,Rockville
15664	AETERNA ZENTARIS, INC.	315 Sigma Drive, ,Summerville
15665	AETHENA GYNECOLOGY ASSOCIATES	1498 SE Tech Center Pl Ste 100 ,Vancouver
15667	AETHER INVESTMENT PARTNERS LLC	1900 Sixteenth Street Ste 825 ,Denver
15668	AETHER THINGS, INC.	15260 Ventura Blvd 20th Floor ,Sherman Oaks
15669	AETHERPAL INC	1001 Durham Ave Ste 303 ,South Plainfield
15670	AETHERWORKS LLC	501 5th Ave ,New York
15673	AETL INC	2834 N Naomi St ,Burbank
15674	AETNA BEARING COMPANY	1081 Sesame St ,Franklin Park
15676	AETNA BRIDGE COMPANY	100 Jefferson Blvd ,Warwick
15678	AETNA CENTRAL JUDICIAL SERVICES, INC.	225 Broadway Suite 1802 ,New York
15679	AETNA CORPORATION	175 Brookline St ,Cambridge
15681	AETNA FELT CORPORATION.	Mechanical Felt Corp. ,Allentown
15683	AETNA GROUP USA, INC.	2475B Satellite Boulevard ,Duluth
15684	AETNA INC.	151 Farmington Ave., Rwak ,Hartford
15687	AETNA MACHINE COMPANY	203 N Franklin Street ,Cochranton
15689	AETNA MOVING AND STORAGE INC	2173 S Aetna Ln ,West Milwaukee
15690	AETNA PLASTICS CORP.	9075 Bank Street ,Valley View
15691	AETNA PLYWOOD, INC	1401 Saint Charles Road ,Maywood
15692	AETNA RESORTS, LLC	1336 Oak Avenue Suite D ,St Helena
15693	AETNA SCREW PRODUCTS CO.	6363 Gross Point Road ,Niles
15694	AETNA SIGN GROUP, LTD.	2438 Freedom Drive ,San Antonio
15695	AETOS ALTERNATIVES MANAGEMENT, LLC	875 Third Avenue 21st Floor ,New York
15696	AETOS CAPITAL REAL ESTATE, LP	680 Fifth Ave, 24th Floor ,New York
15697	AETOS SYSTEMS, INC.	1525 Perimeter Parkway Suite 115 ,Huntsville
15698	AETOS TECHNOLOGIES, INC.	300 N Dean Road, Ste 5, Pmb157 ,Auburn
15699	AETREX WORLDWIDE, INC.	414 Alfred Ave ,Teaneck
15701	AETURNUM INC	19 Crosby Dr Ste 160 ,Bedford
15704	AEVITAS SPECIALTY SERVICES CORPORATION	663 Lycaste Street ,Detroit
15705	AEW CAPITAL MANAGEMENT	Aew Capital Management, L.P. ,Boston
15708	AEW ENGINEERING, INC.	55 New Montgomery Street, Suite 722 ,San Francisco
15711	AEX, LLC	891 Laurelwood Road, Ste. 108 ,Santa Clara
15712	AEXCEL CORPORATION	7373 Production Dr ,Mentor
15714	AF FAMILY DENTAL, INC.	321 E. 300 North ,American Fork
15716	AF HOLDING CO	811 South Hamilton Street ,Sullivan
15720	AF SUPPLY CORPORATION	942 Lafayette Avenue ,Brooklyn
15721	AF USA, INC	106 Kingsbridge Drive ,Carrollton
15722	AF&L INSURANCE CO	165 Veterans Way ,Warminster
15731	AFA VETERAN BENEFITS ASSOCIATION	1501 Lee Highway ,Arlington
15733	A-FAB, LLC	977 Hyrock Blvd ,Boonville
15738	AFAR MEDIA, LLC	130 Battery St. ,San Francisco
15741	AFB CONSTRUCTION MANAGEMENT OF TRUMBULL, INC.	622 Clinton Avenue ,Bridgeport
15746	AFC ENTERPRISES, INC.	400 Perimeter Center Terrace ,Atlanta
15747	AFC INDUSTRIES, INC.	13-16 133rd Place ,College Point
15749	AFC LLC	13680 NW 5th Street, Suite 220 ,Sunrise
15750	AFC PENSIONS, INC.	200 Reservoir Street ,Needham
15752	AFC TRADING CORP.	171 Mendell Road ,Rochester
15753	AFC TRIDENT, INC.	2029 South Business Pkwy ,Ontario
15754	AFC WORLDWIDE EXPRESS, INC.	600 Gillam Road ,Wilmington
15755	AFC, INC.	2510 Hwy 53 ,Perkinston
15757	AFCELL MEDICAL INC	100 Four Falls Corporate Cente ,West Conshohocken
15758	AFCO INDUSTRIES, INC.	P.O. Box 5085 ,Alexandria
15760	AFCO REALTY LLC	4200 Northside Pkwy NW Bldg 12 ,Atlanta
15762	AFCO STEEL, LLC	1423 East Sixth Street ,Little Rock
15764	AFCO/AVPORTS MANAGEMENT LLC	45025 Aviation Dr ,Dulles
15765	AFCON PRODUCTS, INC.	35 Sargent Drive ,Bethany
15766	AFD CONTRACT FURNITURE, INC.	810 Seventh Avenue ,New York
15767	AFD INDUSTRIES INC.	555 Market Ave. N ,Canton
15769	AFE VICTORY INC	110 Woodcrest Road ,Cherry Hill
15770	AFECO, INC	2190 Main Street ,San Diego
15772	AFENA FEDERAL CREDIT UNION	424 North Bradner Avenue ,Marion
15773	AFFAIRS GROUP WORLDWIDE	755 Bush Street, #403 ,San Francisco
15775	AFFATATO PAVING & ASPHALT INC	160 Long Island Ave ,Holtsville
15777	AFFCO USA INC.	8160 Baymeadows Way West ,Jacksonville
15778	AFFECT STRATEGIES INC	989 Avenue Of Americas 6th Flo ,New York
15779	AFFECTIVA, INC.	411 Waverley Oaks Rd Suite 329 ,Waltham
15780	AFFELD GRIVAKES ZUCKER LLP	2049 Century Park East, Suite 2460 ,Los Angeles
15781	AFFELDT LAW OFFICES, S.C.	8741 W National Ave ,West Allis
15782	AFFERENT PHARMACEUTICALS, INC.	2755 Campus Dr Ste 100 ,San Mateo
15787	AFFILIATED ACCEPTANCE CORPORATION	Po Box 790001 ,Sunrise Beach
15794	AFFILIATED ANIMAL CARE, L.L.C.	1100 Eden Way North, Ste 101B ,Chesapeake
15796	AFFILIATED APPRAISAL GROUP, INC.	979 Littleton Road ,Parsippany
15797	AFFILIATED ASSOCIATIONS OF AMERICA	P.O. Box 3265 ,Kirkland
15799	AFFILIATED BANK	3030 Matlock Road ,Arlington
15800	AFFILIATED BENEFIT CONSULTANTS, INC.	1901 Butterfield Road ,Downers Grove
15801	AFFILIATED BENEFIT SERVICES	1348 Market Street Suite 208 ,Redding
15802	AFFILIATED BLIND OF LOUISIANA TRAINING CENTER INC.	409 West St. Mary Blvd. ,Lafayette
15803	AFFILIATED BROKERAGE CORP.	707 Skokie Blvd., Suite 200 ,Northbrook
15805	AFFILIATED CARDIOLOGISTS OF ARIZONA , P.C.	1331 North 7th Street, Suite 400 ,Phoenix
15806	AFFILIATED CENTRAL, INC.	429 West 53rd Street ,New York
15807	AFFILIATED CHILDRENS DENTAL SPECIALISTS, P.C.	6320A W. Union Hills Dr., Suite 280 ,Glendale
15808	AFFILIATED CLINICAL SERVICES, INC.	400 W. River Dr. ,West Bend
15809	AFFILIATED COLON & RECTAL SURGEONS	1300 N. 12Th St., Ste. 304 ,Phoenix
15811	AFFILIATED COMMUNITY MEDICAL CENTERS, P.A.	101 Willmar Avenue S.W. ,Willmar
15812	AFFILIATED CONSTRUCTION TRADES OF OHIO FOUNDATION	222 E. Town St. ,Columbus
15814	AFFILIATED CONTROL EQUIPMENT CO., INC.	640 Wheat Lane ,Wood Dale
15815	AFFILIATED CUSTOMER SERVICE, INC.	1441 Branding Ave. ,Downers Grove
15818	AFFILIATED DENTISTS, S.C.	5601 Odana Rd ,Madison
15821	AFFILIATED DERMATOLOGISTS, S.C.	13800 W. North Ave. Ste. 100 ,Brookfield
15823	AFFILIATED DERMATOLOGY, P.C.	4300 West Main St., Ste 102 ,Dothan
15825	AFFILIATED DISTRIBUTORS, INC.	2601 Resource Drive #100 ,Plano
15826	AFFILIATED DOCTORS OF ORANGE COUNTY MEDICAL GROUP, INC.	3115 Oceanfront Walk, Suite 301 ,Marina Del Rey
15827	AFFILIATED EMERGENCY VETERINARY SERVICE, P.L.C.	7721 Flying Cloud Drive ,Eden Prairie
15828	AFFILIATED ENGINEERING LABORATORIES, INC.	P.O. Box 3300 ,Edison
15830	AFFILIATED ENVIRONMENTAL SERVICES	450 S River St ,Hackensack
15831	AFFILIATED EYE SPECIALISTS, P.A.	311 N. Maitland Avenue, B-2 ,Maitland
15834	AFFILIATED FAMILY DENTAL CARE	116 Cochituate Road ,Framingham
15836	AFFILIATED FIRST TITLE & INS. INC.	321 E State Rd Ste 200 ,American Fork
15837	AFFILIATED FOODS MIDWEST, INC.	P.O. Box 1067 ,Norfolk
15838	AFFILIATED FOODS, INC.	Po Box 30300 ,Amarillo
15839	AFFILIATED FOOT & ANKLE CENTER, LLP	4645 Highway 9 North ,Howell
15840	AFFILIATED FOOT & ANKLE PC	1745 Riverglen Dr ,Suwanee
15841	AFFILIATED FOOT & ANKLE SPECIALISTS OF CLIFTON	1117 Route 46 East ,Clifton
15843	AFFILIATED FORENSIC LABORATORIES, INC.	3030 North Central Ave., Suite 1206 ,Phoenix
15846	AFFILIATED GENETICS, INC.	2749 East Parleys Way, Suite 100 ,Salt Lake City
15848	AFFILIATED HEALTH FUNDS, INC.	9901 Paramount Blvd ,Downey
15850	AFFILIATED HOME HEALTH CARE, INC.	6618 Parkridge Circle ,Franklin
15851	AFFILIATED HOME HEALTH SERVICES INC	3350 Wilshire Blvd Suite 940 ,Los Angeles
15853	AFFILIATED HOTELS AND RESORTS INC.	100 Denniston Avenue #10 ,Pittsburgh
15855	AFFILIATED INDEPENDENT DISTRIBUTORS	500 E. Swedesford Road, Ste 200 ,Wayne
15858	AFFILIATED INSURANCE AGENCIES, INC.	2829 E. Centerville Road ,Spring Valley
15861	AFFILIATED MANAGERS GROUP, INC.	600 Hale Street ,Prides Crossing
15862	AFFILIATED MARKETING, INC.	101 W. 22nd Street ,Lombard
15863	AFFILIATED MEDICAL CONSULTANTS	220 Ridgedale Ave., Ste C2 ,Florham Park
15864	AFFILIATED MENTAL HEALTH PROFESSIONALS, S.C.	205 Frances Lane ,Barrington
15871	AFFILIATED ORAL & MAXILLOFACIAL SURGEONS	8827 N. Invergordon Road ,Paradise Valley
15876	AFFILIATED PACKAGING INC	3550 Briarwood Drive ,Wooster
15877	AFFILIATED PATHOLOGIST MEDICAL GROUP	19951 Mariner Avenue, Suite 155 ,Torrance
15879	AFFILIATED PATHOLOGY SERVICES, P.C.	47 New Scotland Ave, A81 ,Albany
15880	AFFILIATED PEDIATRIC DENTISTS, P.A.	7373 France Ave S ,Edina
15881	AFFILIATED PERIODONTISTS OF NORTH JERSEY PA	15 Emerald Street ,Hackensack
15882	AFFILIATED PET SYSTEMS LLC	1400 Forest Glen Rd Ste 430 ,Silver Spring
15884	AFFILIATED PHYSICIANS, L.L.C.	Po Box 2968 ,Thomasville
15885	AFFILIATED PLASTIC SURGEONS, LTD.	10617 N Hayden Rd Bldg B-102 ,Scottsdale
15887	AFFILIATED PODIATRISTS, LTD.	4211 N. Cicero, Suite 301 ,Chicago
15888	AFFILIATED PODIATRISTS, P.C.	795 Main Street ,Holden
15889	AFFILIATED PODIATRISTS,PC	35519 Michigan Ave East ,Wayne
15890	AFFILIATED POWER PURCHASERS INTERNA	224 Phillip Morris Drive ,Salisbury
15891	AFFILIATED POWER SERVICES	2403 Appelt Drive ,Houston
15893	AFFILIATED PRODUCTS, INC.	207 River Knoll Drive ,Mayville
15894	AFFILIATED PROFESSIONAL SERVICES INC	5060 Robert J Mathews Pkw Ste 105 ,El Dorado Hills
15895	AFFILIATED PROFESSIONAL SERVICES, INC.	2527 Cranberry Highway ,Wareham
15897	AFFILIATED RADIOLOGISTS, S.C.	1725 W. Harrison Street ,Chicago
15898	AFFILIATED REALTY & MANAGEMENT CO.	1720 W. Algonquin Rd. Suite 200 ,Mt. Prospect
15899	AFFILIATED REINSURANCE ASSOCIATION	15 Maiden Lane, Suite 800 ,New York
15900	AFFILIATED RESOURCE GROUP, INC.	5700 Perimeter Drive, Suite H ,Dublin
15901	AFFILIATED RESOURCES INC	River Forum 1 4380 SW Macadam ,Portland
15905	AFFILIATED SERVICES, LLC	10510 NE Northup Way Suite 200 ,Kirkland
15907	AFFILIATED SPARTAN INSURANCE A	1436 Broadway ,Pearland
15910	AFFILIATED SURGEONS OF ROCKFORD, LLC	2300 N. Rockton Ave. Suite 304 ,Rockford
15912	AFFILIATED TEAMSTERS HEALTH AND WELFARE TRUSTEES	9411 Philadelphia Rd ,Baltimore
15914	AFFILIATED THERAPY GROUP PRACTICE, INC.	4738 South Padre Island Drive ,Corpus Christi
15915	AFFILIATED THERAPY SERVICES, INC	2204 Robin Avenue ,Hammond
15916	AFFILIATED TROY DERMATOLOGISTS, PLLC	4600 Investment Dr ,Troy
15918	AFFILIATED VETERINARY SPECIALISTS OF JACKSONVILLE, INC.	3444 Southside Blvd. Suite 103 ,Jacksonville
15919	AFFILIATED VETERINARY SPECIALISTS, P.A.	9905 South Highway 17-92 ,Maitland
15920	AFFILIATED VOICE AND DATA SYSTEMS, INC.	56 Industrial Park Road ,Saco
15921	AFFILIATED WAREHOUSE COMPANIES, INC.	P.O. Box 295 ,Hazlet
15922	AFFILIATED WASTEWATER ENVIRONMENTAL SERVICES, INC.	1701 West 64th Lane ,Denver
15923	AFFILIATES FOR WOMENS HEALTH, P.A.	1602 Rock Prairie Rd Ste 430 ,College Station
15925	AFFILIATES IN DIGESTIVE & LIVER DISEASES, P.A.	5508 Ocean Drive ,Corpus Christi
15927	AFFILIATES IN FOOT CARE, P.C.	100 Unicorn Park, Suite 3 ,Woburn
15928	AFFILIATES IN GASTROENTEROLOGY, P.A.	101 Short Hill Road, Suite 217 ,West Orange
15929	AFFILIATES IN IMAGING	411 30th Street ,Oakland
15930	AFFILIATES IN MEDICAL SPECIALTIES MEDICAL GROUP, INC.	7345 Medical Center Drive ,West Hills
15931	AFFILIATES IN OB/GYN CARE, INC.	96 Colchester Avenue ,Burlington
15934	AFFILIATES IN ORAL AND MAXILLOFACIAL SURGERY, IN	5188 Winton Road ,Fairfield
15935	AFFILIATES IN ORAL AND MAXILLOFACIAL SURGERY, LTD.	3112 Village Office Place ,Champaign
15938	AFFILIATES IN UROLOGY, P.C.	33545 Cherry Hill Road ,Westland
15942	AFFINA, LLC	2747 Ewing Ave. S. ,Minneapolis
15943	AFFINEGY INC.	1705 S Capital Of Texas Hwy Ste 310 ,Austin
15944	AFFINERGY, LLC	617 Davis Drive, Suite 100 ,Durham
15945	AFFINIA FEDERAL CREDIT UNION	One Reynolds Way ,Kettering
15946	AFFINIA GROUP, INC.	1 Wix Way ,Gastonia
15947	AFFINIPAY LLC	6200 Bridgepoint Parkway ,Austin
15948	AFFINIS CORP	7401 W 129th Street Suite 110 ,Overland Park
15950	AFFINITAS CORPORATION	1015 N. 98th Street ,Omaha
15951	AFFINITI ARCHITECTS PA	6100 Broken Sound Pkwy NW Ste ,Boca Raton
15952	AFFINITI GOLF PARTNERS, LLC	3340 Spencer St. ,Cumming
15955	AFFINITY AGENCY GROUP, LLC	163 Madison Ave ,Morristown
15956	AFFINITY BANK	5660 New Northside Drive ,Atlanta
15957	AFFINITY BIOTECH INC	11303 Chimney Rock Road Ste108 ,Houston
15959	AFFINITY BUSINESS TECHNOLOGIES INC	P. O. Box 1875 ,Madison
15961	AFFINITY CONNECTION, INC.	2160 Sandy Drive, Ste D ,State College
15962	AFFINITY CONSULTANTS, INC.	222 North Canal Street ,Canal Fulton
15963	AFFINITY CONSULTING GROUP SE LLC	11370 66th St. North ,St. Petersburg
15964	AFFINITY CREDIT UNION	475 NW Hoffman Ln ,Des Moines
15965	AFFINITY CUSTOM MOLDING, INC.	21198 M - 60 ,Mendon
15966	AFFINITY DEVELOPMENT GROUP, INC.	10251 Vista Sorrento Pkwy, Ste. 300 ,San Diego
15968	AFFINITY DISPLAYS AND EXPOSITIONS, INC.	1301 Glendale-Milford Road ,Cincinnati
15970	AFFINITY FEDERAL CREDIT UNION	73 Mountain View Blvd ,Basking Ridge
15971	AFFINITY FIDELIS CONSULTING	12 Hemming Drive ,Stafford
15973	AFFINITY FIRST FEDERAL CREDIT UNION	811 S Broadway Ste A ,Minot
15975	AFFINITY FLAVORS, INC.	2026 Cecilia Circle ,Corona
15977	AFFINITY GAMING	3755 Breakthrough Way, Suite 300 ,Las Vegas
15978	AFFINITY GLOBAL SOLUTIONS	919 S 7th St Ste 305 ,Bismarck
15979	AFFINITY GROUP ADMINISTRATORS	P.O. Box 7138 ,Folsom
15980	AFFINITY GROUP CREDIT UNION	290 N John St ,Highland
15981	AFFINITY GROUP LLC	8 Southwoods Blvd ,Albany
15982	AFFINITY GROUP MANAGEMENT CO I	5800 Foxridge Dr Ste 400 ,Mission
15983	AFFINITY GROUP MORTGAGE	975 Worthington Woods Loop ,Worthington
15984	AFFINITY GROUP UNDERWRITERS, INC.	4510 Cox Road ,Glen Allen
15985	AFFINITY GROUP, INC.	44 River Street ,Southbridge
15986	AFFINITY HEALTH CARE LLC	8208 Racine Ave ,Wind Lake
15988	AFFINITY HEALTH CARE, LLC	2610 Lake Cook Road ,Riverwoods
15989	AFFINITY HEALTH GROUP, L.L.C.	2225 Highway 41 North ,Tifton
15990	AFFINITY HEALTH PLAN	2500 Halsey Street ,Bronx
15991	AFFINITY HEALTH SYSTEM	1570 Midway Place ,Menasha
15994	AFFINITY HOME HEALTH CARE	3315 Burke Rd ,Pasadena
15997	AFFINITY HOME LOANS, INC. DBA AFFINITY FINANCIAL	10650 Treena St. Suite 103 ,San Diego
15998	AFFINITY INSURANCE AGENCY, INC.	3950 Cobb Pkway, Suite 707 ,Acworth
15999	AFFINITY INSURANCE GROUP, INC.	Po Box 25394 ,Greenville
16001	AFFINITY MARKETING CONSULTANTS, INC.	3231-C Business Park Drive #300 ,Vista
16002	AFFINITY MARKETING GROUP	12 Michigan Dr Ste 2 ,Natick
16003	AFFINITY MEDICAL PARTNERS, INC.	3220 Blume Drive 260 ,Richmond
16004	AFFINITY MEDICAL SOLUTIONS, INC.	3220 Blume Drive #260 ,Richmond
16005	AFFINITY MEDICAL TECHNOLOGIES, LLC	3545 Harbor Blvd Ste 150 ,Costa Mesa
16006	AFFINITY MEDICAL TECHNOLOGY LLC	16305 - 36th Avenue North Suite 550 ,Plymouth
16007	AFFINITY MUTUAL INSURANCE COMPANY	722 N Cable Rd ,Lima
16008	AFFINITY NETWORK SOLUTIONS INC	11002 Veirs Mill Rd ,Wheaton
16009	AFFINITY ONE FEDERAL CREDIT UNION	545 East Second Street ,Jamestown
16010	AFFINITY PLUS FEDERAL CREDIT UNION	175 W. Lafayette Rd. ,St. Paul
16012	AFFINITY PROPERTY MANAGEMENT, LLC	1303 SW 16th Avenue ,Portland
16014	AFFINITY SALON INC	5547 Far Hills Ave ,Dayton
16015	AFFINITY SKIN CARE, INC.	1175 Hilltop Drive ,Redding
16016	AFFINITY SOLUTIONS, INC.	9200 E. Mineral Ave., Suite 380 ,Centennial
16019	AFFINITY TITLE SERVICES, LLC	2454 E. Dempster St., Suite 401 ,Des Plaines
16020	AFFINITY VALUATION GROUP	1310 S Main St Ste 7 ,Ann Arbor
16022	AFFINITY WEALTH MANAGEMENT, INC.	1702 Lovering Avenue ,Wilmington
16024	AFFINITY, INC	2600 North Mayfair Rd Ste 400 ,Wauwatosa
16026	AFFINNOVA, INC.	265 Winter Street 4th Floor ,Waltham
16027	AFFIRMATION ARTS LIMITED	330 Grant Street, Suite 1900 ,Pittsburgh
16031	AFFIRMATIVE INSURANCE HOLDINGS, INC	4450 Sojourn Drive ,Addison
16033	AFFIRMATIVE SOLUTIONS LLC	237 River Park North Drive ,Woodstock
16037	AFFIVAL, INC.	1967 Eastern Ave. ,Verona
16041	AFFLECK RESTORATIVE & PROSTHETIC DENTISTRY	2537 N Washington Blvd ,North Ogden
16042	AFFLICTED AUTOMOTIVE	4513 1611 N Magnolia Ave Suite 312 ,El Cajon
16049	AFFOLTER GANNON & ROSE, LTD.	15 Brickyard Road ,Essex Jct
16053	AFFORDABLE AUTO INSURANCE, INC.	1055 North 115th Street ,Omaha
16054	AFFORDABLE AUTO RENTAL INC.	310 Dixie Way North ,South Bend
16057	AFFORDABLE AUTOMOTIVE	32 Executive Center Drive ,New Milford
16058	AFFORDABLE AUTOMOTIVE LLC	2106 Park Avenue ,Chico
16059	AFFORDABLE AUTOS INC	2868 South Broadway ,Wichita
16060	AFFORDABLE BATH & KITCHEN, INC.	3636 South 108th Street ,Greenfield
16061	AFFORDABLE BENEFIT ADMINISTR	444 Irving Drive ,Burbank
16062	AFFORDABLE BLINDS & SHUTTERS INC.	4845 NW 57th Court ,Kansas City
16063	AFFORDABLE BODY SHOP	1416 Municipal Parkway ,Douglasville
16065	AFFORDABLE CABINETS INC	1600 Acoma Blvd W Ste 21 ,Lake Havasu City
16067	AFFORDABLE CARS AND FINANCE, INC.	27932 Lorain Road ,North Olmsted
16068	AFFORDABLE CHIROPRACTIC CENTER	137 West Lexington Avenue ,High Point
16069	AFFORDABLE CLASSICS, INC.	19010 Hawthorne Blvd. ,Torrance
16071	AFFORDABLE CLOSETS LLC	12478 Evans St ,Omaha
16072	AFFORDABLE COMFORT MECHANICAL	6510 Highway 36 Blvd N ,Oakdale
16073	AFFORDABLE COMFORT, INC.	One Thorn Run Center ,Moon Twp
16075	AFFORDABLE COMPUTERS	2643 Battlefield Parkway ,Fort Oglethorpe
16077	AFFORDABLE CONSTRUCTION COMPANY	230 E Tonhawa St ,Norman
16078	AFFORDABLE CREATIVE SERVICES, INC.	42395 Ryan Road ,Brambleton
16079	AFFORDABLE CUSTOM CABINETS, INC.	Po Box 332 ,Otis Orchards
16080	AFFORDABLE DENTAL	80 Rogers St Apt A1 ,Clearwater
16082	AFFORDABLE DRAIN SERVICE INC	8340 Juniper Creek Lane ,San Diego
16083	AFFORDABLE ELECTRIC, INC.	Po Box 1870 ,Fairview
16084	AFFORDABLE EMPLOYEE BENEFITS LLC	382 Main Street ,Ecru
16085	AFFORDABLE ENGINEERING SERVICES	120 C Avenue ,Coronado
16088	AFFORDABLE FIRE PROTECTION, INC.	540 Hamilton Avenue ,Linwood
16089	AFFORDABLE FOOT CLINIC, P.A.	3915 Hidden Oaks Lane ,Melbourne
16090	AFFORDABLE FORKLIFT SYSTEMS INC.	8657 Dearborn Ave. ,South Gate
16093	AFFORDABLE GLASS INC.	2225 Walter Andrews Road ,Graham
16094	AFFORDABLE GRANITE AND STONE I	416 11th Ave South ,Hopkins
16095	AFFORDABLE HEALTH INSURANCE AG	100 North Corporate Dr Ste 100 ,Brookfield
16096	AFFORDABLE HEATING & AIR CONDITIONING	4630 S Kinnickinnic Ave ,Cudahy
16100	AFFORDABLE HOMES DEVELOPMENT INC	901 E St Louis Street Suite 101 ,Springfield
16101	AFFORDABLE HOMES OF SOUTH TEXAS, INC.	1420 Erie Avenue ,Mcallen
16102	AFFORDABLE HOUSING ACCESS, INC.	4029 Westerly Place, Suite 101 ,Newport Beach
16103	AFFORDABLE HOUSING ACCOUNTANTS LTD	1513 Perry Highway ,Portersville
16107	AFFORDABLE HOUSING CLEARINGHOUSE	23861 El Toro Road ,Lake Forest
16108	AFFORDABLE HOUSING CONNECTIONS INC.	400 Selby Ave Ste B ,Saint Paul
16109	AFFORDABLE HOUSING MANAGEMENT, I	330 South Greene Street ,Greensboro
16110	AFFORDABLE HOUSING RESOURCES, INC.	50 Vantage Way, Ste 107 ,Nashville
16111	AFFORDABLE HOUSING, EDUCATION & DEVELOPMENT AHEAD INC.	161 Main Street ,Littleton
16112	AFFORDABLE IMAGE, INC	5030 E Sunrise Dr ,Phoenix
16113	AFFORDABLE INSURANCE NETWORK O	1218 Pulaski Hwy Ste 490 ,Bear
16114	AFFORDABLE INTERIOR SYSTEMS LLC	4 Bonazzoli Avenue ,Hudson
16115	AFFORDABLE INTERIOR SYSTEMS, INC.	4 Robert Bonzzoli Avenue ,Hudson
16116	AFFORDABLE LAW PC	1216 Indiana St Ne ,Albuquerque
16117	AFFORDABLE LUXURY AUTO, INC.	10970 Firestone Road ,Norwalk
16119	AFFORDABLE MARKTAG APPLIANCE REPAIR, INC.	18065 Empire Trail ,Farmington
16121	AFFORDABLE MOVERS	Po Box 353 ,Edmond
16122	AFFORDABLE OPTICAL, INC.	6170 W. Grand Avenue ,Gurnee
16123	AFFORDABLE PET CARE, N.W./INGRAM PARK ANIMAL HOSPITAL	5443 Grissom Road ,San Antonio
16124	AFFORDABLE PORTABLES	3242 Halladay St ,Santa Ana
16126	AFFORDABLE ROOFING, INC.	1500 Dearborn Avenue ,Aurora
16129	AFFORDABLE SIGNS AND BANNERS INC	423 Calvert Ave ,Alexandria
16131	AFFORDABLE SOLUTIONS INC	114 Perimeter Road ,Nashua
16132	AFFORDABLE SOLUTIONS, INC.	3633 136th Pl SE Ste 207 ,Bellevue
16134	AFFORDABLE TOURS.COM	11150 Cash Road ,Stafford
16135	AFFORDABLE TRAVEL OF ORLANDO LLC	35 Middleboro Ct ,Nashville
16140	AFFORDABLE WATER HEATERS & PLUMBING, INC.	28372 Constellation Road ,Valencia
16141	AFFORDABLE WATER SYSTEMS, INC	738 Bantam Rd. ,Bantam
16142	AFFORDABLE WELDING INC	170 Shamrock Industrial Blvd ,Tyrone
16143	AFFORDABLE X-RAY SOURCE, INC.	2229 Solona Street ,Fort Worth
16145	AFFORD-A-CAR, INC.	8973 State Route 201 ,Tipp City
16146	AFFTON TRUCKING CO INC	420 Gimblin Road ,Saint Louis
16147	AFFUSION, INC.	65 Dowlin Forge Road ,Exton
16148	AFFYMAX, INC.	19200 Stevens Creek Blvd. ,Cupertino
16149	AFFYMETRIX, INC	3420 Central Expressway ,Santa Clara
16150	AFG ACQUISITION GROUP, LLC	612 S 45th St E ,Muskogee
16152	AFG FEED LLC	717 West Crawford ,Donalsonville
16153	AFG GROUP INC	590 Herndon Parkway ,Herndon
16154	AFG GROUP LLC	770 Shellstone Pl ,Fort Mill
16156	AFGC INC.	122 Dozier Dr ,Harlem
16157	AFGHAN & ASSOCIATES	4875 SW Griffith Dr., Ste. 300 ,Beaverton
16159	AFGM ENTERPRISES FCU	132 Cayuga Rd ,Cheektowaga
16160	AFGO COUNSELING RESOURCES	1105 Wooded Acres Drive, Suite 270 ,Waco
16161	AFGO MECHANICAL SERVICES, INC.	36-14 32nd Street ,Long Island City
16162	AFI ASSOCIATES INC	2107 NW Filmore Ave ,Corvallis
16163	AFI ASSOCIATES INC.	2107 NW Filmore ,Corvallis
16164	AFI ASSOCIATES, INC.	208 Route 109 ,Farmingdale
16165	AFI INDUSTRIES, INC.	475 East Kehoe Blvd. ,Carol Stream
16166	AFI PARTNERS MANAGEMENT, LLC	158 Mercer Street ,New York
16168	AFILON, INC.	Po Box 60054 ,Rockville
16169	AFIMILK USA INC	5520 Nobel Dr Ste 175 ,Fitchburg
16170	AFINETY, INC.	6345 Balboa Blvd, Suite 370 ,Encino
16171	AFK PARTNERS, LLC	7560 Sawmill Parkway, Suite E ,Powell
16177	AFLAC FEDERAL CREDIT UNION	1932 Wynnton Rd ,Columbus
16178	AFLAC INCORPORATED	1932 Wynnton Road ,Columbus
16179	AFL-CIO APPALACHIAN COUNCIL	501 Leon Sullivan Way ,Charleston
16180	AFL-CIO HOUSING INVESTMENT TRUST	2401 Pennsylvania Ave., No. 200 ,Washington
16181	AFL-CIO INVESTMENT TRUST CORPORATION	815 Connecticut Ave., NW, Suite 320 ,Washington
16182	AFLEX EXTRUSION TECHNOLOGIES INC	1600 Us Route 1 ,North Brunswick
16183	AFLEX HOSE USA LLC	6111 Kellers Church Rd Unit B ,Pipersville
16186	AFM INVESTMENTS, INC.	4667 Highway 9N ,Howell
16187	AFMS	60 South Washington St. ,Greencastle
16188	AFMS TRANSPORTATION MANAGEMENT GROUP	10260 SW Greenburg Rd Ste 1020 ,Portland
16189	AFMWORKSHOP	1434 E 33rd St. ,Signal Hill
16191	AFN, LLC	7230 N. Caldwell Ave. ,Niles
16192	AFNI, INC	404 Brock ,Bloomington
16195	AFO INCORPORATED	17620 Pasture Rd ,Odessa
16197	AFOGNAK NATIVE CORPORATION	3909 Arctic Blvd ,Anchorage
16201	AFOUNDRIA, LLC	8500 Shoal Creek ,Austin
16205	AFP GROUP, INC.	6746 Akron Road ,Lockport
16206	AFP IMAGING CORP.	250 Clearbrook Road ,Elmsford
16207	AFP INDUSTRIES INC.	7900 Whitepine Road ,Richmond
16208	AFR ENTERPRISES INC	Stamford Motorsports ,Stamford
16209	AFRAM IMPORT & EXPORT, INC.	3250 Grand Ave., Suite 202 ,Coconut Grove
16210	AFRAME DIGITAL, INC.	1889 Preston White Dr. ,Reston
16212	AFRAXIS, INC.	11099 North Torrey Pines Road ,La Jolla
16213	AFRICA DIRECT INC	2300 Krameria St ,Denver
16214	AFRICA INLAND MISSION	Po Box 3611 ,Peachtree City
16215	AFRICAN AMERICAN CHAMBER	Koppers Building Suite 2220 ,Pittsburgh
16217	AFRICAN AMERICAN HEALTH COALITION, INC.	2800 N. Vancouver Avenue, Suite 100 ,Portland
16218	AFRICAN AMERICAN IMAGES	P.O. Box 1799 ,Chicago Heights
16219	AFRICAN AMERICAN PLANNING COMMISSION, INC.	P.O. Box 330-704 ,Brooklyn
16221	AFRICAN LEADERSHIP	500 Wilson Pike Circle ,Brentwood
16223	AFRICAN MEDICAL & RESEARCH FOUNDATION INC.	4 West 43rd Street ,New York
16226	AFRICAN-AMERICAN AIDS POLICY	1833 W 8th St Suite 200 ,Los Angeles
16227	AFRICARE, INC.	440 R Street, NW ,Washington
16228	AFRICENTRIC PERSONAL DEVELOPME	1409 E Livingston Ave ,Columbus
16229	AFRICOM	9800 Bren Road East ,Minnetonka
16230	AFRIDI ASSOCIATES	19 W 21st Street ,New York
16234	AFRO AMERICAN COMPANY OF BALTIMORE CITY, INC.	2519 N. Charles Street ,Baltimore
16236	AFS ACCEPTANCE, LLC.	101 NE 3rd Avenue ,Ft Lauderdale
16238	AFS AMERICA INC	3350 Country Club Dr Ste 201 ,Cameron Park
16239	AFS FINANCIAL GROUP, LLC	7700 Old Georgetown Road ,Bethesda
16240	AFS INTERCULTURAL PROGRAMS, INC.	71 West 23rd Street, Fl 6 ,New York
16241	AFS LOGISTICS, LLC	Po Box 18170 ,Shreveport
16242	AFS TECHNOLOGIES HOLDINGS, INC.	2141 East Highland Avenue, ,Phoenix
16243	AFS TECHNOLOGIES INC DBA ADVANCED FOODSYSTEMS	2141 E Highland Ave Ste 100 ,Phoenix
16244	AFS TRINITY POWER CORPORATION	P.O. Box 449 ,Medina
16245	AFS USA	120 Wall Street ,New York
16246	AFS, INC. DBA IRONMAN PARTS & SERVICE	2535 Anselmo Drive ,Corona
16247	AFS, INCORPORATED	11330-C Washington Hwy. ,Ashland
16248	AFS, P.C.	2700 Highway 280 East Suite 370 ,Birmingham
16249	AFSA INC	13012 Tilghman Trail ,Austin
16251	AFSANEH ENTERPRISES, INC.	9910 Irvine Center Drive ,Irvine
16252	AFSCME CONNECTICUT COUNCIL 4	444 E Main Street ,New Britain
16253	AFSCME COUNCIL 76	140 Sheridan Blvd Suite 312 ,Denver
16256	AFSCME COUNCIL 93	P O Box 1279 ,Portland
16259	AFSCME LOCAL 171	1602 S. Park St. #220 ,Madison
16264	AFSCO FENCE SUPPLY CO., INC.	185 Troy-Schenectady Road ,Latham
16265	AFSCO, INC.	120 Erdman Street ,Schofield
16267	AFS-IBEX FINANCIAL SERVICES, INC.	Carter Burgess Plaza ,Fort Worth
16269	AFT CONNECTICUT	35 Marshall Road ,Rocky Hill
16270	AFT CORPORATION	36 Cote Lane ,Portland
16272	AFT MARYLAND	5800 Metro Drive, Suite 100 ,Baltimore
16273	AFT MICHIGAN	2661 East Jefferson Avenue ,Detroit
16274	AFT NEW JERSEY	629 Amboy Ave ,Edison
16279	AFTER DARK FILMS, LLC	6350 Santa Monica Blvd Ste 117 ,Los Angeles
16280	AFTER HOURS ANIMAL EMERGENCY CLINIC, INC.	2680 W. Liberty Street ,Girard
16282	AFTER HOURS CARE OF AMERICUS, INC.	208 A East Lamar Street ,Americus
16283	AFTER HOURS HEATING COOLING AND REFRIGERATION INC	Po Box 50396 ,Myrtle Beach
16285	AFTER HOURS MEDICAL CARE PC	965 Bailey ,Grand Haven
16286	AFTER HOURS PEDIATRIC URGENT CARE CENTER, INC.	1751 Clarkson Road ,Chesterfield
16288	AFTER HOURS PEDIATRICS, PC	9201 Montgomery Boulevard Ne ,Albuquerque
16289	AFTER HOURS POOL SERVICE, INC.	138 Old Beekman Road ,Monmouth Jnct
16290	AFTER HOURS PROJECT, INC.	1204 Broadway ,Brooklyn
16292	AFTER HOURS URGENT CARE, LLC	1220 Walter Reed Rd ,Fayetteville
16293	AFTER MARKET SERVICES, INC DBA A	1712 Ogilvie Park Lane ,Jacksonville
16294	AFTER SCHOOL ACTIVITIES PARTNE	1520 Locust St Ste, 1104 ,Philadelphia
16295	AFTER SCHOOL CLUBS, INC.	276 Soden Drvie ,Oregon
16296	AFTER SCHOOL PROGRAMS, INC	1520 S. Powerline Road ,Deerfield Beach
16297	AFTER SIX , LLC	420 Thornton Road Suite 109 ,Lithia Springs
16298	AFTERBURNER, INC.	55 Ivan Allen Jr., Blvd ,Atlanta
16300	AFTERCARE INC	21 Stonecleave Rd ,Boxford
16301	AFTERCARE NURSING SERVICES, INC.	1680 Walden Avenue ,Cheektowaga
16303	AFTERGLOW DAY SPA, INC.	1431 Riverstone Pkwy Ste 100 ,Canton
16305	AFTERMARKET AUTO PARTS ALLIANCE, INC.	2706 Treble Creek, #100 ,San Antonio
16308	AFTERMARKET SPECIALTIES, INC.	980 Cobb Place NW #100 ,Kennesaw
16309	AFTERMARKET SPECIALTY COMPANY, INC.	182 Sandbank Road ,Cheshire
16311	AFTERMATH SERVICES LLC	75 Executive Drive ,Aurora
16312	AFTER-MOUSE.COM USA, INC.	495 Brickell Ave. ,Miami
16314	AFTER-SCHOOL ALL-STARS	5670 Wilshire Blvd ,Los Angeles
16315	AFTERSCHOOL KIDSCLUBS INC.	Po Box 554 ,New York
16321	AFTON PARTNERS LLC	1615 L Street NW, Suite 1200 ,Washington
16322	AFTON PUMPS, INC.	7335 Avenue N ,Houston
16327	AFTRA HEALTH & RETIREMENT FUNDS	261 Madison Ave 8th Fl ,New York
16328	AFTRA-SAG FEDERAL CREDIT UNION	134 N Kenwood St ,Burbank
16329	AFT-WISCONSIN	6602 Normandy Lane ,Madison
16330	AFUNDRAISING.COM	Post Office Box 1191 ,Haleiwa
16331	AFUSA, INC.	106 Kingsbridge Drive ,Carrollton
16332	AFW FOUNDRY INC.	21020 West Good Hope Road ,Lannon
16333	AFX, INC.	2345 Ernie Krueger Circle ,Waukegan
16334	AFYA, INC.	8101 Sandy Spring Rd Ste 301 ,Laurel
16338	AG 91 ENERGY LLC	Po Box 207 ,Clarkson
16339	A-G ADMINISTRATORS, INC.	860 First Avenue ,King Of Prussia
16340	AG AEGIS COMPANY, INC.	637 North Center Street ,Corry
16342	AG ARCHITECTS PC	643 Central Avenue ,Dover
16343	AG ARCHITECTURE, INC.	1414 Underwood Avenue, Suite 301 ,Wauwatosa
16345	AG ASSOCIATION MANAGEMENT SERVICES, INC.	1521 I Street ,Sacramento
16347	A-G BODY, INC.	Po Box 359 ,Salt Lake City
16348	AG BUSINESS SOLUTIONS, L.L.C.	588 3 Mile Road NW, Suite 203 ,Grand Rapids
16352	AG COMMODITIES, INC.	12815 Stevens Dr ,Tustin
16353	AG COMMUNICATIONS, LLC	909 Church Hill Road ,Fairfield
16354	AG CONCEPTS CORP.	439 E Shore Dr Ste 200 ,Eagle
16355	AG CONNECTIONS, INC	1576 Killdeer Trail ,Murray
16360	AG DESIGN GROUP INC	925 Ygnacio Valley Rd ,Walnut Creek
16364	AG ENGINEERING & CONTRACTING	2030 Louie Lane ,Batavia
16365	AG ENVIRONMENTAL PRODUCTS, L.L.C.	Po Box 2047 ,Omaha
16366	AG EXCAVATING, INC.	1336 Russett Court ,Green Bay
16370	AG FINANCIAL, LLC	2825 East Cottonwood Pkway, St. 500 ,Salt Lake City
16371	AG FORMULATORS, INC.	5151 N Palm Avenue, Suite 920 ,Fresno
16374	AG GLOBAL PRODUCTS, LLC	2202 S. Figueroa St. #225 ,Los Angeles
16375	AG HOSPICE LLC	5502 Fourth Street ,Katy
16376	AG INC	14 Stonecrest Drive ,Saugus
16379	AG INSURANCE SERVICES	1301 30th Ave S Ste 101 ,Fargo
16381	AG LAND MANAGEMENT, INC.	32946 Tyndall Road ,Wesley Chapel
16382	AG LEADER TECHNOLOGY, INC.	2202 S. Riverside Drive ,Ames
16383	AG LINK INCORPORATED	P. O. Box 77 ,Reardan
16384	AG LLC	621 East Pratt Street, Suite 300 ,Baltimore
16387	AG MANAGEMENT SERVICES	442 W Kortsen Rd ,Casa Grande
16389	AG MEDICAL SYSTEMS, INC	13 Prosper Court ,Lake In The Hills
16390	AG MEDNET, INC.	The Pilot House, Lewis Wharf ,Boston
16392	AG PARTNERS COOP	First And Broadway, Po Box 218 ,Goodhue
16393	AG PARTNERS COOPERATIVE, INC.	708 South 10th Street ,Hiawatha
16394	AG PARTNERS, L.L.C.	30 East Main ,Albert City
16395	AG PARTS, LTD	1508 21st St N ,Humboldt
16396	AG PLUS	401 North Main Street ,South Whitley
16397	AG POLYMERS LLC	1 Barker Avenue ,White Plains
16398	AG POWER ENTERPRISES, INC.	P.O. Box C ,Owatonna
16399	AG POWER INC	3501 N Central Expy ,Mckinney
16400	AG PRESS, INC.	1531 Yuma Street ,Manhattan
16401	AG PROCESSING INC	12700 W Dodge Rd ,Omaha
16402	AG PRODUCTION CO.	P.O. Box 1325 ,Turlock
16403	AG PRODUCTION ENTERPRISES, INC.	6564 West County Road 100 North ,Greensburg
16404	AG PROVISION, LLC	277 Faison Mcgowan Rd ,Kenansville
16406	AG RESOURCE MANAGEMENT	2222 Louisa Street ,Rayville
16407	AG RESOURCES, INC.	5030 Midway Rd. ,Richvale
16408	AG RISK CROP INSURANCE, LLC	1700 South First Avenue ,Iowa City
16409	AG RISK MANAGERS INSURANCE AGENCY, LLC	1571 East Division Avenue ,Barron
16411	AG RX	751 South Rose Ave ,Oxnard
16414	AG SEMICONDUCTOR SERVICES LLC	1111 Summer St Fl4 ,Stamford
16415	AG SERV CONSULTING INC	38725 Us Hwy 75 NW ,Stephen
16416	AG SERV WESTERN SALES, INC.	P.O. Box 606 ,Livingston
16417	AG SERVICE, INC.	943 150th ,Hillsboro
16424	AG SOURCE LLC	24995 Diswood Road ,Thebes
16426	AG SPECTRUM CO.	P.O. Box 215 ,Dewitt
16428	AG SUPPLY COMPANY	P. O. Box 599 ,Wenatchee
16429	AG SUPPLY, INC.	616 Andrew Hunter Rd ,Franklinville
16430	AG SYSTEMS INC.	1180 State Hwy 7 East ,Hutchinson
16431	AG TRAC, LLC	1044 State Route 34 ,Genoa
16434	AG VANTAGE SOFTWARE, INC.	107 Wood Lake Drive SE ,Rochester
16436	AG WORLD GROUP, INC.	Po Box 1696 ,Moses Lake
16437	AG WORLD TRANSPORT DBA AIR & GROUND WORLD TRANSPORT	180-A Utah Avenue ,S. San Francisco
16438	AG&E STRUCTURAL ENGINUITY	15280 Addison Road, Suite 310 ,Addison
16440	AG/GAESSER AGENCY INC	1220 Fairport Rd ,Fairport
16445	AGA INC.	9950 Mayland Drive ,Richmond
16446	AGA INSURANCE, INC.	1176 N. Kentucky St ,Kingston
16447	AGA JOHN, INC.	8687 Melrose Avenue, Suite B538 ,Los Angeles
16448	AGA KHAN FOUNDATION U.S.A.	1825 K St NW Ste 901 ,Washington
16450	AGA TRADE ASSOCIATION, INC.	4930 Del Ray Ave ,Bethesda
16451	AGA, INC.	1030 Metropolitan Avenue ,Milton
16453	AGACI, LLC	12460 Network Blvd. Suite 106 ,San Antonio
16454	AGADIA SYSTEMS INC	9 Campus Drive 2nd Floor East ,Parsippany
16457	AGAIN MOBILE LLC	95 Harrison Hill Rd ,Brewster
16459	AG-AIR SYSTEMS, INC.	20690 Carmen Loop, Suite 102 ,Bend
16461	AGAJANIAN, MCFALL, WEISS, TETREAULT & CRIST LLP	346 N. Larchmont Boulevard ,Los Angeles
16469	AGAPE BAPTIST CHURCH DBA AGAPE BOARDING SCHOOL	12998 E 1400 Rd ,Stockton
16470	AGAPE CARE INC.	1690 S. Chambers Rd ,Aurora
16471	AGAPE CHILD & FAMILY SERVICES, INC.	111 Racine Street ,Memphis
16473	AGAPE COUNSELING & THERAPEUTIC SERV ICES. INC.	3221 Commander Shepard Blvd. ,Hampton
16474	AGAPE FAMILY MINISTRIES	22790 SW 112Th Ave ,Miami
16475	AGAPE FOR YOUTH	2621 Dryden Road Suite 202 ,Dayton
16476	AGAPE GLOBAL INVESTMENTS CORPORATION	719 Forest Avenue ,Frankfort
16478	AGAPE HOME CARE INC.	1100 56th Street, Suite 300 ,Kenosha
16479	AGAPE HOMES	1130 Clark Ave Ste 150 277 ,Santa Maria
16480	AGAPE HOSPICE & PALLIATIVE CAR	2980 N Swan Rd Ste 222 ,Tucson
16481	AGAPE IN-HOME CARE LLC	6890 E Sunrise Dr Ste 120-134 ,Tucson
16482	AGAPE INTEGRATED REHAB SERVICES, IN	Dba University Rehabilitation ,Port Orange
16484	AGAPE MANAGEMENT SERVICES, INC.	1053 Center Street ,West Columbia
16485	AGAPE MECHANICAL LLC	26106 Newton Cir ,Elko New Market
16487	AGAPE OF NORTH ALABAMA, INC.	Po Box 3887 ,Huntsville
16488	AGAPE OPTOMETRY CENTER	501 Marin Street, Unit 205 ,Thousand Oaks
16489	AGAPE PET SERVICES	19712 Shepherdstown Pike ,Boonsboro
16490	AGAPE PHYSICAL THERAPY SERVICE	92 West Avenue ,Brockport
16492	AGAPE PODIATRY, INC.	535 E. Smith Rd. ,Medina
16493	AGAPE SALON & SPA	2200 W. 49th Street ,Sioux Falls
16494	AGAPE SOLUTIONS INC.	239 Homewood Drive ,Bolingbrook
16497	AGAPE, INC.	1313 P. Street #205 ,Fresno
16498	AGAR CORPORATION, INC.	5150 Tacoma Drive ,Houston
16499	AGAR MACHINING & WELDING INC.	270 York Avenue ,Pawtucket
16513	AGASSIZ MECHANICAL	6010 53rd Ave S. ,Fargo
16514	AGASSIZ PRESCHOOL, INC	184 Summer St ,Somerville
16516	AGASSIZ VALLEY GRAIN, LLC	Po Box 7 ,Barnesville
16520	AGATE RESOURCES, INC.	1800 Millrace Dr ,Eugene
16522	AGATE, INC.	P. O. Box 117 ,Scottsdale
16524	AGATI, INC.	1219 W. Lake Street ,Chicago
16525	AGAVE ENVIRONMENTAL CONTRACTING, INC.	1634 N. 19th Ave. ,Phoenix
16526	AGAVE FAMILY HEALTH PLLC	3464 E Virgil Dr ,Gilbert
16527	AGAVE FAMILY PHYSICIANS PLLC	21300 N John Wayne Pkwy Ste 12 ,Maricopa
16528	AGAVE HEALTH, INC.	2504 Camino Entrada ,Santa Fe
16529	AGAVE HOLDINGS, LLC	2601 S. Bayshore Drive, Suite 1215 ,Miami
16533	AGAWAM HUNT	P.O. Box 4817 ,East Providence
16534	AGAWAM MEDICAL SUPPLY, CORP.	56 Gen Creighton W. Abrams Dr. ,Agawam
16538	AGB SEARCH, LLC	1133 20th Street Northwest ,Washington
16539	AGB, INC.	722 Huffine Manor Circle ,Franklin
16541	AGBAYANI CONSTRUCTION CORPORATION	88 Dixon Court ,Daly City
16545	AGC ACQUISITION, LLC	106 Evansville Avenue ,Meriden
16548	AGC CHEMICALS AMERICAS, INC.	11175 Cicero Drive ,Alpharetta
16549	AGC CREDIT UNION	1440 Lincoln St ,Kingsport
16550	AGC FLAT GLASS NORTH AMERICA, INC.	11175 Cicero Drive ,Alpharetta
16553	AGC GEORGIA	1940 The Exchange ,Atlanta
16555	AGC LIFE INSURANCE COMPANY	2929 Allen Parkway ,Houston
16556	AGC MANUFACTURING	20701 E. 81st Street, Suite 3 ,Broken Arrow
16557	AGC MANUFACTURING SERVICES, INC.	8415 Datapoint Dr. Ste #750 ,San Antonio
16558	AGC NETWORKS INC.	8201 Ridgepoint Drive ,Irving
16562	AGC OF KENTUCKY, INC.	632 Comanche Trail ,Frankfort
16563	AGC OF MICHIGAN	P.O. Box 27005 ,Lansing
16564	AGC OF NYS, LLC	10 Airline Drive Suite 203 ,Albany
16565	AGC OF TEXAS HIGHWAY, HEAVY UTILITIES & INDUSTRIAL BRANCH	Post Office Box 2185 ,Austin
16567	AGC PRECISION PRODUCTS LLC	3525 Scheele Drive ,Jackson
16568	AGC SERVICES, LLC	3205 Menia Street ,Riva
16569	AGC, INCORPORATED	745-B Camden Avenue ,Campbell
16570	AGCAREERS.COM	208 W Main St ,Clinton
16572	AGCO CORPORATION	4205 River Green Parkway ,Duluth
16574	AGCO, INC.	2782 Simpson Circle ,Norcross
16575	AG-CO., INC.	701 W. State Street ,St. Johns
16576	AG-CON CONSTRUCTION, INC.	580 Harrison St ,San Jose
16580	AGDATA, L.P.	6060 Piedmont Row Drive South ,Charlotte
16582	AGE CONSULTING, INC.	575 Market Street. Suite 2150 ,San Francisco
16583	AGE DEFYING DERMATOLOGY & WELLNESS, INC.	3803 South Bascom Avenue, Suite 200 ,Campbell
16585	AGE INDUSTRIES, LTD	3601Cr 316C ,Cleburne
16592	AGE, INC.	11850 Burke Street ,Santa Fe Springs
16593	AGEAN MARBLE MANUFACTURING	9756 Princeton Glendale Rd ,Cincinnati
16594	AGECROFT ASSOCIATION	4305 Sulgrave Road ,Richmond
16595	AGED IN WOOD	145 W 45th St Fl 7 ,New York
16596	AGED IN WOOD PRODUCTIONS	1801 Century Park East Ste 1080 ,Los Angeles
16597	AGEE CONSTRUCTION CORPORATION	P.O. Box 629 ,Clovis
16600	AGEE INC	1450 Radford Road ,Christiansburg
16601	AGEE, CLYMER, MITCHELL & LARET, L.P.A.	226 North Fifth Street 5 Fl ,Columbus
16602	AGEEFISHERBARRETT, LLC	750 Hammond Drive ,Atlanta
16605	AGEISS INC.	1202 Bergen Parkway, Suite 310 ,Evergreen
16606	AGEL ENTERPRISES LLC	2174 West Grove Parkway Suite 100 ,Pleasant Grove
16608	AGELESS AESTHETICS MEDISPA, INC.	2815 Lexington Avenue ,Ashland
16610	AGELESS LASER & SKINCARE BOUTI	297 Daniel Webster Highway ,Merrimack
16611	AGELESS LIVING HOME HEALTH, LLC	3463 Magic Dr Ste 350 ,San Antonio
16612	AGELESS SKIN INC	10640 Griffin Road ,Cooper City
16613	AGEMARK CORPORATION	1406 Veterans Drive ,Elkhorn
16615	AGENCE FRANCE-PRESSE	1500 K Street NW Suite 600 ,Washington
16617	AGENCIES OF CHANGE, LLC	12404 Park Central Drive, Ste. 400 ,Dallas
16618	AGENCY 212, LLC	112 W 20th St. ,New York
16619	AGENCY ADVISORS, INC.	148 River Street, Suite 202 ,Greenville
16620	AGENCY CONSTRUCTION CORP.	P.O. Box 266 ,Mamaroneck
16621	AGENCY CONSULTING GROUP LLC	5457 Twin Knolls Rd Ste 301 ,Columbia
16622	AGENCY ENTOURAGE	1700 Commerce St Ste 950 ,Dallas
16623	AGENCY FOR COMMUNITY TRANSIT	One Transit Way ,Granite City
16625	AGENCY FOR INSTRUCTIONAL TECHNOLOGY	P O Box A 1800 N Stone Drive ,Bloomington
16626	AGENCY FOR JEWISH LEARNING	2740 Beechwood Boulevard ,Pittsburgh
16627	AGENCY FOR THE PERFORMING ARTS	405 S, Beverly Drive ,Beverly Hills
16629	AGENCY INSURANCE BROKERS, INC.	41 Broad Street ,Plattsburgh
16630	AGENCY INSURANCE CONSULTANTS	222 N. Capitol Way, Suite 101 ,Olympia
16632	AGENCY INSURANCE, INC.	9727 W Woodland Lane ,Boise
16634	AGENCY MARKETING SERVICES, INC	Po Box 22349 ,St. Petersburg
16635	AGENCY OF CREDIT CONTROL INC	2014 S Pontiac Way ,Denver
16636	AGENCY ON AGING OF SOUTH CENTRAL CO NNECTICUT, INC.	1 Long Wharf Dr Ste 1L ,New Haven
16637	AGENCY ONE INSURANCE	594 N. 4th Street ,David City
16641	AGENCY SERVICES OF ARKANSAS IN	11807 Hinson Rd ,Little Rock
16642	AGENCY SERVICES, INC.	7980 Courtyard Plaza ,Memphis
16644	AGENCY TECHNOLOGIES, INC	10250 Alliance Road Ste 115 ,Cincinnati
16646	AGENCY TRADING GROUP, INC.	235 East Lake Street ,Wayzata
16648	AGENCY YU, INC.	6115 Edloe Ste E ,Houston
16649	AGENCYEA	311 West Walton Street ,Chicago
16650	AGENCYNET INTERACTIVE INC.	330 Himmarshee St Ste 111 ,Fort Lauderdale
16651	AGENCYPORT SOFTWARE CORPORATION	51 Sleeper Street ,Boston
16652	AGENCYQ INC	1825 K St NW Ste 500 ,Washington
16654	AGENDIA, INC.	22 Morgan ,Irvine
16655	AGENNIX USA INC.	101 College Road East ,Princeton
16656	AGENT ALLIANCE CORPORATION	2700 W. Centre Avenue ,Portage
16657	AGENT SUPPORT GROUP, INC.	99 Park Avenue ,New York
16658	AGENT SUPPORT SERVICES EAST, INC	19 Park Avenue ,Manhasset
16659	AGENT SUPPORT SERVICES NORTH	565 Taxter Road - Suite 620 ,Elmford
16660	AGENT SUPPORT SERVICES, INC	99 Park Avenue ,New York
16661	AGENT VIDEO INTELLIGENCE INC.	405 Lexington Ave Fl 26 ,New York
16662	AGENT WALL SYSTEMS, INC.	895 Norfolk Square ,Norfolk
16664	AGENT/BROKER REVIEW CO.	Three Lawrence Square ,Springfield
16665	AGENTE TECHNICAL LLC	714 Centerpark Drive ,Colleyville
16667	AGENTOURS, INC.	126 W Portal Ave ,San Francisco
16668	AGENTRICS, LLC	200 W. Monroe Street ,Chicago
16671	AGENTS CHOICE INSURANCE AGENCY	25840 Chardon Road ,Cleveland
16672	AGENTS INSURANCE MARKETS, INC.	8975 Three Chopt Rd ,Richmond
16674	AGENTS MIDWEST, LTD.	775 Mittel Drive ,Wood Dale
16676	AGENTWARE INC.	3 Ravinia Dr Ste 1930 ,Atlanta
16678	AGEOPTIONS, INC.	1048 Lake St Ste 300 ,Oak Park
16679	AGERE PHARMACEUTICALS, INC.	62925 NE 18th St ,Bend
16681	AGERO, INC.	1 Cabot Road ,Medford
16683	AGES & STAGES INC	499 Main Street ,Hampstead
16684	AGETEC, INC.	14567 Big Basin Way, Suite A3 ,Saratoga
16686	AGEWAVE INC.	206 Fond Du Lac Ave ,Sheboygan Falls
16687	AGEWELL HOME CARE, LLC	4570 W 77th St ,Edina
16688	AGEWELL MEDICAL ASSOCIATES, PC	2350 International Circle ,Colorado Springs
16689	AGF BURNER, INC.	1955 Swarthmore Ave. ,Lakewood
16690	AGF MANUFACTURING, INC.	100 Quaker Lane ,Malvern
16691	AGF MEDIA SERVICES	14932 Delano St ,Van Nuys
16692	AGFA CORPORATION	611 River Drive, Center 3 ,Elmwood Park
16694	AGFA MATERIALS CORPORATION	1658 Bushy Park Road ,Goose Creek
16696	AGFIRST FEDERAL CREDIT UNION	4480 Rosewood Drive ,Columbia
16697	AGG ROK MATERIALS CO.	2300 Brown Road ,Grove City
16700	AGGARWAL ALLERGY CLINIC, P.C.	600 N.W. Murray Rd., Suite 306 ,Lees Summit
16704	AGGEUS HEALTHCARE & AGGEUS HEALTHCA	10 S Riverside Plz 19E ,Chicago
16707	AGGIELAND HUMANE SOCIETY	5359 Leonard Rd. ,Bryan
16708	AGGIELAND TITLE CO.	3740 Copperfield Drive, Suite 101 ,Bryan
16710	AGGIETECH INVESTMENTS INC	Po Box 7742 ,Midland
16713	AGGREGATE CONSTRUCTION INCORPORATED	Po Box 239 ,Minot
16714	AGGREGATE CRUSHER SPECIALISTS, INC.	28871 Yosemite Place ,Canyon Lake
16715	AGGREGATE ENTERPRISES INC.	7600 Alico Road #1226 ,Fort Myers
16716	AGGREGATE INDUSTRIES MANAGEMENT, IN	201 Jones Road ,Waltham
16718	AGGREGATE MACHINERY SPECIALIST	P.O. Box 235420 ,Encinitas
16720	AGGREGATE READY MIX OF MINNESOTA	674 Transfer Rd ,St Paul
16723	AGGREGATE RESOURCE INDUSTRIES, INC.	4080 Commercial Ave. ,Springfield
16724	AGGREGATE SCREENS AND CRUSHERS	P.O. Box 205 ,White Marsh
16725	AGGREGATE SOLUTIONS, INC.	244 Armstrong Lane ,Pasadena
16727	AGGREGATE TECHNOLOGIES, INC.	10700 Tower Oaks Blvd. ,Houston
16730	AGGREGATES EQUIPMENT	9 Horseshoe Road ,Leola
16731	AGGREGATES USA, LLC	3300 Cahaba Road, Suite 300 ,Birmingham
16732	AGGREGATES WEST, INC.	Po Box 1466 ,Sumas
16733	AGGREKO, LLC	4607 West Admiral Doyle Drive ,New Iberia
16734	AGGRESSIVE ENGINEERING CORPORATION	1235 Knollwood Cir ,Anaheim
16735	AGGRESSIVE ENGINEERING INC	2161 107th Ln ,Blaine
16736	AGGRESSIVE GRINDING SERVICE, INC.	4413 Route 982 South ,Latrobe
16738	AGGRESSIVE HYDRAULICS, INC.	18800 Ulysses St Ne ,Cedar
16741	AGGRESSIVE MAC CO LLC	3411 Windsor Rd ,Wall
16743	AGGRESSIVE MEDICAL COST CONTAINMENT, INC.	540 Frontage Road ,Northfield
16744	AGGRESSIVE TOOL & DIE INC.	728 Main Street ,Coopersville
16745	AGGRESSIVE TOOL & DIE, INC.	P.O. Box 335 ,Buckner
16746	AGGRESSIVE TOOLING, INC.	608 Industrial Park Drive ,Greenville
16750	AGHABEGIAN & ASSOCIATES , A PROFESSIONAL CORPORATION	500 N. Brand Blvd. Suite 1270 ,Glendale
16752	AGI AVANT INC.	100 Bush Street ,San Francisco
16753	AGI CAPITAL GROUP, INC.	100 Bush Street ,San Francisco
16754	AGI CORPORATION	P.O. Box 795 ,Madison
16755	AGI INDUSTRIES, INC.	Po Box 3604 ,Lafayette
16761	AGI VR WESSON INC	2673 NE 9th Ave ,Cape Coral
16763	AGIE CHARMILLES LLC	560 Bond Street ,Lincolnshire
16764	AGILE ACCESS CONTROL, INC.	13720 Charity Court ,Germantown
16766	AGILE BUSINESS MEDIA, LLC	1300 S Grove Ave Ste 105 ,Barrington
16768	AGILE COMPUTER TECHNOLOGIES CORPORATION	135 Eaton Dr. ,Wayne
16770	AGILE DEFENSE	11250 Waples Mill Rd ,Fairfax
16771	AGILE ENERGY LLC	1001 Bayhill Drive ,San Bruno
16774	AGILE HEDGE SOLUTIONS, LLC	2185 N. California Blvd., Suite 260 ,Walnut Creek
16776	AGILE INTRASTRUCTURE SERVICES, LLC	Po Box 459 ,Smelterville
16779	AGILE MIND EDUCATIONAL HOLDINGS INC.	4101 William D Tate Ave Ste 220 ,Grapevine
16780	AGILE OAK	24 Edison Terrace ,Sparta
16781	AGILE PARTNERS TECHNOLOGIES, LLC	268 Bush Street ,San Francisco
16782	AGILE PHYSICAL THERAPY, INC.	3825 El Camino Real ,Palo Alto
16784	AGILE RESOURCES, INC	1000 Windward Concourse ,Alpharetta
16786	AGILE SEISMIC, LLC	10590 Westoffice Dr., Ste. 250 ,Houston
16787	AGILE SOFTWARE & MKTG., INC.	3075 Alhambra Dr., Ste. 207 ,Cameron Park
16789	AGILE SOURCING PARTNERS, INC.	2385 Railroad Street ,Corona
16790	AGILE SPORTS TECHNOLOGIES, INC. DBA HUDL	151 N 8th St ,Lincoln
16791	AGILE SUPPLY CHAIN STRATEGIES, LLC	1497 South 700 West ,Salt Lake City
16792	AGILE SYSTEMS, LLC	227 Bellevue Way Suite 210 ,Bellevue
16793	AGILE TECHNOLOGIES, INC.	10337 Yellow Pine Ln ,Knoxville
16795	AGILE TECHNOLOGIES, LLC	685 Route 202/206 ,Bridgewater
16796	AGILE TECHNOLOGY GROUP, INC.	7001 Wells Pkwy ,Hyattsville
16797	AGILE THERMAL TECHNOLOGIES, INC.	3663 North Laughlin Road ,Santa Rosa
16798	AGILE TICKETING SOLUTIONS	4124 Central Pike ,Hermitage
16799	AGILE TRANSFORMATION, INC.	10730 Pacific Street #233 ,Omaha
16800	AGILE VELOCITY	1801 Purple Sage Dr ,Cedar Park
16801	AGILE, INC.	1250 Linda Street - Suite 102B ,Rock River
16802	AGILE5 TECHNOLOGIES, INC.	3129 Sylvan Cir ,Morgantown
16803	AGILEASSETS INC	3001 Bee Caves Rd Ste 200 ,Austin
16805	AGILENCE INC	1020 Briggs Rd # 110 ,Mount Laurel
16807	AGILENT TECHNOLOGIES, INC.	5301 Stevens Creek Blvd ,Santa Clara
16810	AGILEPATH COPORATION	38 Merrimac Street, Suite 201 ,Newburyport
16811	AGILESOFT, INC.	3700 S Westport Ave #2140 ,Sioux Falls
16812	AGILETEK, LLC	1400 E. Touhy #310 ,Des Plaines
16813	AGILETICS, INC.	585 S Ronald Reagan Blvd Suite 113 ,Longwood
16814	AGILEX FLAVORS & FRAGRANCES, INC.	140 Centennial Ave ,Piscataway
16815	AGILEX TECHNOLOGIES, INC.	5155 Parkstone Dr ,Chantilly
16816	AGILIANCE INC	840 W California Ave Suite 240 ,Sunnyvale
16817	AGILIANT, INC.	620 Kirkland Way ,Kirkland
16822	AGILITEC IT LLC	7220 S Cimarron Rd Ste 150 ,Las Vegas
16825	AGILITY CABLE INC.	55 Broad Street - 6th Floor ,New York
16826	AGILITY CLINICAL, INC.	6005 Hidden Valley Road Ste 170 ,Carlsbad
16827	AGILITY CONSTRUCTION, LLC	1325 G Street NW Suite 500 ,Washington
16829	AGILITY ENTERPRISES, INC.	2711 Alpine Rd Suite 220 ,Columbia
16830	AGILITY FUEL SYSTEMS	1815 Carnegie Ave ,Santa Ana
16831	AGILITY HEALTH LLC	607 Dewey NW Ave ,Grand Rapids
16833	AGILITY IP LAW, LLP	149 Commonwealth Drive, Suite 1033 ,Menlo Park
16834	AGILITY LOGISTICS CORP.	240 Commerce ,Irvine
16835	AGILITY LOGISTICS US INC.	512 Autumn Springs Ct ,Franklin
16836	AGILITY MEDICAL GROUP, LLC	3112 Cooke Way ,Oklahoma City
16837	AGILITY MULTICHANNEL	414 N. Orleans Street ,Chicago
16838	AGILITY PARTNERS, INC.	550 Worcester Road, Suite 7 ,Framingham
16839	AGILITY RECOVERY SOLUTIONS, INC.	2101 Rexford Rd. ,Charlotte
16842	AGILITY, INC.	7000 Fitzwater Road, Suite 220 ,Brecksville
16843	AGILITYHR, INC.	616 Water Street, Ste 225 ,Baltimore
16845	AGILIX CORPORATION	Po Box 8175 ,New Haven
16846	AGILLENCE, INC.	11600 Sunrise Valley Dr Ste 470 ,Reston
16847	AGILOC INTERNATIONAL, INC.	100 North Hill Drive #51 ,Brisbane
16848	AGILOFT, INC.	460 Seaport Court, Suite 200 ,Redwood City
16849	AGILON, LLC	3801 Beverly Road, S.W. ,Cedar Rapids
16850	AGILONE LLC	1091 N Shoreline Blvd Ste 250 ,Mountain View
16851	AGILQUEST CORPORATION	9407 Hull St. Rd. ,Richmond
16854	AGILUX LABORATORIES INC	1 Innovation Dr Ste 13 ,Worcester
16857	AGINCOURT CAPITAL MANAGEMENT, LLC	200 South 10th Street, Suite 800 ,Richmond
16858	AGINCOURT PARTNERS, LLC	21 C Orinda Way, #125 ,Orinda
16859	AGINCOURT WALLBOARD, LLC	Po Box 184 ,Londonderry
16862	AGING IN AMERICA	1500 Pelham Parkway ,Bronx
16863	AGING IN AMERICA COMMUNITY SERVICES INC	1500 Pelham Parkway ,Bronx
16864	AGING MATTERS IN BREVARD	3600 King St Ste 1 ,Cocoa
16865	AGING NETWORK SERVICES, LLC	10265 Gainsborough Road ,Potomac
16866	AGING PROJECTS, INC.	112 W. Sherman Street ,Hutchinson
16867	AGING SERVICES OF CALIFORNIA	1315 I St., Suite 100 ,Sacramento
16868	AGING SERVICES, INC.	1055 Oak Street, Po Box 519 ,Indiana
16870	AGING WELL HEALTH CARE, LLC	7212-7216 Balson Avenue ,St. Louis
16871	AGING WISDOM, INC.	500 Wall Street, Suite 322 ,Seattle
16874	AGINOVA INC	3 Chambry Ct ,Freehold
16876	AGION TECHNOLOGIES, INC.	60 Audubon Road ,Wakefield
16877	AGIOS PHARMACEUTICALS	38 Sidney Street ,Cambridge
16878	AGIS NETWORK INC	2122 Kratky Rd ,Saint Louis
16879	AGIS, LLC	16 Poplar Street ,Ambler
16881	AGISSAR CORPORATION	526 Benton St ,Stratford
16882	AGISTIX INC	66 Bovet Road ,San Mateo
16883	AGITAR SOFTWARE, INC.	532 Colorado Avenue ,Santa Monica
16885	AGJUNCTION	2207 Iowa Street ,Hiawatha
16889	AGL CORPORATION	2202 Redmond Road ,Jacksonville
16890	AGL MARKETING, INC.	622 Bloomfield Avenue ,Bloomfield
16891	AGL RESOURCES, INC.	10 Peachtree Place ,Atlanta
16894	AGL WELDING SUPPLY CO., INC.	600 Rt 46 West Pobox 1707 ,Clifton
16897	AGLAND CO-OP	115 South First ,Parkston
16898	AGLAND, INCORPORATED	260 Factory Rd ,Eaton
16899	AGLER & GAEDDERT, CHARTERED	1225 W. 6th Avenue ,Emporia
16901	AGM AUTOMOTIVE, LLC	1708 Northwood Drive ,Troy
16902	AGM CALIFORNIA	1400 Easton Drive ,Bakersfield
16904	AGM FINANCIAL SERVICES, INC.	20 South Charles Street, Suite 1000 ,Baltimore
16905	AGM INSURANCE AGENCY, INC.	1301 East Broward Blvd ,Fort Lauderdale
16906	AGM PARTNERS LLC	277 Park Ave Ste 5000 ,New York
16907	AGM, INC.	1518 1st Ave South ,Seattle
16910	AGMA HEALTH FUND	1430 Broadway ,New York
16911	AGMARK	204 East Court ,Beloit
16912	AGMARK INTERMODAL SYSTEMS, INC.	222 2nd Avenue North, Suite 311 ,Nashville
16913	AG-MART PRODUCE INC	4006 Airport Road ,Plant City
16914	AG-MEIER INDUSTRIES LLC	920 E 6th Ave ,Belton
16915	AGMET LLC	7800 Medusa Street ,Oakwood Village
16917	AGMOTION, INC.	730 2nd Avenue S. ,Minneapolis
16918	AGMUS VENTURES, INC.	5575 S. Semoran Blvd, Ste 505 ,Orlando
16919	AGN INTERNATIONAL NORTH AMERICA INC	2851 S Parker Rd Ste 850 ,Aurora
16920	AGNALDOS	Po Box 154 ,Tipton
16921	AGNES B. FUENTES, DDS, PC	2445 Army Navy Drive, Ste 100 ,Arlington
16922	AGNES CORPORATION	1145 Park Drive ,Owatonna
16927	AGNES SCOTT COLLEGE	141 E. College Ave ,Decatur
16930	AGNESIAN HEALTHCARE, INC.	430 East Division ,Fond Du Lac
16931	AGNETO, INC.	2050 State Route 27 Ste 209 ,North Brunswick
16933	AGNEW ASSOCIATES, INC.	3223 South Loop 289, Ste 320 ,Lubbock
16934	AGNEW BECK CONSULTING, LLC	441 W. 5th Avenue ,Anchorage
16936	AGNEW LAKE SERVICES, INC.	Po Box 227 ,Ballentine
16937	AGNI CONSULTING, INC.	1851 Mc Carthy Blvd., Suite 100 ,Milpitas
16938	AGNICO-EAGLE USA LIMITED	1675 East Prater Way ,Sparks
16939	AGNIEL COMMODITIES LLC	11 South Angell Street ,Providence
16940	AGNIK LLC	8840 Stanford Blvd Ste 1300 ,Columbia
16942	AGNINI ORTHODONTICS	39863 U.S. Highway 27 ,Davenport
16944	AGNITY, INC	42808 Christy St Suite 201 ,Fremont
16945	AGNOLI SIGN CO., INC.	722 Worthington Street ,Springfield
16946	AGNOLI, BARBER & BRUNDAGE, INC.	7400 Tamiami Trail North, Suite 200 ,Naples
16950	AGOGO INTERACTIVE CORPORATION	2-26 50th Ave Ste. 12E ,Long Island City
16951	AGOOS/LOVERA ARCHITECTS	One South Broad Street ,Philadelphia
16952	AGORA GROUP, INC.	1014 North Rope Drive ,Atlanta
16953	AGORA LEATHER PRODUCTS	2101 28th Street North ,St. Petersburg
16956	AGORA TIRE, INC	1606 Chestnut Grove Lane ,Kingwood
16957	AGORA, INC.	3920 N. Lake Shore Drive #6S ,Chicago
16958	AGOSTINI & ASSOCIATES, INC.	3200 Devine St., Ste 200 ,Columbia
16960	AGOSTINO ANTIQUES LTD	19 Castor Place ,Staten Island
16961	AGOSTO CONSULTING GROUP, INC	420 N 5th St Suite 400 ,Minneapolis
16964	AGOURA LOCK TECHNOLOGIES INC	29134 Roadside Dr #108 ,Agoura Hills
16965	AGOURA MOTOR CAR CO.	60 Cunningham Road ,Thousand Oaks
16968	AGOURON INSTITUTE	1055 E. Colorado Blvd., Suite 250 ,Pasadena
16969	AGOVINO & ASSELTA, LLP	330 Old Country Road, Suite 201 ,Mineola
16970	AGP CORN PROCESSING, INC.	Po Box 2047 ,Omaha
16971	AGP GRAIN MARKETING, LLC	12700 W Dodge Rd ,Omaha
16972	AGP GRAIN, LTD.	Po Box 2047 ,Omaha
16976	AGP, INC.	240 New York Drive / Suite 1 ,Fort Washington
16982	AGPRO SYSTEMS, INC.	242 Private Road 3341 ,Big Sandy
16984	AGPS ARCHITECTURE, INC.	6009 Rodgerton Drive ,Los Angeles
16987	AGR BUILDING, INC	1035 Pearl Street, Suite 205 ,Boulder
16989	AGR GROUP AMERICAS, INC.	16420 Park Ten Place Suite 300 ,Houston
16990	AGR INTERNATIONAL, INC.	615 Whitestown Road ,Butler
16991	AGR VENTURES, INC.	213 Rhododendron Drive ,Beech Mountain
16993	AGRA CONSTRUCTION CO.	107 W Main St ,Little Chute
16996	AGRA INDUSTRIES, INC.	1211 W. Water Street ,Merrill
16997	AGRA KEY SOLUTIONS, LLC	329 S. 417 E. ,Jerome
16999	AGRA TECH, INC.	2131 Piedmont Way ,Pittsburg
17000	AGRA TRADING, INC.	P.O. Box 15120 ,Jackson
17001	AGRA TRADING, LLC	60 Independence Circle, Suite 203 ,Chico
17002	AGRACAST, INC.	11149 N. Torrey Pines Road ,San Diego
17003	AGRACE HOSPICECARE	5395 E Cheryl Parkway ,Madison
17004	AGRACEL, INC.	2201 Willenborg Avenue ,Effingham
17006	AGRAFORM, LLC	133 East Krauss Street ,St. Louis
17007	AGRALYTICA, INC.	333 N Fairfax Street, Suite 202 ,Alexandria
17009	AGRANA FRUIT US, INC.	6850 Southpointe Pkwy ,Brecksville
17010	AGRANDAR ASSOCIATES, INC.	4323 N. 12Th St., Suite 103 ,Phoenix
17012	AGRAQUEST, INC.	890 Embarcadero Drive ,West Sacramento
17013	AGRARIAN MARKETING CORPORATION	801-7 West Wayne Street ,Middlebury
17014	AGRATRONIX, LLC	10375 State Route 43 ,Streetsboro
17015	AGREBON INC	857 St Andrews Lane ,Louisville
17017	AGREDANO REYNOSO INSURANCE SER	1026 E Valley Parkway ,Escondido
17018	AGREEYA SOLUTIONS, INC	605 Coolidge Dr ,Folsom
17020	AGRELIANT GENETICS, LLC	1122 East 169th Street ,Westfield
17021	AGREN APPLIANCE SERVICE CORP.	40 Minot Avenue ,Auburn
17022	AGREN LAW FIRM, PC	2600 Michelson, Suite 850 ,Irvine
17023	AGREN-BLANDO COURT REPORTING & VIDEO, INC.	216 16th Street, Suite 650 ,Denver
17024	AGRESEARCH INTERNATIONAL LLC	5430 Lbj Fwy Ste 1200 ,Dallas
17027	AGREX, INC.	10975 Grandview Drive, Suite 200, ,Overland Park
17028	AGREXCO U.S.A. LTD.	C/O Katzman, Weinstein And Co., Llp ,Jericho
17030	AGRI BEEF CO.	1555 Shoreline Drive, Ste 320 ,Boise
17035	AGRI COMMODITY TRADE, LLC	80 S.W. 8 Street ,Miami
17036	AGRI CO-OP	310 Logan Street ,Holdrege
17038	AGRI ELECTRIC, INC.	11011 Midway ,Chico
17039	AGRI ENERGY RESOURECES, LLC	21417 1950 East Street ,Princeton
17040	AGRI INDUSTRIAL SUPPLY, INC.	3708 Cherry Road ,Memphis
17043	AGRI INSURANCE, INC.	3860 170th Avenue Southwest ,Beach
17044	AGRI LABORATORIES, LTD.	Po Box 3103 ,St. Joseph
17045	AGRI MARKETING, INC.	1403 Hwy. 67 ,Hoxie
17046	AGRI PROCESS INNOVATIONS, INC.	1012 E 22nd Street ,Stuttgart
17047	AGRI PRODUCERS, INC.	P. O. Box 25 ,Tampa
17049	AGRI SEED TESTING, INC.	1930 Davcor Court S.E. ,Salem
17050	AGRI SERVICE, INC.	3720 Oceanic Way ,Oceanside
17051	AGRI STAR MEAT & POULTRY LLC	220 N West Street ,Postville
17053	AGRI, INC.	934 Lowery Road ,Arab
17054	AGRIAN, INC	2665 N Air Fresno Dr Ste 101 ,Fresno
17055	AGRI-ANALYTICS, INC.	6708 Virgilia Court ,Raleigh
17059	AGRICAP FINANCIAL CORPORATION	1010 Cass Street Ste D8 ,Monterey
17060	AGRICAPITAL CORPORATION	1410 Broadway, Suite 1802 ,New York
17061	AGRICARE FARM MANAGEMENT, INC.	1415 S. Monroe Ave. ,Mason City
17063	AGRICARE, INC.	900 W Grand Avenue ,Porterville
17064	AGRI-CHECK, INC	3407 W 47th Avenue ,Kennewick
17071	AGRICULTURAL ALUMNI SEED IMPROVEMENT ASSOCIATION, INC.	P.O. Box 158 ,Romney
17075	AGRICULTURAL CONSULTING SERVICE	730 Warren Road ,Ithaca
17077	AGRICULTURAL ENGINEERING ASSOCIATES, INC.	Po Box 4 ,Uniontown
17079	AGRICULTURAL MANUFACTURING & TEXTILES, INC.	1451 Stagecoach Road ,Laurens
17080	AGRICULTURAL MANUFACTURING COM	Company Inc ,Fresno
17085	AGRICULTURAL TECHNOLOGY CO INC	5245 W Olive Knoll ,Hastings
17086	AGRICULTURAL WORKERS MUTUAL AUTO INSURANCE CO	P.O. Box 88 ,Fort Worth
17088	AGRICULTURE & PRIORITY POLLUTANTS LABORATORIES, INC.	908 N. Temperance Avenue ,Clovis
17089	AGRICULTURE FCU	1400 Independence Ave Sw ,Washington
17090	AGRICULTURE INDUSTRIES, INC.	P.O. Box 1076 ,West Sacramento
17091	AGRI-DAIRY PRODUCTS, INC.	3020 Westchester Ave., Suite 308 ,Purchase
17092	AGRIDATA, INC.	Po Box 8372 ,Grand Forks
17094	AGRI-EXOTIC TRADING INC	700 Route 46 West ,Clifton
17095	AGRI-FAB & REPAIR INC	7695 Big Tree ,Pavilion
17096	AGRI-FINE CORPORATION	2701 East 100th Street ,Chicago
17097	AGRI-FOOD SOLUTIONS, INC.	1710 Old Second Road North ,Phelpston
17101	AGRI-GRAPHICS LTD	W6599 Hwy 39 ,New Glarus
17102	AGRI-GRO MARKETING, INC.	Hc 4 Box 333 ,Doniphan
17104	AGRI-KING, INC.	18246 Waller Road ,Fulton
17105	AGRILAWN, INC.	P.O. Box 271792 ,Oklahoma City
17107	AGRILOGIC INSURANCE SERVICES, LLC	1000 Ballpark Way Ste 314 ,Arlington
17111	AGRI-MECH INC	17 S Melbourne St ,Beverly Hills
17113	AGRINETIX COMPUTING SYSTEMS, LLC	1634 Monroe Avenue ,Rochester
17114	AGRINOMIX, LLC	300 Creekside Drive ,Oberlin
17115	AGRINOS, INC	820 S Macarthur Blvd ,Coppell
17116	AGRI-NUTRITION CONSULTING INC	4095 Gray Road ,De Forest
17119	AGRI-PARTNERS COOPERATIVE	C/O Retirement Strategies, Llc ,Little Chute
17121	AGRI-POWER, INC.	P.O. Box 538 ,Hopkinsville
17123	AGRI-SALES ASSOCIATES, INC.	209 Louise Avenue ,Nashville
17124	AGRISERV, INC.	2881 Highway 44 ,Panora
17125	AGRI-SERVICE NORTHWEST	P.O. Box 299 ,Eltopia
17126	AGRI-SERVICE, INC.	3204 Kimberly Road East ,Twin Falls
17127	AGRI-SERVICE, LLC	11606 Greencastle Pike ,Hagerstown
17128	AGRISERVICES AGENCY LLC	5001 Brittonfield Pkwy ,East Syracuse
17129	AGRISERVICES OF BRUNSWICK LLC	P.O.Box 38 ,Brunswick
17133	AGRISOURCE, INC.	P.O. Box 1000 ,Burley
17136	AGRI-STARTS, INC	1728 Kelly Park Road ,Apopka
17140	AGRITECH INTERNATIONAL LTD DBA CLEANTECH ENVIRONMENTAL INC.	5820 Martin Road ,Irwindale
17141	AGRITEK INDUSTRIES, INC.	4211 Hallacy Dr ,Holland
17144	AGRIUM ADVANCED TECHNOLOGIES U.S. INC.	2915 Rocky Mountain Ave, Ste 400 ,Loveland
17145	AGRIUM U.S. INC.	4582 S Ulster Street, Suite 1700 ,Denver
17146	AGRI-VALLEY COMMUNICATIONS, INC.	7585 W. Pigeon Rd. ,Pigeon
17147	AGRI-VALLEY IRRIGATION, INC.	P.O. Box 11881 ,Fresno
17150	AGRIVIDA INC	200 Boston Avenue ,Medford
17152	AGRI-WOOD PRODUCTS LTD.	P.O. Box 149 ,Crawford
17154	AGRO ENGINEERING, INC.	0210 Country Road 2 South ,Alamosa
17155	AGRO HOLDINGS	3801 SW 30th Ave ,Fort Lauderdale
17156	AGRO RESOURCES, INC	Po Box 2933 ,Kamuela
17158	AGROCHEM INC	3 Duplainville Road ,Saratoga Springs
17165	AGROMATIC, INC.	C/O Retirement Strategies, Llc ,Little Chute
17169	AGROPUR INC.	3500 East Destination Drive ,Appleton
17170	AGROTECH RESEARCH INCORPORATED	44371 North El Macero Drive ,Davis
17172	AGRU/AMERICA, INC.	500 Garrison Road ,Georgetown
17173	AGRUME INC.	430 Broome Street ,New York
17176	AGS CONSULTING, LLC.	8 Austin Avenue ,Iselin
17178	AGS HEALTH, INC.	19 W 34th St Rm 912 ,New York
17180	AGS INC	5 Freelon Street ,San Francisco
17181	AGS LLC	6680 Amelia Earhart Court ,Las Vegas
17183	AGS SCIENTIFIC, INC.	1511 Texas Avenue South #270 ,College Station
17185	AGS STAINLESS, INC.	7873 N.E. Day Rd. ,Bainbridge Island
17187	AGS, INC	515. S Flower Street, Suite 1050 ,Los Angeles
17188	AGS, LLC	6680 Amelia Earhart Court ,Las Vegas
17191	AG-SEEDS UNLIMITED	28 North East Street ,Woodland
17193	AGSYNC, INC.	29769 Cr 40 ,Wakarusa
17194	AGT AND ASSOCIATES INC.	23 James Avenue ,Kendall Park
17197	AGTEK DEVELOPMENT COMPANY, INC	396 Earhart Way ,Livermore
17198	AGUA AZUL, CORP.	777 Foxhound Drive ,Port Orange
17200	AGUA PROMOTIONS CORP.	Post Office Box 463 ,Baldwin
17208	AGUIAR LAW OFFICE, PLLC	1201 Story Avenue ,Louisville
17210	AGUILA YOUTH LEADERSHIP INSTIT	3030 N 3rd St #970 ,Phoenix
17211	AGUILA, INC.	665 Cauldwell Avenue ,Bronx
17212	AGUILERA INTERNATIONAL COUNSEL	Ste D-140 ,Phoenix
17213	AGUIRRE & FIELDS, LP	12999 Jess Pirtle, Ste. 100 ,Sugar Land
17214	AGUIRRE ENGINEERING INC	8363 Center Drive Suite 5A ,La Mesa
17216	AGUIRRE RODEN, INC.	10670 N Central Expwy ,Dallas
17217	AGURTO CORPORATION DBA PESTEC	1804 Sanger Peak Ct ,Antioch
17218	AGUSTA CORPORATION	23737 Van Born Road ,Taylor
17219	AGUSTAWESTLAND NORTH AMERICA, INC.	11700 Plaza America Drive, ,Reston
17220	AGUSTAWESTLAND PHILADELPHIA CORPORATION	3050 Red Lion Road ,Philadelphia
17222	AGUSTAWESTLAND, INC.	2345 Crystal Drive ,Arlington
17226	AGUSTIN REYES, INC.	2307 West 77th Street ,Hialeah
17229	AGVENTURES LLC	215 Ingersoll Rd ,Fultonville
17230	AGVENTURES NW, LLC	2 N. Division St. ,Odessa
17231	AGVENTURES, LLC	720 N. Main Street ,Oconto Falls
17232	AGVISE LABORATORIES, INC	P.O. Box 510 ,Northwood
17233	AGWAY SYSTEMS, INC.	12959 Ronaldson Road ,Baton Rouge
17234	AGWAY WIDEWATERS CORPORATION	530 E. Herndon Ave., Suite 101 ,Fresno
17235	AGWAY WIDEWATERS CORPORATION DEFINED BENEFIT PLAN	4055 E Third Ave ,Post Falls
17236	AGWAY, INC.	308 Maltbie St., Suite 100 ,Syracuse
17237	AG-WEST DISTRIBUTING COMPANY INC.	199 W 2nd N ,Burley
17238	AGWEY METAL DESIGNS, INC.	206 South Meadow Road ,Plymouth
17241	AGWORKS, L.L.C.	203 W. 8th Avenue, Lb 14045 ,Amarillo
17242	AGX, INC.	207 Pine Creek Road ,Wexford
17244	AGY HOLDING CORP	2556 Wagener Rd ,Aiken
17248	AH CAPITAL MANAGEMENT, L.L.C.	2865 Sand Hill Road, Suite 100 ,Menlo Park
17249	AH ENVIRONMENTAL CONSULTANTS, INC.	11837 Rock Landing Drive, Suite 300 ,Newport News
17251	AH INDUSTRIES INC	Po Box 2533 ,Blasdell
17252	AH INDUSTRIES, INC.	6401 Pumpkin Ridge Drive ,Windsor
17253	AH JORDAN PLUMBING AND MECHANICAL LLC	1818 New York Avenue NE Suite 113 ,Washington
17255	AH SERVICE CORPORATION DBA ALIMAK HEK	6801 Cahaba Valley Road - Suite 210 ,Birmingham
17260	AHA HOCKEY	6901 Limerick Lane ,Edina
17262	AHA PROCESS, INC	P.O. Box 727 ,Highlands
17263	AHA PUNANA LEO	96 PuUhonu Place ,Hilo
17264	AHA SALES INC	P O Box 688 ,East Northport
17269	AHARONI & STEELE INC	491 Laurelwood Road ,Santa Clara
17272	AHB TOOLING & MACHINERY, INC.	1658 Champagne Drive North ,Saginaw
17273	AHBL, INC.	2215 N 30th St, Suite 300 ,Tacoma
17275	AHC MEDIA LLC	950 E Paces Ferry Rd NE Suite ,Atlanta
17276	AHC, CORPORATION	4761 Rancho Del Mar Trail ,San Diego
17277	AHC, INC.	2230 North Fairfax Dr., Ste 100 ,Arlington
17280	AHD VINTNERS, LTD.	27470 Gloede ,Warren
17281	AHD, INC.	3 Bethesda Metro Center, Suite 110 ,Bethesda
17301	AHEAD HUMAN RESOURCES, INC.	2209 Heather Lane ,Louisville
17305	AHEAD HUMAN RESOURCES, INC. ALPHA LABORATORY SERVICES	2209 Heather Lane ,Louisville
17307	AHEAD HUMAN RESOURCES, INC. GOLDEN CARE SERVICES	2209 Heather Lane ,Louisville
17308	AHEAD HUMAN RESOURCES, INC. HELPING HANDS CAREGIVERS	2209 Heather Lane ,Louisville
17313	AHEAD HUMAN RESOURCES, INC./ EQUITY RESOURCES	2209 Heather Lane ,Louisville
17315	AHEAD HUMAN RESOURCES, INC./ SMITH SMITH	2209 Heather Lane ,Louisville
17316	AHEAD HUMAN RESOURCES, INC./ UNIQUE STAFFING	2209 Heather Lane ,Louisville
17319	AHEAD HUMAN RESOURCES, INC./INDIANA CAVERNS	2209 Heather Lane ,Louisville
17322	AHEAD HUMAN RESOURCES, INC./SMITH ASSOCIATES	2209 Heather Lane ,Louisville
17339	AHEAD LLC	150 S. Wacker Drive ,Chicago
17341	AHEAD OF HAIR INC	Po Box 516 ,Midlothian
17342	AHEAD, INC.	270 Samuel Barnet Boulevard ,New Bedford
17343	AHEAD, LLC	270 Samuel Barnet Boulevard ,New Bedford
17344	AHEARN ELECTRIC, INC.	4843 Auto Center Way ,Bremerton
17345	AHEARN HOLTZMAN INC.	530 Willett Avenue ,Port Chester
17346	AHEARN, JASCO & COMPANY, P.A.	190 S. E. 19th Avenue ,Pompano Beach
17348	AHEPA MANAGEMENT COMPANY, INC.	10706 Sky Prairie Street ,Fishers
17350	AHERN & AHERN	One Main Street ,Kings Park
17351	AHERN & ASSOCIATES, LTD.	2198 E. Camelback Rd., Suite 210 ,Phoenix
17352	AHERN & KILL	430 N. Old Woodward, ,Birmingham
17354	AHERN AGRIBUSINESS, INC.	9465 Customhouse Plaza, Suite G ,San Diego
17355	AHERN BLUEPRINTING, INC.	231 Highway 71 ,Manasquan
17356	AHERN HANGEN FUNERAL HOME, INC.	180 Farmington Avenue ,Hartford
17362	AHERN, ADCOCK, DEVLIN LLP	2155 Chicago Avenue, Suite 100 ,Riverside
17364	AHERN-GROSS, INC.	218 S. Main Street P. O. Box 2017 ,Fond Du Lac
17365	AHF INDUSTRIES, INC.	Po Box 391 ,French Lick
17366	AHG, INC.	1000 N Us Hwy 1, Unit E102 ,Jupiter
17369	AHI CONSTRUCTION INC	751 Northport Dr Suite H ,West Sacramento
17372	AHI PROPERTIES, INC.	555 E. Ocean Blvd., Suite 900 ,Long Beach
17373	AHJ ENGINEERS, P.C.	5418 N. Eagle Road #140 ,Boise
17377	AHLBORN EQUIPMENT, INC.	Po Box 500 248 West Main Street ,Sayner
17378	AHLBORN FENCE & STEEL, INC.	1230 Century Ct ,Santa Rosa
17380	AHLERS & CRESSMAN, P.L.L.C.	999 Third Avenue, Suite 3800 ,Seattle
17382	AHLGRIM & SONS FUNERAL & CREMATION SERVICES, LTD.	330 West Golf Road ,Schaumburg
17383	AHLGRIM FAMILY FUNERAL SERVICES, LTD.	415 S. Buesching Road ,Lake Zurich
17384	AHLGRIM FUNERAL HOME, LTD.	567 South Spring Road ,Elmhurst
17386	AHLO INC	7981 NW 68th Street ,Miami
17388	AHLSTROM & BAKER, CPAS	10621 Calle Lee, Suite 153 ,Los Alamitos
17390	AHLSTROM FILTRATION LLC	2 Elm Street ,Windsor Locks
17391	AHLSTROM NONWOVENS LLC	2 Elm Street ,Windsor Locks
17392	AHLSTROM USA INC	2 Elm Street ,Windsor Locks
17393	AHLSTROM USA, INC.	Two Elm Street ,Windsor Locks
17394	AHLSTROM WEST CARROLLTON LLC	2 Elm Street ,Windsor Locks
17397	AHM ASSOCIATES, INC.	3120 Diablo Avenue ,Hayward
17398	AHM CHICAGO ASSOCIATES, LLC	333 N Dearborn St ,Chicago
17399	AHM FINANCIAL GROUP, LLC	11975 Westline Industrial Drive ,St Louis
17400	AHM FINANCIAL GROUP, LLC.	11975 Westline Industrial Drive ,St. Louis
17406	AHMAD LAW FIRM	3 Bethesda Metro Center, Suite 700 ,Bethesda
17415	AHMAD, ZAVITSANOS, ANAIPAKOS, ALAVI & MENSING, P.C.	1221 Mckinney, Suite 3460 ,Houston
17419	AHMANN, INC.	400 Peachtree Street, Ne ,Atlanta
17420	AHMC CENTRAL HEALTH LLC	1540 S. Bridgegate Drive ,Diamond Bar
17421	AHMC HEALTHCARE INC	1000 S. Fremont Ave Bldg. A-9 East ,Alhambra
17422	AHMC INTERNATIONAL CANCER CENTER	605 N. Garfield Ave ,Monterey Park
17439	AHMET R KARACA, MD, PC	1016 Lake Park Drive ,Birmingham
17443	AHNEMAN KIRBY, LLC	1171 East Putnam Avenue Suite 1A ,Riverside
17444	AHNER FABRICATING & SHEET METAL, INC	2001 East Perkins Avenue ,Sandusky
17445	AHNTECH, INC.	15916 Bernardo Center Drive ,San Diego
17448	AHOSKIE ANIMAL HOSPITAL INC	2254 Us Highway 13 South ,Ahoskie
17453	AHP SETTLEMENT TRUST	1100 East Hector Street ,Conshohocken
17454	AHPIA SOLUTIONS, INC.	1250 Broadway ,New York
17455	AHR LAW OFFICES, P.C.	6707 Academy Rd NE, Suite A ,Albuquerque
17456	AHR MANAGEMENT COMPANY, LLC	P.O. Box 6280 ,St. Thomas
17458	AHR SOLUTIONS INC.	1497 Rolling Hills Dr ,Crystal Lake
17467	AHRAV INC	47 Lee Ave ,Dover
17469	AHRENS & CONDILL, INC.	206 South Northwest Highway ,Barrington
17472	AHRENS CHIMNEY TECHNIQUE INC	2000 Industrial Ave ,Sious Falls
17473	AHRENS CONTRACTING INC.	140 Lafayette Avenue ,St. Louis
17475	AHRENS ENTERPRISES, INC.	1461 Kinetic Road ,Lake Park
17476	AHRENS HEARING AID CENTER LLC	23-13 Broadway ,Fair Lawn
17477	AHRENS INVESTMENT PARTNERS, LLC	412 Settlers Trace Blvd. ,Lafayette
17479	AHRENS STEEL & WELDING SUPP, INC.	515 Big Bear Blvd ,Columbia
17481	AHRESTY WILMINGTON CORPORATION	2627 South South Street ,Wilmington
17482	AHROLD FAY ROSENBERG, INC.	604 Locust St. Ste 800 ,Des Moines
17483	AHRON RAZIEL, DDS, P.C.	2 Vista Lane ,Melville
17484	AHRS CONSTRUCTION, INC.	533 Railroad Street, Rr 1 Box G ,Bern
17486	AHS INVESTMENT CORP.	200 American Rd ,Morris Plains
17490	AHS WALK-IN CLINIC, INC.	6011 Ambassador Caffery Parkway ,Youngsville
17491	AHT COOLING SYSTEMS USA INC.	3235 Industry Drive ,North Charleston
17494	AHT TECHNOLOGIES, INC.	1530 Locust Street Apt 5A ,Philadelphia
17495	AHT TECHNOLOGY, INC.	16483 Old Valley Blvd. ,La Puente
17496	AHTNA TECHNICAL SERVICES, INC.	560 E 34th Avenue, Suite 300 ,Anchorage
17497	AHTNA, INCORPORATED	406 W. Fireweed Lane ,Anchorage
17501	AHW VETERINARY INC.	1009 W. Main Street ,Waynesboro
17503	AHWATUKEE COMMONS VETERINARY HOSPITAL, LLC	4902 E Warner, Suite 14 ,Phoenix
17506	AHWATUKEE PEDIATRICS, P.C.	15715 South 46th Street, Ste. 102 ,Phoenix
17511	AI ARCHITECTURE LLC	90 Belknap Street ,Concord
17512	AI BRAIN INC	3000 El Camino Real Ste 5-220 ,Palo Alto
17516	A-I CONSOLIDATED INC.	4970 N Manufacturing Way Unit 2 ,Coeur D Alene
17517	AI CONTROL SYSTEMS, INC.	90 Water Street ,Reading
17518	AI DESIGN GROUP, INC.	500 S College St Ste 200 ,Charlotte
17519	AI DESIGNS LTD	50 Broad Street ,Pawtucket
17522	AI INDUSTRIES, INC.	1725 E. Bayshore Road Unit 101 ,Redwood City
17524	AI MEDIA GROUP	500 West 37th Street 4th Floor ,New York
17525	AI SIGNAL RESEARCH, INC	2001 Nichols Drive ,Huntsville
17527	AI, ENTERPRISES, INC.	P.O. Box 2056 ,Cotuit
17529	AIA ATLANTA	113 Peachtree St Ne ,Atlanta
17530	AIA BENEFIT ADVISORS, INC.	13747 Montfort Drive, Suite 260 ,Dallas
17531	AIA BROKERAGE, INC.	201 Park Ave. ,Plainfield
17532	AIA CHICAGO	35 E Wacker Dr Ste 250 ,Chicago
17533	AIA CORPORATION	800 Winneconne Avenue ,Neenah
17534	AIA GEORGIA ASSOCIATION	113 A Peachtree Street Ne ,Atlanta
17536	AIA HOLDINGS, INC.	One Newark Center ,Newark
17537	AIA HOUSTON	315 Capitol #120 ,Houston
17538	AIA IMAGE ARCHITECTS, INC.	4444 Scotts Valley Drive, Suite 8A ,Scotts Valley
17539	AIA INDUSTRIES, INC.	290 E 56th Avenue ,Denver
17540	AIA KANSAS CITY	1801 Mcgee, Suite 100 ,Kansas City
17541	AIA NEBRASKA	Po Box 80045 ,Lincoln
17542	AIA NEW YORK STATE, INC	50 State Street ,Albany
17543	AIA PENNSYLVANIA	240 N 3rd St Ste 1200 ,Harrisburg
17544	AIA PHILADELPHIA	1218 Arch Street ,Philadelphia
17545	AIA POTOMAC VALLEY	3907 Metzerott Rd ,College Park
17546	AIA SAN FRANCISCO A CHAPTER OF	130 Sutter Street ,San Francisco
17547	AIA SEATTLE	1911 1st Ave ,Seattle
17548	AIA SERVICES CORPORATION	P.O. Box 538 ,Lewiston
17549	AIAG	26200 Lahser ,Southfield
17550	AIASC SOUTH CAROLINA	1522 Richland Street ,Columbia
17553	AIB INTERNATIONAL, INC.	1213 BakerS Way ,Manhattan
17554	AIC EQUIPMENT & CONTROLS, INC.	37 Summit Street ,Brighton
17557	AIC LABS, INC.	501 23rd Ave ,Oakland
17558	AIC VENTURES, L.P.	4131 N Central Expy Suite 820 ,Dallas
17560	AICCU	1100 11th Street, Suite 10 ,Sacramento
17561	AICENT INC	181 Metro Drive, ,San Jose
17562	AICHELIN HEAT TREATMENT SYSTEMS	44160 Plymouth Oaks Blvd ,Plymouth
17563	AICHI FORGE USA, INC.	596 Triport Road ,Georgetown
17564	AICI, LLC	2101 Rosecrans Avenue, #4305 ,El Segundo
17565	AICOTA HEALTH CARE CENTER, INC.	850 2nd Street NW ,Aitkin
17566	AID ATLANTA, INC.	1605 W Peachtree Street Ne ,Atlanta
17567	AID FOR AIDS INTERNATIONAL INC	515 Greenwich St Ste 506 ,New York
17568	AID GWINNETT, INC.	3075 Breckinridge Boulevard ,Duluth
17570	AID MAINTENANCE CO., INC	300 Roosevelt Avenue ,Pawtucket
17572	AID TO DISTRESSED FAMILIES OF APPALACHIAN COUNTIES, INC.	P.O. Box 5953 ,Oak Ridge
17574	AID TO THE DEVELOPMENTALLY DISABLED , INC.	901 East Main Street ,Riverhead
17575	AID TO VICTIMS OF DOMESTIC ABUSE, I NC.	Po Box 6161 ,Delray Beach
17577	AID UPSTATE, INC.	Post Office Box 105 ,Greenville
17578	AID VACCINE ADVOCACY	423 West 127th Street 4th Fl ,New York
17583	AIDA-AMERICA CORPORATION	7660 Center Point 70 Blvd ,Dayton
17584	AIDAN INC.	7289 Spring Drive ,Boulder
17588	AIDANCE SKINCARE & TOPICAL SOLUTIONS, LLC	184 Burnside Avenue ,Woonsocket
17590	AIDE AND HEALTHCARE STAFFING SOLUTIONS, LLC	9331 Easy Oak Creek ,Converse
17592	AIDELLS SAUSAGE COMPANY, INC.	2411 Baumann Avenue ,San Lorenzo
17596	AIDI USA INC	90 New Montgomery St 8th Floo ,San Francisco
17597	AIDIKOFF, UHL & BAKHTIARI	9454 Wilshire Blvd., Suite 303 ,Beverly Hills
17601	AIDS ACTION COMMITTEE OF MASSACHUSETTS, INC.	75 Amory Street ,Boston
17602	AIDS ACTION FOUNDATION	1424 K Street NW, Suite 200 ,Washington
17604	AIDS ARMS INC.	351 W Jefferson Ste 300 ,Dallas
17605	AIDS CARE GROUP	2304 Edgemont Avenue ,Chester
17606	AIDS CENTER OF QUEENS COUNTY INC	16121 Jamaica Ave ,Jamaica
17607	AIDS COMMUNITY RESEARCH INITIATIVE OF AMERICA	575 8th Avenue ,New York
17608	AIDS CONNECTICUT	110 Bartholomew Avenue ,Hartford
17611	AIDS EMERGENCY FUND	12 Grace Street, Suite 300 ,San Francisco
17612	AIDS FOR DAILY LIVING, INC.	1140 Sunset Boulevard, Suite 140 ,Rocklin
17613	AIDS FOUNDATION OF HOUSTON, INC.	6260 Westpark Drive, Suite 100 ,Houston
17614	AIDS HEALTHCARE FOUNDATION	6255 W. Sunset Blvd., 21st Floor ,Los Angeles
17615	AIDS HOUSING ALLIANCE	C/O Allevity, Inc. ,Chico
17616	AIDS INTERFAITH RESIDENTIAL	1800 N Charles St Ste 700 ,Baltimore
17617	AIDS LAW PROJECT OF PENNSYLVANIA	1211 Chestnut St Ste 600 ,Philadelphia
17618	AIDS LEGAL COUNCIL OF CHICAGO	180 N Michigan Ave Ste 2110 ,Chicago
17620	AIDS NETWORK INC	600 Wiiliamson St Suite H ,Madison
17621	AIDS PARTNERSHIP MICHIGAN, INC.	3011 West Grand Blvd, Suite 230 ,Detroit
17622	AIDS PROJECT LOS ANGELES	611 S. Kingsley Dr. ,Los Angeles
17623	AIDS RESEARCH & TREATMENT CENT	725 N Us Highway 1 ,Fort Pierce
17624	AIDS RESOURCE CENTER OF WISCONSIN, INC.	820 North Plankinton Avenue ,Milwaukee
17628	AIDS SERVICE CENTER	65 N. Raymond Avenue, Suite 240 ,Pasadena
17629	AIDS SERVICE CENTER OF LOWER MANH.	41 East 11th Street ,New York
17630	AIDS SERVICES OF AUSTIN, INC.	7215 Cameron Road ,Austin
17631	AIDS UNITED	1424 K St NW, Suite 200 ,Washington
17635	AIEA PEDIATRICS, LLC	99-080 Kauhale Street, C-22 ,Aiea
17636	AIEA SHELL, INC.	99-170 Moanalua Rd ,Aiea
17637	AIELLO & ASSOCIATES, LLC	4831 Foxhall Crescent, NW ,Washington
17639	AIELLO GOODRICH & TEUSCHER AN ACCOUNTANCY CORPOR	205 N Mt Shasta Blvd Suite 300 ,Mt Shasta
17640	AIELLO PUBLIC RELATIONS, LLC	1540 Race Street ,Denver
17641	AIELLO, HARRIS, MARTH, TUNNERO, PASTOR & SCHIFFMAN PC	501 Watchung Avenue ,Watchung
17642	AIELLO-COYLE-BLASCHAK FOOD BRO	Jack London Square ,Oakland
17643	AIFAM INC	805 3rd Avenue 14th Floor ,New York
17647	AIG BAKER SHOPPING CENTER PROPERTIES, L.L.C.	700 Montgomery Hwy Suite 186 ,Birmingham
17649	AIG INDUSTRIAL GROUP, LTD.	220 Pegasus Avenue ,Northvale
17650	AIG INSURANCE COMPANY-PUERTO RICO	P.O. Box 10181 ,San Juan
17657	AIHARA & ASSOCIATES INSURANCE SERVICES, INC.	250 East First Street, Suite 900 ,Los Angeles
17658	AIIM CAPITAL CORPORATION	13919 Quail Pointe Drive ,Oklahoma City
17659	AIIM INTERNATIONAL	1100 Wayne Ave Ste 1100 ,Silver Spring
17662	AIJAZ KHAN, MD	187 Dot Court East ,Oceanside
17664	AIKEN & COMPANY, INC.	P. O. Box 1730 ,Florence
17665	AIKEN & COMPANY, PC	3975 University Drive Suite 200 ,Fairfax
17666	AIKEN & SANDERS, INC. P.S.	343 West Wishkah Street ,Aberdeen
17667	AIKEN & SCOPTUR, SC	C/O 555 Main Street Suite 300 ,Racine
17668	AIKEN & WELCH, INC.	One Kaiser Plaza, Suite 505 ,Oakland
17670	AIKEN AUGUSTA ORAL AND FACIAL SURGERY, PC	1222 George C. Wilson Drive ,Augusta
17671	AIKEN CARDIOVASCULAR ASSOCIATES, PC	137 Miracle Drive, NW ,Aiken
17672	AIKEN COST CONSULTANTS	1010 East North St., Suite C-2 ,Greenville
17673	AIKEN DENTAL ASSOCIATES, P.C.	P.O. Box 678 ,Aiken
17674	AIKEN ELECTRIC COOPERATIVE, INC.	P.O. Box 417 ,Aiken
17676	AIKEN EMERGENCY PHYSICIANS PA	216 Edgefield Ave NW ,Aiken
17682	AIKEN MITCHELL CONSTRUCTION	Aiken John D Member ,Greenville
17683	AIKEN NEUROSCIENCES, PC	410 University Parkway, Suite 2360 ,Aiken
17684	AIKEN OBSTETRICS & GYNECOLOGY ASSOCIATES, P.A.	410 University Parkway, Suite 1550 ,Aiken
17685	AIKEN OPHTHALMOLOGY, PC	110 Pepper Hill Way ,Aiken
17686	AIKEN PLASTIC SURGERY, PA	3000 Woodside Executive Court ,Aiken
17688	AIKEN PULMONARY ASSOCIATES, L.L.C.	68 Physician Dr ,Aiken
17689	AIKEN SCHENK HAWKINS & RICCIARDI P.C.	2390 East Camelback Road, Suite 400 ,Phoenix
17691	AIKEN, AIKEN & SHEETZ ARCHITECTS, INC.	2722 Piedmont Road, N.E. ,Atlanta
17692	AIKEN, BRIDGES, ELLIOTT, TYLER & SALEEBY, P.A	181 E Evans St ,Florence
17693	AIKEN, ST. LOUIS & SILJEG, P.S.	1200 Norton Building ,Seattle
17696	AIKENHEAD, CIPES & SUPANICH, A LAW CORP.	12121 Wilshire Blvd. #510 ,Los Angeles
17698	AIKMAN ENTERPRISES, INC.	5950 Sherry Lane ,Dallas
17710	AILERON SOLUTIONS	625 West Ridge Pike Suite D101 ,Conshohocken
17714	AILING HOUSE PEST CONTROL INC	P O 4977 ,Carmel
17718	AILSA CAPITAL MANAGEMENT, INC	272 E. 12200 S., Suite 100 ,Draper
17719	AILSA CAPITAL MANAGEMENT, LLC	13161 Horizon Point Drive ,Draper
17721	AIM AEROSPACE, INC.	705 SW 7th Street ,Renton
17722	AIM AIRCRAFT SPARES, LLC	449 Highway 74 S ,Peachtree City
17724	AIM ASSOCIATION INSURANCE MANAGEMENT, INC.	8144 Walnut Hill Ln Ste 400 ,Dallas
17727	AIM CONSTRUCTION COMPANY INC.	2624 Beaver Ave ,Des Moines
17728	AIM CONSTRUCTION, INC.	31805 W. Eight Mile Road ,Livonia
17729	AIM CONSULTING GROUP, LLC	8430 W Bryn Mawr Ste 1150 ,Chicago
17730	AIM CONSULTING INC	2523 J Street Ste 202 ,Sacramento
17731	AIM CONSULTING, INC.	4513 Gilead Ct ,Chantilly
17733	AIM DIRECTIONAL SERVICES, LLC	2248 Flour Bluff Drive ,Corpus Christi
17736	AIM ELECTRICAL	720 W 10th St ,Houston
17737	AIM ELECTRONICS	2080 Hartel Street ,Levittown
17738	AIM ENGINEERING AND SURVEYING, INC.	5300 Lee Boulevard ,Lehigh Acres
17740	AIM HIGH ACADEMY, INC.	3355 South County Trail ,East Greenwich
17742	AIM HIGH CHILDREN SERVICES	202 Foster Avenue, Suite B ,Brooklyn
17745	AIM HIGH, INC	16030 Ventura Blvd #300 ,Encino
17747	AIM INTERNATIONAL, INC.	3923 E. Flamingo Avenue ,Nampa
17748	AIM LEASING COMPANY, INC.	1500 Trumbull Avenue ,Girard
17749	AIM LLC	11939 S Central Ave Unit B ,Alsip
17750	AIM LOGISTICS, LLC	C/O Retirement Strategies, Llc ,Little Chute
17751	AIM MAINTENANCE CORPORATION INC	887 Mitten Road, Suite 200 ,Burlingame
17752	AIM MARKETING & INSURANCE SERVICES OF ARIZONA INC.	13840 N Northsight Blvd Ste 101 ,Scottsdale
17753	AIM MARKETING SOLUTIONS, INC.	530 Means Street NW ,Atlanta
17754	AIM MEDIA TEXAS, LLLC	100 Highland Park Vlg ,Dallas
17755	AIM METALS & ALLOYS USA INC.	25 Kenney Dr ,Cranston
17756	AIM MRO HOLDINGS, INC.	8500 Glendale-Milford Road ,Camp Dennision
17757	AIM PLASTICS, INC.	22264 Starks Drive ,Clinton Township
17759	AIM PROPERTY MANAGEMENT COMPANY INC.	1212 K Street ,Modesto
17760	AIM SERVICES, INC.	4227 Route 50 ,Saratoga Springs
17761	AIM SOFTWARE SYSTEMS, INC.	15 Hamlet Drive ,Commack
17762	AIM TECHNOLOGIES, LLC	Po Box 1352 ,Madisonville
17763	AIM TECHNOLOGY, INC.	C/O Allevity, Inc. ,Chico
17765	AIM USA, LLC	8401 Connecticut Avenue ,Chevy Chase
17766	AIM WHOLESALE INC	3631 E La Salle St ,Phoenix
17769	AIMA NEUROLOGY LLC	2315 Dougherty Ferry Rd Suite 207 ,St Louis
17774	AIMBRIDGE HOSPITALITY, LP	2500 North Dallas Parkway, Ste 600 ,Plano
17775	AIMC, LLC.	220 Cinema View Way ,Woodstock
17776	AIMC, P.C.	9397 Crown Crest Blvd. ,Centennial
17777	AIMCLEAR, LLC	9 West Superior Street Suite 200 ,Duluth
17778	AIMCO	10000 SE Pine St ,Portland
17779	AIMCO, INC.	201 Washington Avenue ,Auburn
17780	AIMCO/BETHESDA HOLDINGS, INC.	4582 S Ulster Street Parkway ,Denver
17782	AIME BELLAVANCE & SONS, INC.	5 South Vine Street ,Barre
17783	AIMEDIA SOLUTIONS, INC.	631 Old Hickory Blvd. ,Old Hickory
17785	AIMEE BURRELL PLLC	3854 E Flower St ,Gilbert
17786	AIMEE D. EYVAZZADEH, M.D., MPH	5401 Norris Canyon Road, Suite 106 ,San Ramon
17787	AIMEE D. VAKULA-ROLLINS, DDS,	1044 North Irish Road Suite B ,Davison
17792	AIMET TECHNOLOGIES, INC.	115 Legacy Crest Court ,Zebulon
17793	AIMHI INC	10299 Johnstown Road ,New Albany
17794	AIMHIRE LLC	4600 South Ulster St ,Denver
17795	AIMI, INC.	P.O. Box 626 ,Pooler
17796	AIMIA PROPRIETARY LOYALTY U.S., INC	1405 Xenium Lane ,Minneapolis
17797	AIMM, INC.	1250 Metropolitan Avenue ,West Deptford
17800	AIMONE-MARTIN ASSOCIATES, LLC	1005 Bullock Avenue ,Socorro
17802	AIMPOINT INC	14103 Mariah Ct ,Chantilly
17803	AIMS EDUCATION FOUNDATION	1595 S. Chestnut Ave. ,Fresno
17806	AIMS INSURANCE PROGRAM MANAGERS, INC.	4110 North Scottsdale Road, Suite 1 ,Scottsdale
17807	AIMS TECHNOLOGY SOLUTIONS, INC.	110 E. 9th Street ,Los Angeles
17809	AIN & BANK, P.C. ATTORNEYS AT LAW	1900 M Street, NW. ,Washington
17810	AIN & GRUDA ASSOCIATES, P.A.	20764 West Dixie Highway ,Aventura
17811	AIN AND STEIN, LLC	401 N Washington St Ste 500 ,Rockville
17814	AINA HAINA DENTAL GROUP, INC	P.O. Box 240231 ,Honolulu
17816	AINAD SHRINERS	609 St Louis Avenue ,East St Louis
17820	AINSLEY SHEA COMMUNICATIONS	213 E 4th St ,St Paul
17821	AINSLEYS PHARMACY, LLC	3610 Miller Rd. ,Wilmington
17822	AINSLIE GROUP	389 Edwin Drive ,Virginia Beach
17823	AINSMAN, LEVINE & DREXLER, LLC	310 Grant Street ,Pittsburgh
17825	AINSWORTH CORPORATION & AINSWORT	1055 Dunsmuir Street ,Vancouver
17826	AINSWORTH ENGINEERED, LLC	1055 Dunsmuir Street, Suite 3194 ,Vancouver
17827	AINSWORTH GAME TECHNOLOGY, INC.	6600 NW 12Th Avenue, Suite 201 ,Fort Lauderdale
17828	AINSWORTH PET NUTRITION, INC.	984 Water Street ,Meadville
17830	AINSWORTH TRUCKING LP	P O Box 10386 ,Corpus Christi
17831	AINSWORTH, THELIN & RAFTICE, PA	7 Ocean St ,South Portland
17832	AINSWORTH-NOAH & ASSOCIATES, INC.	351 Peachtree Hills Ave., Suite 518 ,Atlanta
17835	AIO, LLC	1000 Bishop St., Suite 610 ,Honolulu
17837	AION REALTY, LLC	11 East 44th Street, Suite 1000 ,New York
17838	AION SOLUTIONS, INC.	64 W 67th Place ,Merrillville
17839	AIP MARKETING ALLIANCE INC	2041 East Square Lake Ste 100 ,Troy
17841	AIP, INC.	14100 San Pedro ,San Antonio
17842	AIP, LLC	330 Madison Avenue, 28th Floor ,New York
17843	AIP/AEROSPACE HOLDINGS, LLC	1395 S. Lyon Street ,Santa Ana
17844	AIPHONE CORPORATION	1700 130th Avenue Ne ,Bellevue
17845	AIPSO	302 Central Avenue ,Johnston
17846	AIPTEK, INC.	17837 Rowland Street ,City Of Industry
17850	AIR & HYDRAULIC EQUIPMENT, INC.	821 East 11th Street ,Chattanooga
17851	AIR & LUBE SYSTEMS, INC.	8530 Fruitridge Rd., Suite 1 ,Sacramento
17853	AIR & WASTE MANAGEMENT ASSOCIATION	One Gateway Center, 3rd Floor ,Pittsburgh
17854	AIR & WATER, INC.	1100 S. Linwood, Building B ,Santa Ana
17855	AIR 2, LLC	2345 York Rd ,Lutherville
17857	AIR ACADEMY FEDERAL CREDIT UNION	9810 North Union Boulevard ,Colorado Springs
17858	AIR AGE, INC.	88 Danbury Road ,Wilton
17859	AIR ANALYSIS, INC.	1785 Haven Trail ,Martinsville
17860	AIR ANALYSIS, LLC	189 Hausman Road ,Lenhartsville
17862	AIR APPARENT, INC	5432 W 104th Street ,Los Angeles
17864	AIR ARC SUPPLY INC	617 Houston Street ,West Sacramento
17865	AIR ASSURANCE CO.	1301 SW Expressway Dr ,Broken Arrow
17867	AIR BALANCING COMPANY	4607 Forest Hill Cr ,Fort Worth
17868	AIR BARRIER SOLUTIONS, LLC	257 Middle Road ,Crown Point
17871	AIR BRAKE REPAIR SERVICE, INC.	1517 Mccormack St. ,Sacramento
17872	AIR BROOK LIMOUSINE, INC	Po Box 123 ,Rochelle Park
17873	AIR BROOK LIMOUSINE, INC.	115 W Passaic Street ,Rochelle Park
17874	AIR BTU, INC.	252 Brevoort Road ,Columbus
17875	AIR CABIN ENGINEERING, INC.	231 W. Blueridge Ave. ,Orange
17877	AIR CANADA	Air Canada Centre Zip 1265, Po Box ,Montreal
17878	AIR CARE AIR CONDITIONING OF SAN ANTONIO, INC.	11725 Warfield ,San Antonio
17879	AIR CARE OF NJ, INC.	1800 East State Street ,Hamilton
17880	AIR CARGO CARRIERS, INC.	4951 S. Howell Avenue ,Milwaukee
17881	AIR CARGO CARRIERS, LLC	4940 S. Howell Ave. ,Milwaukee
17882	AIR CARGO CONTAINERS LLC	21640 N 19th Ave, Ste. C-102 ,Phoenix
17883	AIR CARGO TRANSIT INC	Po Box 24280 ,Phoenix
17884	AIR CARGO TRANSPORT SERVICES, INC	7361 Coca Cola Drive ,Hanover
17885	AIR CARTAGE EXPRESS, LLC	44966 Falcon Place Suite 130 ,Sterling
17888	AIR CENTER OF MISSISSIPPI, INC.	163 Concourse Drive ,Pearl
17889	AIR CENTER, INC.	2175 Stephenson Hwy ,Troy
17891	AIR CENTERS OF FLORIDA, INC.	9311 Solar Dr ,Tampa
17892	AIR CENTERS OF SOUTH CAROLINA, INC.	Po Box 27132 ,Greenville
17895	AIR CHARTER SERVICES	1130 Rxr Plaza ,Uniondale
17896	AIR CHARTERS, INC.	333 Industrial Avenue Hanger 3 ,Teterboro
17898	AIR CHINA LIMITED	2131 E Maple Ave ,El Segundo
17900	AIR CLEANING SPECIALISTS OF NEW ENGLAND, LLC	1525 Hanover Street ,Hanover
17902	AIR CLEANING SYSTEMS, INC.	8 Sunset Drive ,Latham
17903	AIR CLEANING TECHNOLOGIES INC	1300 W Detroit St ,Broken Arrow
17904	AIR CLEANING TECHNOLOGIES, INC.	221 Oak St. ,Bonner Springs
17907	AIR COMFORT HEATING & AIR CONDITIONING, INC.	19170 Jasper St. NW ,Anoka
17908	AIR COMFORT HEATING & COOLING	Po Box 101476 ,Nashville
17909	AIR COMFORT INC	225 Bluff St ,Akron
17910	AIR COMFORT OF KY, INC.	3904 Bishop Lane ,Louisville
17911	AIR COMFORT SERVICE CORP	20 Brooklyn Ave ,Massapequa
17912	AIR COMFORT SERVICE, INC.	11920 Missouri Bottom Road ,Hazelwood
17913	AIR COMFORT, INC.	150 Rome Court ,Fort Collins
17917	AIR COMMUNICATIONS OF CENTRAL WISCONSIN INC.	2430 Industrial St ,Wisconsin Rapids
17918	AIR COMPLIANCE TESTING, INC.	5525 Canal Road ,Valley View
17919	AIR COMPONENTS & ENGINEERING INC	1181 58th Street Sw ,Grand Rapids
17920	AIR COMPONENTS & SYSTEMS, LTD.	P.O. Box 560578 ,Charlotte
17921	AIR COMPONENTS INC	10235 Indiana Ct ,Rancho Cucamonga
17922	AIR COMPONENTS, INC.	5210 Pleasant View Road, Suite 5 ,Memphis
17924	AIR COMPRESSOR EQUIPMENT CO.	Po Box 4248 ,Fort Smith
17925	AIR COMPRESSOR PARTS, INC.	P.O. Box 583 ,Assinippi
17926	AIR COMPRESSOR RENTAL CO INC	19615 Nottingham Road ,Cleveland
17927	AIR COMPRESSOR SALES, INC	5490 Thomaston Road ,Macon
17928	AIR COMPRESSOR SOLUTIONS	3001 Kermit Hwy ,Odessa
17929	AIR COMPRESSOR SUPPLY, INC.	3916 S. Prospect Ave ,Oklahoma City
17931	AIR COMPRESSORS AND MACHINE COMPANY OF IOWA	2345 Delaware Avenue ,Des Moines
17932	AIR CON, INC.	1148 Route 22 ,Mountainside
17933	AIR CONCEPTS USA, INC.	645 SE Central Parkway ,Stuart
17934	AIR CONDITIONING & HEATING SERVICE CO	1 Crouch Court ,Santa Fe
17935	AIR CONDITIONING & REFRIGERATION CO	3602 Inland Empire Boulevard ,Ontario
17937	AIR CONDITIONING BY JAY	7595 E. Gray Road ,Scottsdale
17938	AIR CONDITIONING BY LUQUIRE, INC.	1155 Northeast Boulevard ,Montgomery
17939	AIR CONDITIONING CONTRACTORS OF AMERICA	2800 S Shirlington Rd ,Arlington
17940	AIR CONDITIONING DISTRIBUTORS, INC.	367 E. Alondra Blvd. ,Gardena
17941	AIR CONDITIONING ENGINEERS INC.	5250 Auburn Road ,Shelby Township
17945	AIR CONDITIONING REFRIGERATION CORP	C/O Retirement Strategies, Llc ,Little Chute
17946	AIR CONDITIONING SERVICE, INC	215 S. Sunnylane ,Del City
17947	AIR CONDITIONING SERVICES INC.	410 Eastern Parkway ,Farmingdale
17949	AIR CONDITIONING SOLUTIONS SUPPLY CORPORATION	501 Sumner St, Ste 604 ,Honolulu
17953	AIR CONDITIONING TRADE ASSOCIATION	1112 N Main St #386 ,Manteca
17954	AIR CONDUIT, LLC	1300 2nd Street ,Lake Charles
17955	AIR CONSULTING & ENGINEERING SOLUTIONS, LLC	5615 Northwest Central Dr ,Houston
17956	AIR CONTACT TRANSPORT, INC.	59 Love Lane ,Netcong
17958	AIR CONTROL PRODUCTS, INC.	3800 Towpath Road ,Broadview Heights
17959	AIR CONTROL TECHNIQUES, P.C.	301 East Durham Road ,Cary
17960	AIR CONTROL TECHNOLOGY, INC.	998 Taunton Ave ,West Berlin
17961	AIR CONTROL, INC.	80 14th Ave N ,Clinton
17963	AIR CONTROLS BOZEMAN, INC.	7510 Shedhorn Dr ,Bozeman
17964	AIR CONVEYING CORPORATION	2196 E Person Ave ,Memphis
17966	AIR COOLED SYSTEM TECHNOLOGIES, INC.	5625 Ruffin Road, Suite 120 ,San Diego
17967	AIR COST CONTROL, US LLC	7050 West State Road 84 ,Davie
17969	AIR CYCLE CORP.	2200 Ogden Avenue, Suite 100 ,Lisle
17971	AIR DESIGN HEATING & COOLING LLC	325 W Erickson Lane ,Murray
17972	AIR DESIGN SYSTEMS, INC.	12011 91st Street ,Willow Springs
17977	AIR DISTRIBUTING COMPANY, INC. DBA ADCO	9009 Center Street ,Manassas
17981	AIR DISTRIBUTION TECHNOLOGIES INC	1301 W President George Bush Hwy ,Richardson
17982	AIR DOCS INC.	12 Glen Pl. ,New Rochelle
17983	AIR DOG INC	9378 E. Bahia Dr. ,Scottsdale
17984	AIR DRILLING SPECIALTIES, INC.	6750 South Highway 87 ,Duchesne
17986	AIR ELECTRO, INC.	9452 De Soto Avenue ,Chatsworth
17987	AIR ENERGY SYSTEMS, INC.	4790 W. 73rd Street ,Indianapolis
17988	AIR ENERGY, INC.	6 Norfolk Avenue ,South Easton
17989	AIR ENGINEERING AND TESTING, INC.	1801 Royal Lane, Suite 400 ,Dallas
17990	AIR ENGINEERS, L.L.C.	Post Office Box 380157 ,Birmingham
17991	AIR ENTERPRISES ACQUISITION, LLC	735 Glaser Parkway ,Akron
17992	AIR EQUIPMENT AND REPAIR INC	618 Avenue E ,San Antonio
17993	AIR EQUIPMENT CORPORATION	215 West Bridge Drive ,Morgan
17994	AIR EQUIPMENT RENTAL CORP	901 Callendar Blvd ,Painesville
17995	AIR EQUIPMENT SALES & SERVICE INC.	109 Armco Blvd ,Ashland
17998	AIR EX AIR CONDITIONING, INC.	157 Gentry St ,Pomona
17999	AIR EXCHANGE, INC.	495 Edison Court Suite A ,Fairfield
18000	AIR EXPERTS HEATING, COOLING, INC.	7 Rupert Road ,Raleigh
18001	AIR EXPRESS	4215 Ponce De Leon Drive ,La Mesa
18004	AIR EZE AIR CONDITIONING, INC	2034 Thomas Street ,Hollywood
18005	AIR FASTNERS, INC	1610 N 1-35E Ste 200 ,Carrollton
18011	AIR FILTER SOLUTIONS, INC.	C/O Rps Plan Administrators ,Greenwood Village
18014	AIR FILTER SYSTEMS LP	Po Box 1366 ,Cypress
18015	AIR FILTRATION MANAGEMENT, INC.	1505 W. Broad Street ,Bethlehem
18016	AIR FILTRATION SYSTEMS LLC	35 Mayflower Rd ,Eastham
18017	AIR FIRST AVIATION OF OKLAHOMA	3322 N 74th East Ave ,Tulsa
18018	AIR FIRST MECHANICAL INC	705 Ridge Rd ,Marengo
18020	AIR FLIGHT SERVICE INC	2220 Calle De Luna ,Santa Clara
18022	AIR FLOW DESIGNS, INC.	250 Jasmine Rd ,Casselberry
18023	AIR FLOW HEATING AND COOLING	1184 Haverston Road ,Lyndhurst
18024	AIR FLOW PROS	28 Robinhood Dr ,San Rafael
18026	AIR FLOW SPECIALIST INC	12586 Seminole Blvd ,Largo
18027	AIR FLOW SYSTEMS, INC	5272 SE International Way ,Portland
18028	AIR FLOW TECHNOLOGY, INC.	4810 70th Avenue ,Kenosha
18030	AIR FORCE AID SOCIETY, INC.	241 18th Street S. ,Arlington
18031	AIR FORCE ENLISTED VILLAGE, INC.	92 Sunset Lane ,Shalimar
18032	AIR FORCE FEDERAL CREDIT UNION	1560 Cable Ranch Rd Ste 200 ,San Antonio
18033	AIR FORCE GYMNASTICS ACADEMY L	969 N Military Ave ,Green Bay
18035	AIR FORCE MECHANICAL CORP.	Pier 60 Chelsea Piers ,New York
18036	AIR FORCE MUSEUM FOUNDATION, INC	1100 Spaatz Street ,Wright Patterson Afb
18037	AIR FORCE ONE, INC	5810 Shier Rings Road ,Dublin
18038	AIR FORCE RETIRED OFFICERS COMMUNITY - WASHINGTON DC DBA FALCONS LANDI	20522 Falcons Landing Circle ,Sterling
18040	AIR FORCE VILLAGE	12455 Freedom Way ,San Antonio
18041	AIR FORCE VILLIAGE WEST	17050 Arnold Dr. ,Riverside
18042	AIR FRAME MANUFACTURING AND SUPPLY CO., INC	26135 W Technology Dr ,Valencia
18043	AIR FRANCE USA	125 West 55th Street ,New York
18044	AIR FREIGHT PLUS, INC.	7504 Connelley Drive Suite E ,Hanover
18045	AIR FREIGHT UNLIMITED, INC.	8320 Pillsbury Ave ,Bloomington
18046	AIR GAGE COMPANY	516 Slade Ave. ,Elgin
18048	AIR GOURMENT INC	3310 S Robertson Blvd ,Los Angeles
18049	AIR GROUND XPRESS, INC.	Po Box 438 ,Clinton
18050	AIR GROUP, LLC	1 Prince Road ,Whippany
18051	AIR HEATER SEAL COMPANY/POWER GROUP	P.O. Box 8 ,Waterford
18052	AIR HOST, INC.	1355 Lynnfield Road, Suite 101 ,Memphis
18054	AIR IDEAL INCORPORATED	51 Windsor Avenue ,Mineola
18055	AIR IMPROVEMENT RESOURCE, INC.	Po Box 39 ,Macatawa
18057	AIR INDIA	570 Lexington Avenue ,New York
18058	AIR INDUSTRIES CORPORATION	12570 Knott Street ,Garden Grove
18059	AIR INDUSTRIES GROUP	1479 N Clinton Ave ,Bay Shore
18063	AIR JAMAICA LIMITED	902 SW 34th Street ,Fort Lauderdale
18064	AIR JUDO INC.	250 E. Hartsdale Avenue ,Hartsdale
18065	AIR KING FASTENING SYSTEMS, INC.	3537 88th Avenue Ne ,Circle Pines
18066	AIR KING INCORPORATED	250 East Eldorado Street ,Decatur
18067	AIR KOOL MECHANICAL CONTRACTING, IN C.	451 North Route 9W ,Congers
18071	AIR LEASE CORPORATION	2000 Avenue Of The Stars ,Los Angeles
18074	AIR LINE PILOTS ASSOCIATION, INTERNATIONAL	535 Herndon Parkway ,Herndon
18075	AIR LIQUIDE USA LLC	2700 Post Oak Blvd Ste 1800 ,Houston
18076	AIR LOCKER, INC.	720 S.W. 34th St. ,Renton
18077	AIR LOGISTICS & ENGINEERING CONSULTANTS, LLC	1100 Park Drive ,Warner Robins
18078	AIR LOGISTICS AMERICA, INC.	11811 North Freeway ,Houston
18079	AIR LOGISTICS CORPORATION	146 E. Railroad Avenue ,Monrovia
18081	AIR MAINTENANCE, INC.	W230 N4933 Betker Drive ,Pewaukee
18082	AIR MANAGEMENT CORPORATION, INC.	Po Box 280 ,Dearborn Heights
18085	AIR MANAGEMENT TECHNOLOGIES, INC.	1776 Industrial Blvd. ,Lewisburg
18086	AIR MANAGEMENT, INC.	186 Blackner Road ,Johnstown
18087	AIR MARSHALL, INC.	2870 Stirling Road, Suite 210-A ,Hollywood
18089	AIR MASTER HEATING & COOLING CO., INC.	235 Route 46 West ,Fairfield
18091	AIR MASTER LLC	1556 Ocean Ave Ste 21 ,Bohemia
18092	AIR MASTERS CORPORATION	1055 Cassens Ind. Ct. ,Fenton
18093	AIR MASTERS HVAC SERVICES OF NE	55 Turner Street ,Fall River
18095	AIR MASTERS, INC.	1924 Republican St ,Honolulu
18097	AIR MC CALL I N C	6662 Columbia Park Drive Sout ,Jacksonville
18098	AIR MD, LLC	516 N. Oliver Road, Building J ,Newton
18099	AIR MECHANICAL SALES, INC.	1044 Eastland Drive ,Lexington
18101	AIR MECHANICAL, INC	1914 4th Avenue NW ,West Fargo
18103	AIR MECHANICAL, INC.	16411 Aberdeen Street Ne ,Ham Lake
18106	AIR MEDICAL, LLC	402 E Ramsey Rd ,San Antonio
18107	AIR METHODS CORPORATION	7211 S Peoria St. ,Englewood
18109	AIR MOTION SYSTEMS INC	674 Highland Drive ,River Falls
18110	AIR MOVEMENT & CONTROL ASSOCIATION INTERNATIONAL, INC.	30 West University Drive ,Arlington Heights
18111	AIR MOVERS, INC.	7721B Fullerton Rd ,Springfield
18112	AIR NEW ZEALAND LIMITED	1960 E Grand Ave Ste 300 ,El Segundo
18113	AIR NOW HEATING & COOLING, INC	3481 Main St ,Millbrook
18115	AIR OIL PRODUCTS CORPORATION	301 30th Street NE, Ste 112 ,Auburn
18120	AIR PAK PRODUCTS AND SERVICES	6966 Venture Cir ,Orlando
18121	AIR PARTNER INC	1100 Lee Wagener Blvd Ste 328 ,Fort Lauderdale
18122	AIR PARTS & SUPPLY CO.	12840 S.W. 84 Avenue Road ,Miami
18125	AIR PERFORMANCE SERVICE, INC.	10510 Markison Rd ,Dallas
18126	AIR PERFORMANCE SERVICES INC.	375 E Warm Springs Road ,Las Vegas
18127	AIR PHOTO, INC.	P.O. Box 12400 ,Everett
18128	AIR PHOTOGRAPHICS, INC.	2115 Kelly Island Rd ,Martinsburg
18131	AIR PLUS, LLC	105-G North Pat Street ,Scott
18132	AIR POWER DYNAMICS, LLC	7350 Corporate Blvd ,Mentor
18133	AIR POWER HOUSE INC.	116 Neelytown Road ,Montgomery
18135	AIR POWER OF NEBRASKA, INC	5401 South 72nd Street ,Omaha
18136	AIR POWER SYSTEMS COMPANY, INC.	8178 E. 44th Street ,Tulsa
18137	AIR POWER, INC.	1430 Trinity Avenue ,High Point
18138	AIR PROCESS SYSTEMS & CONVEYORS CO., INC.	774 Burr Oak Drive ,Westmont
18139	AIR PRODUCTS AND CHEMICALS, INC	7201 Hamilton Blvd ,Allentown
18140	AIR PRODUCTS EQUIPMENT COMPANY	1555 Louis Avenue ,Elk Grove Village
18141	AIR PRODUCTS GROUP, INC	836 Jury Ct., Suite 20 ,San Jose
18142	AIR PRODUCTS, INC.	15735 Strathern St. Suite #8 ,Van Nuys
18144	AIR PROMOTION GROUP USA, INC.	420 Lexington Avenue ,New York
18146	AIR PURCHASES OF NEW HAMPSHIRE, INC	190 Zachary Rd. ,Manchester
18149	AIR PURIFICATION, INC	8121 Ebenezer Church Road ,Raleigh
18150	AIR QUALITY ASSOCIATES INC	3933 Fm 344 E ,Tyler
18151	AIR QUALITY BOARD	41 S. Baltic #200 ,Meridian
18152	AIR QUALITY CONTROL INC	4582 28th St N ,St Petersburg
18153	AIR QUALITY CONTROL, INC.	630 Freedom Business Center ,King Of Prussia
18154	AIR QUALITY SERVICES, LLC	427 Main Street ,Evansville
18155	AIR QUALITY SYSTEMS, INC.	4709 Triangle Street ,Mc Farland
18157	AIR REPAIR, LLC	1 Kahului Airport Rd Ste 105 ,Kahului
18158	AIR REPRESENTATIVES INC	Po Box 12328 ,Overland Park
18159	AIR REPS LLC	3290 146th Place S.E., Bldg. A ,Bellevue
18160	AIR RESCUE SYSTEMS CORPORATION	Po Box 3009 ,Ashland
18161	AIR RESOURCE HELICOPTERS	262 22nd Street ,Costa Mesa
18162	AIR RESOURCE SPECIALISTS, INC.	1901 Sharp Point Drive, Suite E ,Fort Collins
18164	AIR RIDE TECHNOLOGIES INC.	350 S. St. Charles Street ,Jasper
18166	AIR ROUTING INTERNATIONAL L.P.	2925 Briarpark Drive, 7th Floor ,Houston
18167	AIR RUTTER INTERNATIONAL LLC	4310 E Donald Douglas Dr S202 ,Long Beach
18168	AIR SAFE, LLC	129 S. Gallatin Street ,Liberty
18169	AIR SALVAGE OF DALLAS, INC.	1361 Ferris Road ,Lancaster
18170	AIR SCIENCE TECHNOLOGIES, INC.	247 Rodeo Avenue ,Rodeo
18171	AIR SCIENCES INC	1301 Washington Avenue ,Golden
18172	AIR SCRUBBERS, INC.	P.O. Box 2205 ,Sanford
18173	AIR SEA AMERICA, INC.	18613 72nd Ave S ,Kent
18174	AIR SEA SHIPPING, INC.	1955 NW 72nd Ave. ,Miami
18175	AIR SEA TRANSPORT INC	731 S Garfield Ave Fl 2 ,Alhambra
18176	AIR SERV CORPORATION	3399 Peachtree Road, Suite 1800 ,Atlanta
18177	AIR SERV INTERNATIONAL	410 Rosedale Ct., Suite 190 ,Warrenton
18179	AIR SERVICES DEVELOPMENT OFFICE, IN C.	141-07 20th Street 404 ,Whitestone
18181	AIR SHUNT INSTRUMENTS, INC.	9101 Winnetka Avenue ,Chatsworth
18182	AIR SMART INC	441 Oak St ,Graham
18183	AIR SOLUTION CONTROLS INC	3910 W Roll Ave ,Bloomington
18184	AIR SOLUTIONS & BALANCING LLC	40 King St ,Auburn
18185	AIR SOLUTIONS HEATING & COOLIN	Po Box 428 ,Sand Springs
18186	AIR SOLUTIONS HEATING & COOLING, INC.	2575 Edison Ave. ,Jacksonville
18188	AIR SOLUTIONS, INC.	430 Fairfield Avenue ,Stamford
18191	AIR SOURCE PRODUCTS INC	24W500 Maple Ave., Ste 106 ,Naperville
18192	AIR SPARES, INC.	609 N. Levee Road ,Puyallup
18193	AIR SPECIALIST HEATING & AIR CONDITIONING COMPANY, INC.	Po Box 1938 ,Pearland
18194	AIR SPECIALISTS WORLDWIDE, INC.	1675 Larkin Williams Road ,Fenton
18195	AIR SPECIALISTS, INC	598 Kirk Road ,Marietta
18196	AIR SPECIALTY & EQUIPMENT COMPANY	406 S. Navigation ,Corpus Christi
18198	AIR SPECIALTY, INC.	P O Box 2236 ,Semmes
18200	AIR STAMPING, INC.	Three Legend Park, Route 45 ,Effingham
18202	AIR SUPPORT INC	4010 S 21st St Ste 2 ,Phoenix
18203	AIR SYSTEM PRODUCTS, INC.	51 Beach Avenue ,Lancaster
18204	AIR SYSTEMS AND PUMP SOLUTIONS, LLC	3200 South Ann Arbor ,Oklahoma City
18207	AIR SYSTEMS INCORPORATED	1799 Akron Peninsula Rd ,Akron
18209	AIR SYSTEMS SHEET METAL COMPANY, INC.	Po Box 9426 ,Huntington
18211	AIR SYSTEMS, INC.	1213-A Hazelwood Drive ,Smyrna
18214	AIR SYSTEMS, INCORPORATED	829 Juniper Crescent ,Chesapeake
18215	AIR SYSTEMS, LLC	4512 Bishop Lane ,Louisville
18219	AIR TECH HEATING, INC.	251 Griffith Street ,Fond Du Lac
18220	AIR TECH, INC.	P.O. Box 26269 ,Birmingham
18221	AIR TECHNICAL INDUSTRIES INC	7501 Clover Ave ,Mentor
18222	AIR TECHNICAL SERVICES, INC.	2856 Cela Road ,Memphis
18225	AIR TECHNOLOGIES OF OKLAHOMA CITY, INC.	110 NE 48th St. ,Oklahoma City
18226	AIR TECHNOLOGIES, INC.	125 Liberty Street ,Danvers
18227	AIR TECHNOLOGY LABORATORIES, INC.	18501 E. Gale Avenue, Suite 130 ,City Of Industry
18233	AIR TEMPERATURE SYSTEMS INC	1504 Providence Hwy Unit 1 ,Norwood
18235	AIR TEXAS MECHANICAL, INC.	1724 Townhurst Drive ,Houston
18236	AIR THERM COMPANY, INC.	1010 Lynes Avenue ,Savannah
18237	AIR TIGER EXPRESS USA, INC.	149-09 183rd Street, 2nd Floor ,Springfield Gardens
18238	AIR TIGHT	5901 Ericson Way ,Arcata
18239	AIR TIGHT INSULATION COMPANY, INC.	14758 Griffin Graves Creek Road ,Henderson
18240	AIR TIGHT NETWORK INC	339 Bernardo Ave Ste 200 ,Mountain View
18244	AIR TRACTOR, INC.	P.O. Box 485 ,Olney
18245	AIR TRADE INTERNATIONAL, INC.	1975 El Camino Real West ,Mountain View
18246	AIR TRAFFIC CONTROL ASSOC INC	1101 King St Ste 300 ,Alexandria
18248	AIR TRAFFIC MANAGEMENT INC	1924 Rankin Rd Ste 300 ,Houston
18249	AIR TRAINING INTERNATIONAL LTD.	P.O. Box 6801 ,Fort Worth
18250	AIR TRANSPORT ASSOCIATION OF AMERICA, INC.	1301 Pennsylvania Avenue ,Washington
18251	AIR TRANSPORT BUSINESS DEVELOPMENT, INC.	171 Pier Avenue, Suite 191 ,Santa Monica
18252	AIR TRANSPORT COMPONENTS, LLC	900 N Fiesta Blvd ,Gilbert
18253	AIR TRANSPORT INTERNATIONAL LLC	2800 Cantrell Road ,Little Rock
18255	AIR TREATMENT CORPORATION	640 N. Puente St ,Brea
18256	AIR TREATMENT, INC.	4110 Romaine Street ,Greensboro
18257	AIR TREK, INC.	28000-A5 Airport Road ,Punta Gorda
18258	AIR TURBINE PROPELLER CO.	Po Box 218 ,Zelienople
18259	AIR VAN LINES, INC.	2340 - 130th Ave Ne ,Bellevue
18260	AIR VENT DUCT CLEANING INC.	120 Commerce Drive ,Montgomeryville
18262	AIR VOL BLOCK, INC.	P.O. Box 931 ,San Luis Obispo
18263	AIR WATER SOIL ENGINEERING, INC.	632 North Main ,Logan
18264	AIR WAVES, INC.	Po Box 330 ,Lewis Center
18265	AIR WAY AUTOMATION, INC.	P.O. Box 564 ,Grayling
18266	AIR WISCONSIN AIRLINES CORPORATION UNITED EXPRESS & US AIRWAYS EXPRESS	W6390 Challenger Drive ,Appleton
18268	AIR WORLDWIDE CORPORATION	131 Dartmouth Street ,Boston
18269	AIR ZONE INDUSTRIES, INC	5220 Ted St ,Houston
18270	AIR ZONE MECHANICAL INC	16600 NW 54th Ave Unit 3 ,Hialeah
18271	AIR ZONE, INC	200 Ashby Court ,Suffolk
18272	AIR, LLC D/B/A TANTACOMM	8215 Greenway Blvd, Suite 180 ,Middleton
18273	AIR, WATER, & SOIL LABORATORIES, IN .	2109 A North Hamilton Street ,Richmond
18275	AIR/PRO, INC.	8849 Brookside Avenue ,West Chester
18276	AIR/TAK, INC.	107 W Main St ,Worthington
18279	AIRADVICE, INC.	333 Southeast 2nd Avenue ,Portland
18280	AIRAMID HEALTH SERVICES, LLC	1675 Palm Beach Lakes Boulevard ,West Palm Beach
18281	AIRAN PACE LAW PA	6705 SW 57th Ave Ste 310 ,Coral Gables
18284	AIRBASE SERVICES	902 Ave T ,Grand Prairie
18285	AIRBIQUITY INC	1011 Western Avenue ,Seattle
18286	AIRBNB	888 Brannan St. Floor 4 ,San Francisco
18287	AIRBORN, INC.	4321 Airborn Drive ,Addison
18288	AIRBORNE 1 CORPORATION	175 Longwood Road South ,Hamilton
18289	AIRBORNE ASPECT, INC.	8029 Marathon Dr ,Plano
18292	AIRBORNE ELECTRONICS	6365 Freeport Boulevard ,Sacremento
18293	AIRBORNE GYMNASTICS	1515 Walsh Avenue ,Santa Clara
18294	AIRBORNE IMAGING, INC.	131 Airport Drive ,Midlothian
18295	AIRBORNE LABS INTERNATIONAL	22 Worlds Fair Dr Ste C ,Somerset
18296	AIRBORNE LAW ENFORCEMENT ASSOCIATION, INC.	50 Carroll Creek Way, Suite 260 ,Frederick
18297	AIRBORNE RESOURCES, INC.	661 E. Main St. ,Midlothian
18298	AIRBORNE SUPPORT, INC	3626 Thunderbird Road ,Houma
18299	AIRBORNE SYSTEMS NORTH AMERICA OF CA, INC.	3701 W. Warner Avenue ,Santa Ana
18300	AIRBORNE SYSTEMS NORTH AMERICA OF NJ, INC.	5800 Magnolia Avenue ,Pennsauken
18301	AIRBORNE TACTICAL ADVANTAGE COMP	1001 Providence Blvd ,Newport News
18302	AIRBORNE TECHNOLOGIES, INC	999 Avenida Acaso ,Camarillo
18303	AIRBORNE, INC	236 Sing Sing Road ,Horseheads
18305	AIRBRUSH IMAGES, INC.	850 N. Fm 3083 ,Conroe
18308	AIRBUS DS COMMUNICATIONS, INC.	42505 Rio Nedo ,Temecula
18309	AIRBUS HELICOPTERS, INC.	2701 Forum Drive ,Grand Prairie
18310	AIR-CAIRE HOME MEDICAL EQUIP. & SUP	16 E Sheridan St ,Fremont
18311	AIR-CARE HOME HEALTH, INC.	Po Box 678 ,Easley
18312	AIR-CARE-GO, INC.	2983 Center Ct ,Eagan
18313	AIRCASTLE ADVISOR, LLC	300 First Stamford Place ,Stamford
18314	AIRCELL LLC	1250 N Arlington Hts Road ,Itasca
18316	AIR-CITY, INC.	153-63 Rockaway Blvd. ,Jamaica
18317	AIRCLAIMS, INC.	7270 NW 12Th Street - Suite 800 ,Miami
18318	AIRCLEAN TECHNOLOGIES, INC.	Po Box 46017 ,Seattle
18319	AIR-CLEAR LLC	2440 Old Field Point Road ,Elkton
18320	AIRCLIC, INC	900 Northbrook Dr Ste 100 ,Trevose
18321	AIRCO COMMERCIAL SERVICES, INC.	5725 Alder Avenue ,Sacramento
18322	AIRCO MECHANICAL, INC.	8210 Demetre Ave ,Sacramento
18323	AIRCO SERVICE, INC.	11331 E. 58th St. ,Tulsa
18324	AIRCOM INTERNATIONAL, INC	19111 Dallas Parkway, Ste 320 ,Dallas
18325	AIRCOM MANUFACTURING, INC.	6205 E 30th Street ,Indianapolis
18327	AIRCON CAROLINA INC	704 Carnegie Pl ,Greensboro
18328	AIRCON CORPORATION	2873 Chelsea Ave ,Memphis
18329	AIRCON ENGINEERING, INC.	7 Williams Street ,Cumberland
18330	AIR-CON, INC.	4835 West 23rd Street ,Erie
18332	AIRCONDEX, INC.	5111 Mercantile Row ,Dallas
18333	AIR-CONDITIONING INNOVATIVE SOLUTIONS	1028 N Mcdonald St ,Mckinney
18334	AIR-CONDITIONING, HEATING AND REFRIGERATION INSTITUTE	2111 Wilson Blvd., Suite 500 ,Arlington
18335	AIRCONTROL SERVICES INC	16 Chase Terrace ,Shrewsbury
18336	AIRCOOL MECHANICAL SYSTEM, INC.	18710 SW 107 Avenue ,Miami
18338	AIRCORPS, LLC	2230 Terminal Rd ,Roseville
18339	AIRCRAFT ARMATURE, INC	490 W 84th Street ,Hialeah
18340	AIRCRAFT ARMATURE, INC.	490 W. 8th Street ,Hialeah
18341	AIRCRAFT CABIN SYSTEMS, LLC	18080 NE 68th Street, Bldg B ,Redmond
18342	AIRCRAFT CERTIFICATION SERVICES LLC	13733 NE 93rd Ct. ,Redmond
18343	AIRCRAFT CHARTER SOLUTIONS, INC.	21039 St. Louis Road ,Middleburg
18346	AIRCRAFT COMPOSITE TECHNOLOGIE	Technologies Inc. ,Medley
18347	AIRCRAFT DYNAMICS CORPORATION	418 E. Kiracofe Ave. ,Elida
18348	AIRCRAFT ELECTRICAL COMPONENTS	2482 Progress Drive ,Redding
18349	AIRCRAFT ELECTRONICS ASSOCIATION	3570 NE Ralph Powell Road ,Lee S Summit
18351	AIR-CRAFT ENVIRONMENTAL SYSTEMS, INC.	120 Post Avenue ,Hilton
18352	AIRCRAFT FASTENERS INTERNATIONAL, LLC	13402 Beach Ave. ,Marina Del Rey
18354	AIRCRAFT FOUNDRY CO, INC.	5316 Pacific Blvd ,Huntington Park
18355	AIRCRAFT GEAR CORPORATION	611 Beacon Street ,Loves Park
18356	AIRCRAFT GUARANTY HOLDINGS LLC	P.O. Box 2549 ,Onalaska
18357	AIRCRAFT HARDWARE WEST	2180 Temple Ave ,Long Beach
18358	AIRCRAFT HINGE, INC.	24930 Avenue Tibbitts ,Valencia
18359	AIRCRAFT INFORMATION SERVICES INC.	26072 Merit Circle Suite 123 ,Laguna Hills
18361	AIRCRAFT INSTRUMENT & RADIO CO.	1853 S Eisenhower Ct ,Wichita
18362	AIRCRAFT INTERNATIONAL INC	4444 Hickory Lane ,Hillsboro
18363	AIRCRAFT INVENTORY MANAGEMENT & SERVICES, LTD.	14936 Trend Drive ,Dallas
18366	AIRCRAFT MECHANICS FRATERNAL ASSOC.	14001 E Iliff Ave Ste 217 ,Aurora
18370	AIRCRAFT PERFORMANCE GROUP, INC.	823 South Perry Street, Suite 210 ,Castle Rock
18371	AIRCRAFT PLATING CORPORATION	1106 Clark Ave ,Cleveland
18373	AIRCRAFT PROPELLER SERVICE, INC.	290 Larkin Dr ,Wheeling
18375	AIRCRAFT RUBBER MANUFACTURING	1550 NE Kingwood Avenue ,Redmond
18376	AIRCRAFT SERVICES GROUP, INC.	212 Route 94 ,Vernon
18377	AIRCRAFT SERVICES INTERNATIONAL GROUP, INC.	201 South Orange Ave, Suite 1400 ,Orlando
18378	AIRCRAFT SERVICES LLC	470 North 2400 West ,Salt Lake City
18379	AIRCRAFT SOLUTIONS, LLC	6209 Interstate Drive ,Shreveport
18380	AIRCRAFT SPECIALISTS, INC.	6005 Propeller Lane ,Sellersburg
18381	AIRCRAFT SPECIALTIES SERVICES, INC.	2860 North Sheridan ,Tulsa
18382	AIRCRAFT SYSTEMS & MANUFACTURING, INC.	302 Toledo Trail ,Georgetown
18385	AIRCRAFT TECHNICAL PUBLISHERS	101 South Hill Drive ,Brisbane
18386	AIRCRAFT TRADING CENTER INC	17885 SE Federal Highway ,Tequesta
18387	AIRCRAFT TUBULAR COMPONENTS, INC.	3939 Dow Rd ,Melbourne
18388	AIRCRAFT WELDING, INC.	8995 Riverwood Way ,Kirtland
18390	AIRCRAFTPOST INC	16 Jetway Drive ,Albany
18392	AIR-CURE, INC.	8501 Evergreen Blvd ,Coon Rapids
18393	AIRD DORRANCE, INC.	200 Kent Falls Road ,Morrisonville
18394	AIRD, INC.	378 Miller Way ,Farmington
18395	AIRDAT, LLC	1100 Perimeter Park Drive ,Morrisville
18397	AIRDEX, INC	385 New Brunswick Avenue ,Fords
18402	AIRDUSCO, INC.	4739 South Mendenhall Road ,Memphis
18403	AIRDYE SOLUTIONS, LLC	1000 Pleasant Valley Road ,Harrisonburg
18404	AIRDYNE, LTD	14603 Chrisman Rd. ,Houston
18405	AIRE CO.	5426 West 131st Terrace ,Overland Park
18406	AIRE SHEET METAL, INC.	1973 East Bay Shore Road ,Redwood City
18407	AIRE TECH MECHANICAL SERVICES	5507 Force Four Parkway ,Orlando
18410	AIRECO SUPPLY, INC.	8860 Gorman Road ,Laurel
18411	AIRECON MANUFACTURING CORPORATION	5271 Brotherton Ct ,Cincinnati
18413	AIREFCO, INC.	18755 SW Teton Ave ,Tualatin
18414	AIREKO CONSTRUCTION, CORP	Po Box 2128 ,San Juan
18415	AIRE-RIDE TRANSFER INC	595 Shrewsbury Ave Suite 204 ,Shrewsbury
18416	AIRE-RITE AIRCONDITIONING & REFRIGERATION	15122 Bolsa Chica St ,Huntington Beach
18417	AIRES CONSULTING GROUP, INC.	1550 Hubbard Ave ,Batavia
18418	AIRES JEWELERS CO.	3 Harrison Ave ,Morris Plains
18419	AIRES LLC	824 East Fort Lowell Road ,Tucson
18420	AIRES PHARMACEUTICALS	4365 Executive Dr Ste 1500 ,San Diego
18421	AIRESOURCE INTERNATIONAL CORP.	6175 N.W. 167 St., #G19 ,Miami
18422	AIRESPRING, INC.	6060 Sepulveda Blvd, Ste 220 ,Van Nuys
18423	AIRETECH CORPORATION	P. O. Box 23207 ,Little Rock
18426	AIREX CORPORATION	15 Lilac Lane ,Somersworth
18427	AIREX FILTER CORPORATION	14 Clement Road ,Hudson
18430	AIRFASCO INC.	2655 Harrison Ave Sw ,Canton
18431	AIRFASCO INDUSTRIES FASTENER GRO	2655 Harrison Ave Sw ,Canton
18433	AIRFLEET CAPITAL, INC.	5355 W Chandler Blvd Ste 5 ,Chandler
18434	AIRFLITE, INC.	C/O Toyota Motor Sales, U.S.A., Inc ,Torrance
18435	AIRFLO COMPANY, INC.	15500 Irwin Street, Unit 1053 ,Van Nuys
18436	AIRFLO COOLING TECHNOLOGIES	728 S Wheeling Ave ,Tulsa
18438	AIRFLO SALES, INC.	204 Park Court ,Ridgeland
18439	AIRFLOTEK, INC.	2150 Northmont Parkway Suite H ,Duluth
18440	AIRFLOW EQUIPMENT, INC	11 S Fort Thomas Ave ,Fort Thomas
18441	AIRFLOW PRODUCTS COMPANY, INC	100 Oak Tree Drive ,Selma
18442	AIRFLOW PRODUCTS, INC.	24 Park Avenue ,Hueytown
18444	AIRFLOW SERVICE COMPANY	8832 Rixlew Lane ,Manassas
18446	AIRFLOW SYSTEMS, INC.	11221 Pagemill Road ,Dallas
18447	AIRFLYTE, INC.	32 Airport Dr ,Westfield
18448	AIRFOIL IMPELLERS CORPORATION	2010 Fountain Ave. ,Bryan
18449	AIRFOIL PUBLIC RELATIONS, INC.	1000 Town Center Drive ,Southfield
18452	AIRGARD, INC.	2190 Paragon Drive ,San Jose
18457	AIRGLAS, INC.	3500 Omalley Rd ,Anchorage
18459	AIRGO USA, LLC	10161 Park Run ,Las Vegas
18462	AIRGUN DESIGNS, INC.	7023 E. Alhambra Drive ,Sierra Vista
18463	AIRHART CONSTRUCTION CORP.	500 E Roosevelt Rd ,West Chicago
18464	AIRHART ELECTRIC, INC.	595 Read School House Road ,Coventry
18465	AIRHOP COMMUNICATIONS INC	6150 Lusk Blvd Ste B204-B205 ,San Diego
18466	AIRIN TECHNOLOGIES INC	10537 Macarthur Blvd ,Potomac
18467	AIRINC	1100 Massachusetts Avenue ,Cambridge
18468	AIRIQ U.S., INC.	1815 Ironstone Manor, Unit 10 ,Pickering
18470	AIRITE AIR CONDITIONING, INC.	5334 W. Crenshaw Street ,Tampa
18471	AIRITE, INC.	10779 Fremont Ave., ,Ontario
18472	AIRKA, INC.	1834 Blaine Terrace ,Winter Park
18475	AIRKINETICS, INC.	1308 S. Allec Street ,Anaheim
18477	AIRLANCO, INC.	312 S. Highway 73 ,Falls City
18478	AIR-LAND TRANSPORT SERVICE, INC.	Po Box 968 ,Morton
18480	AIRLIE FOUNDATION	6809 Airlie Road ,Warrenton
18483	AIRLINE ACCESSORY SERVICE COMPANY,LLC	455 Putnam Avenue ,Hamden
18486	AIRLINE CONTAINER LEASING, LLC	436 Saco Lowell Road ,Easley
18487	AIRLINE DRUG DBA LOUIS & CLARK DRUG	309 East Street ,Springfield
18488	AIRLINE EMPLOYEE TRAVEL LLC	1410 Live Oak Street ,Columbus
18490	AIRLINE HYDRAULICS CORPORATION	3557 Progress Drive ,Bensalem
18491	AIRLINE INFORMATION RESEARCH I	Inc ,Sapphire
18492	AIRLINE INTERNATIONAL LUGGAGE INC.	8701 Montana Ave. ,El Paso
18493	AIRLINE PLANNING GROUP, LLC	1775 Wiehle Avenue ,Reston
18496	AIRLINE TARIFF PUBLISHING COMPANY	45005 Aviation Drive ,Dulles
18497	AIRLINE TRAINING CENTER ARIZONA	1658 S. Litchfield Road ,Goodyear
18499	AIRLINE USED AUTO PARTS INC	10616 Airline Drive ,Houston
18500	AIRLINERS DISTRIBUTING INC	6414 Windy St ,Las Vegas
18501	AIRLINES REPORTING CORPORATION	3000 Wilson Boulevard ,Arlington
18502	AIRLINK SYSTEMS, INC.	555 Round Rock West Drive ,Round Rock
18503	AIRLITE PLASTICS CO	6110 Abbott Drive ,Omaha
18505	AIRLOGICA CORPORATION	801 East Campbell Rd ,Richardson
18506	AIRMAKER INC	Po Box 7704 ,Houston
18507	AIRMAKERS HEATING & AIR CONDITIONING INC	5420 Old Poole Road ,Raleigh
18508	AIRMALL USA, INC.	P O Box 12318 ,Pittsburgh
18510	AIRMAR TECHNOLOGY CORPORATION	35 Meadowbrook Drive ,Milford
18511	AIRMARK, INC	1865 W. Wayzata Blvd. ,Long Lake
18512	AIRMASTER FAN COMPANY	Po Box 968 ,Jackson
18513	AIR-MASTER HEATING & AIR CONDITIONING, LLC	2870 Coolidge Highway ,Berkley
18514	AIRMASTERS, LLC	4200 Heritage Drive ,North Little Rock
18515	AIRMATE CO., INC	16280 County Rd. D ,Bryan
18516	AIRMATIC COMPRESSORS SYSTEMS, INC.	700 Washington Avenue ,Carlstadt
18517	AIR-MATIC PRODUCTS COMPANY, INC	22218 Telegraph Road ,Southfield
18518	AIRMATIC, INC.	284 Three Tun Road ,Malvern
18521	AIRMED INTERNATIONAL, LLC	1000 Urban Center Drive ,Birmingham
18523	AIRMED, INC.	4328 Wheeler Rd ,Martinez
18524	AIRMEN HVAC SERVICE	405 Airport Road ,Montoursville
18525	AIRMO INC	9445 Evergreen Blvd NW ,Coon Rapids
18527	AIRNAB, LLC DBA BUILDING START	4900 S. Minnesota Ave. ,Sioux Falls
18528	AIRNET GROUP, INC.	801 Broad Street, Sutie 530 ,Chattanooga
18531	AIRO IMPORTATION, INC	401K Profit Sharing Plan ,Escondido
18532	AIR-OIL SYSTEMS, INC.	753 Wambold Road ,Mainland
18538	AIROSOL COMPANY, INC.	P.O. Box 120 ,Neodesha
18540	AIROYAL. COMPANY INC.	43 Newark Way ,Maplewood
18541	AIR-PAK SERVICES, INC.	6966 Venture Circle ,Orlando
18543	AIRPARTS COMPANY, INC.	2310 NW 55th Court ,Fort Lauderdale
18544	AIRPATROL CORPORATION	8171 Maple Lawn Blvd ,Maple Lawn
18547	AIRPORT & AVIATION MANAGEMENT, INC.	5363 Mountain Road, ,Germansville
18548	AIRPORT & AVIATION PROFESSIONALS, INC.	5551 Ridgewood Drive ,Naples
18549	AIRPORT ACCEPTANCE CORPORATION	3450 Airport Hwy ,Alcoa
18555	AIRPORT AVIATION SERVICES	Po Box 37779 ,San Juan
18558	AIRPORT CONCESSIONS GROUP, INC.	3663 SW 8th Street ,Miami
18559	AIRPORT CONSULTANTS COUNCIL	908 King St, Suite 100 ,Alexandria
18560	AIRPORT CORRIDOR TRANSPORTATION ASSOCIATION	Robinson Plaza Two Suite 420 ,Pittsburgh
18561	AIRPORT DENTAL	905 Garden Gate Circle ,Pensacola
18563	AIRPORT DEVELOPMENT GROUP, INC.	1776 South Jackson St., Suite 950 ,Denver
18565	AIRPORT DRAYAGE, CO., INC.	6331 NE 112Th Ave. ,Portland
18567	AIRPORT EXPRESS, INC	Po Box 950488 ,Oklahoma City
18570	AIRPORT GROUND HANDLERS INC.	52 Curtis Place ,Bethpage
18580	AIRPORT PODIATRY GROUP	9100 S. Sepulveda, Suite 100 ,Los Angeles
18588	AIRPORT SUPPORT SERVICES LLC	185 Rykowski Lane ,Middletown
18589	AIRPORT TERMINAL SERVICES INC.	111 Westport Plaza Drive Suite 400 ,St. Louis
18592	AIRPORTS COUNCIL INTL - NORTH AMERICA	1615 L Street, NW, Suite 300 ,Washington
18594	AIRPOWER INTERNATIONAL, INC.	7303 River Road ,Pennsauken
18595	AIRPRO FAN & BLOWER COMPANY, LLC	4858 Highway 17 N ,Rhinelander
18596	AIRPRO MOBILE AIR, LLC	7102 N. Sam Houston Pkwy W ,Houston
18597	AIRQUIP, INC.	830 Linden Avenue ,Rochester
18598	AIRREADY MRO SERVICES INC	Po Box 1248 ,Melbourne
18599	AIR-REF CO INC	2703 N Dixie Hwy ,Delray Beach
18601	AIR-RITE MANUFACTURING, LLC	540 West 600 South ,Bountiful
18602	AIRROSTI REHAB CENTERS LLC	911 Central Pkwy N Ste 300 ,San Antonio
18603	AIRSAN CORPORATION	4554 W. Woolworth Ave. ,Milwaukee
18606	AIRSCHOTT INC.	Po Box 17373 ,Washington
18607	AIR-SEA FORWARDERS INC.	9009 La Cienega Boulevard ,Inglewood
18609	AIR-SERV GROUP, LLC	13315 Carowinds Blvd. ,Charlotte
18611	AIRSHIP VENTURES, INC.	P.O. Box 1681 ,Campbell
18612	AIRSIDE CONCEPTS INC	12110 Portal Rd ,La Vista
18617	AIRSOUTH INSURANCE, INC.	Post Office Box 6727 ,Dothan
18618	AIRSPAN NETWORKS, INC	777 Yamato Road ,Boca Raton
18621	AIRSPEC, INC.	5520 County Road 44A ,Wildwood
18622	AIRSPED, INC.	1300 Mark St ,Bensenville
18624	AIRSPEED, LLC.	980 Corporate Dr Suite 200 ,Hillsborough
18625	AIRSPRINT US, INC.	1910 Mccall Landing Ne ,Calgary
18627	AIRSTREAM CORP.	225 Millburn Avenue - Suite 202 ,Millburn
18628	AIRSTREAM SERVICES, CORPORATION	1313 Ponce De Leon Blvd., Suite 201 ,Coral Gables
18629	AIRSTREAMS RENEWABLES, INC.	785 Tucker Road, Pmb #318, Suite G ,Tehachapi
18631	AIR-SUR, INC.	141 Sagebrush Trail ,Ormond Beach
18632	AIRSURE LIMITED LLC	25548 Genesee Trail Rd ,Golden
18634	AIRTEAM, LTD.	6119 Westview Drive ,Houston
18635	AIRTEC, INC.	P.O. Box 40 ,Hollywood
18636	AIRTECH COMPANY INC.	212 Technology Park Lane ,Fuquay Varina
18637	AIR-TECH ENVIRONMENTAL LLC	Po Box 12353 ,Durham
18638	AIRTECH ENVIRONMENTAL SERVICES, INC.	1371 Brummel Ave ,Elk Grove Village
18639	AIRTECH INTERNATIONAL, INC	5700 Skylab Road ,Huntington Beach
18640	AIRTECH INTERNATIONAL, INC.	106 Stonehurst Court ,Northvale
18642	AIRTECH SUPPLY, INC.	3058 Hwy 290 ,Hot Springs
18643	AIRTECH THERMEX	4918 West 35th Street ,St. Louis Park
18648	AIRTEK INC	282 Central St Ste 5 ,Hudson
18649	AIRTEK, INC.	76 Clair Street ,N. Huntingdon
18650	AIRTEK, LLC	4410 West 37th Avenue ,Hobart
18651	AIRTELLIGENCE INC	28509 N 104th St ,Scottsdale
18652	AIRTEX DESIGN GROUP, INC.	1620 Broadway Street Ne ,Minneapolis
18655	AIRTEX PRODUCTS LP	407 W Main St ,Fairfield
18656	AIRTEX PRODUCTS, INC	259 Lower Morrisville Rd ,Fallsington
18657	AIRTIGHT CONSTRUCTION INC	1033 Shary Cir Ste A ,Concord
18658	AIRTIME MEDIA, LLC	110 Wild Duck Road ,Stamford
18659	AIRTITE COMPANY	640 Rodi Road ,Pittsburgh
18660	AIR-TITE HOLDERS, INC.	1560 Curran Highway ,North Adams
18661	AIRTRAK TAVEL SYSTEMS, INC	19 Grant Street ,Mount Holly
18662	AIRTRAN AIRWAYS, INC.	2702 Love Field Drive ,Dallas
18665	AIRTREKS	545 Sutter Street ,San Francisco
18666	AIR-TRO, INC.	1630 South Myrtle Avenue ,Monrovia
18667	AIRTROL COMPONENTS, INC.	17400 West Liberty Lane ,New Berlin
18669	AIRTROL, INC.	3960 North Street ,Baton Rouge
18672	AIRTRONICS, INC.	1822 S. Research Loop ,Tucson
18673	AIRTUBE SERVICE CO LLC	4168 Madonna Rd ,Jarrettsville
18675	AIRVAC, INC.	4217 North Old Us 31 ,Rochester
18676	AIRVANA LP	19 Alpha Road ,Chelmsford
18677	AIRVANA NETWORK SOLUTIONS INC.	19 Alpha Road ,Chelmsford
18678	AIRVELOCITY, INC	126 Pebble Beach Drive ,Little Rock
18680	AIRWATCH	1155 Perimeter Center West ,Atlanta
18681	AIRWATCH LLC	1155 Perimeter Center West ,Atlanta
18682	AIRWAVE NETWORKS INCORPORATED	111 Indian Lane ,Annapolis
18684	AIRWAVES, INC.	13400 Riverside Dr, Ste 103 ,Sherman Oaks
18685	AIRWAY ANIMAL CLINIC, INC	4092 Colonel Glenn Highway ,Dayton
18688	AIRWAY HEIGHTS DENTAL CENTER	13326 W. Sunset Highway ,Airway Heights
18690	AIRWAY MECHANICAL CORPORATION	7621 Jackson St ,Paramount
18691	AIRWAY MEDICAL	437 E. Line ,Bishop
18693	AIRWAY SHEET METAL CO., INC.	110 Oak Grove Road ,Sterling
18696	AIRWAYS CLEANING AND FIREPROOFING COMPANY OF FLORIDA, INC.	4720 Oaks Road Bay E ,Davie
18701	AIRWAYS, INC.	2015 4th Avenue ,Rock Island
18702	AIR-WEIGH	1730 Willow Creek Circle ,Eugene
18703	AIRWELD INC	94 Marine St ,Farmingdale
18705	AIRWEST HELICOPTERS, LLC	6791 N Glen Harbor Blvd ,Glendale
18706	AIRWIDE SOLUTIONS INC.	1111 St. Charles Street W ,Longueuil
18708	AIRWORTHY AEROSPACE INDUSTRIES, INC.	2020 Oneil Road ,Hudson
18709	AIRWORX CONSTRUCTION EQUIPMENT & SUPPLY, LLC	501 West Raymond Street ,Indianapolis
18711	AIRXCHANGE INC	85 Long Water Drive ,Rockland
18712	AIR-X-LIMITED	2230 E. 49th St. ,Tulsa
18713	AIRXPANDERS INC	1047 Elwell Ct ,Palo Alto
18714	AIS CAPITAL MANAGEMENT, L.P.	187 Danbury Rd. ,Wilton
18715	AIS COMMERCIAL PARTS & SERVICE, INC.	1005 Parkway View Dr ,Pittsburgh
18716	AIS CONSTRUCTION COMPANY	1811 Betteravia Road ,Santa Maria
18717	AIS CONTAINER HANDLING, INC.	7000 Dutton Industrial Drive ,Dutton
18718	AIS DATA SERVICES, LP	5847 San Felipe, Suite 1200 ,Houston
18719	AIS ENGINEERING INC	804 Pershing Drive ,Silver Spring
18721	AIS HOLDINGS, INC.	1544 Guadalajara Dr. ,San Jose
18723	AIS INSURANCE SERVICES, INC.	8620 Estrelita Drive ,Las Vegas
18724	AIS RISK CONSULTANTS, INC.	4400 Route 9 South ,Freehold
18725	AIS SPECIALTY PRODUCTS INC	9831 Independence Ave ,Chatsworth
18727	AISC HOLDINGS, INC.	One East Wacker Drive, Suite 700 ,Chicago
18728	AISD, INC.	901 La Barr Meadows Road, Suite C ,Grass Valley
18729	AISE SOLUTIONS, LLC	9259 West Court ,White Plains
18731	AISH HATORAH OF CLEVELAND	14077 Cedar Rd. Ste. 7 ,South Euclid
18732	AISHA O MOORE DDS PC	636 Crown Point Lane Ste 105 ,Rock Hill
18736	AISIN DRIVE TRAIN INC.	1001 Industrial Way ,Crothersville
18738	AISIN MFG. ILLINOIS	11000 Redco Drive ,Marion
18740	AIS-INTERNATIONAL LTD.	6900 282nd Pl NW ,Stanwood
18742	AISLE LOGIC, INC.	541 N. Dekora Woods Blvd. ,Saukville
18743	AISLE SAVVY, LLC	933 Marquette Avenue ,Minneapolis
18744	AISLE50	648 W. Randolph ,Chicago
18745	AISLING PARTNERS INSURANCE BROKERAGE, LLC	446 Main Street, 20th Floor ,Worcester
18746	AIT BIOSCIENCE, LLC	7840 Innovation Blvd ,Indianapolis
18748	AIT BUSINESS SOLUTIONS, LLC	5260 S. Ashley Drive ,Chandler
18750	AIT WORLDWIDE LOGISTICS	701 N Rohlwing Road ,Itasca
18751	AIT, LLC	5101 Wilfong Rd. ,Memphis
18752	AITA & ASSOCIATES INSURANCE MKTG., INC.	418 Petaluma ,Sebastopol
18754	AITA FINANCIAL GROUP, INC.	92 Bee Brook Road ,Washington Depot
18757	AITE GROUP, LLC	101 Arch Street ,Boston
18758	AITECH DEFENSE SYSTEMS, INC.	19756 Prairie St ,Chatsworth
18759	AITECH INTERNATIONAL CORP.	1288 Kifer Road Suite 203 ,Sunnyvale
18761	AITG INC	7631 Coppemine Drive ,Manassas
18766	AITKEN, AITKEN & COHN, A LAW CORPORATION	3 Macarthur Place, Suite 800 ,Santa Ana
18768	AITKIN IRON WORKS, INC.	301 Bunker Hill Drive ,Aitkin
18769	AITKIN MOTOR COMPANY	108 2nd Street Northeast ,Aitkin
18771	AITORO APPLIANCE CO.	401 Westport Avenue ,Norwalk
18772	AIV SOLUTIONS, LLC	20,000 Horizon Way ,Mount Laurel
18773	AIV, L.P.	7140 W Sam Houston Pkwy N ,Houston
18775	AIW ALTON, INC	1475 Palisado Ave ,Windsor
18776	AIW INC.	5010 Inwood St ,Hyattsville
18777	AIWOHI BROS INC.	91-1600 Wahane Street ,Kapolei
18778	AIX HOLDINGS, INC.	726 Exchange St ,Buffalo
18779	AIXTRON, INC.	1139 Karlstad Drive ,Sunnyvale
18780	AIY PROPERTIES INC	2 Summit Park Drive 645 ,Independence
18784	AJ & J ENTERPRISES, INC	P.O.Box 3190 ,Bloomington
18786	AJ ADHESIVES, INC.	4800 Miami Avenue ,Saint Louis
18787	AJ APPLIANCE INC	1437 W. Passyunk Ave ,Philadelphia
18791	AJ CONSTRUCTION OF WISCONSIN, LLC	N9014 Highway 42 ,Cleveland
18792	AJ DEMOR & SONS INC	2150 Eldo Road ,Monroeville
18794	AJ EDMOND CO.	1530 West 16th Street ,Long Beach
18797	AJ HOMES INC	8455 Scott Dr ,Trussville
18801	AJ LOGISTICS, INC.	2010 Inwood Drive ,Fort Wayne
18802	AJ LUPAS INSURANCE COMPANY	220 S River Street ,Plains
18804	AJ MECHANICAL SERVICES, INC	6250 Webster Street ,Dayton
18808	AJ PLUMBING, LLC	5327 E University ,Pleasant Hill
18809	AJ POOL PLASTERING LLC	265 Hathaway Dr ,Stratford
18810	AJ PRECISION, INC.	25 Century Street ,Agawam
18812	AJ ROD COMPANY INC	5011 Navigation Blvd ,Houston
18821	AJ TRANSPORTATION INC	1467 N Linden Ave ,Rialto
18823	AJ USA, INC.	6620 Mira Mesa Blvd. ,San Diego
18824	AJ VENEKLASEN, INC	5000 Kendrick St, Se ,Grand Rapids
18825	AJ WALTER AVIATION, INC	5521 NW 78th Ave. ,Miami
18826	AJ WASTE SYSTEMS LLC	22 Burton Drive ,Cheshire
18827	AJ WEALTH STRATEGIES LLC	30 Broad St ,New York
18833	AJA, INC.	130 Kingswood Drive ,Huntsville
18836	AJACS DIE SALES CORPORATION	3855 Linden Se ,Grand Rapids
18838	AJAI K. NEMANI, M.D., PLLC	30 Hagen Dr Ste 230 ,Rochester
18841	AJAMIE LLP	711 Louisiana, Suite 2150 ,Houston
18846	AJASA TECHNOLOGIES, INC.	1710 Douglas Drive North ,Golden Valley
18847	AJAX BOILER, INC	2701 South Harbor Boulevard ,Santa Ana
18848	AJAX BUILDING CORPORATION	1080 Commerce Blvd ,Midway
18851	A-JAX COMPANY INC	1500 E 8th St ,Jacksonville
18852	AJAX CONSTRUCTION CO., INC.	2833 Victory Highway ,Harrisville
18853	AJAX CONSTRUCTION, INC.	Po Box 1688 ,Ocala
18855	AJAX ELECTRIC COMPANY	60 Tomlinson Road ,Huntingdon Valley
18857	AJAX GLASS & MIRROR CO. INC	6200 Southwest Blvd ,Benbrook
18864	AJAX ROLLED RING & MACHINE, LLC	500 Wallace Way ,York
18865	AJAX ROLLED RING AND MACHINE, INC.	500 Wallace Way ,York
18867	AJAX SMITH, INC.	4000 River Road ,Tonawanda
18868	AJAX TOOL WORKS, INC	10801 Franklin Ave ,Franklin Park
18869	AJAX TURNER CO., INC.	4010 Centrepointe Way ,Lavergne
18870	AJAX UNIFORM RENTAL, INC.	1005 Geneva Street ,Shorewood
18871	AJAX UNITED PATTERNS AND MOLDS, INC.	34585 7th Street ,Union City
18872	AJAX WINDOW CORPORATION	625 Century Avenue Sw ,Grand Rapids
18880	AJAY GLASS & MIRROR CO. INC	101 North Street ,Canandaigua
18885	AJAY METAL FABRICATORS, INC.	355 Dalziel Road ,Linden
18887	AJAY NORTH AMERICA LLC	P.O. Box 127 ,Powder Springs
18889	AJAY PAL, DENTIST, P.C.	4281 Homer Ave. ,Cortland
18893	AJAY R. PATEL, D.D.S., INC.	3381 G Street, Suite A, Bldg. M ,Merced
18894	AJAY SURI, D.D.S., M.S., P.A.	25 Eagle Talon Cove ,Little Rock
18898	AJB SALES	2520 Broadway NE, Suite 102 ,Minneapolis
18901	AJC ARCHITECTS PC	703 East 1700 ,South Salt Lake City
18905	AJC LOGISTICS, LLC	40 Carr 165 Ste 202 ,Guaynabo
18906	AJC SANDBLASTING INCORPORATED	932 Schley Ave ,Wilmington
18908	AJC TOOLS & EQUIPMENT	5145 Hudson Drive ,Hudson
18910	AJD FOREST PRODUCTS LIMITED PARTNERSHIP	Po Box 629 ,Grayling
18912	AJD INSURANCE BROKERS INC	95 Woodvale Loop ,Staten Island
18913	AJD VENTURES INC.	322 Samuel Drive ,Whitinsville
18918	AJEY VARMA, D.D.S., PLLC	2302 S. Union, Bldg. B, Suite 17 ,Tacoma
18921	AJF CUSTOM HOMES	P.O. Box 27705 ,Scottsdale
18924	AJF FINANCIAL SERVICES INC.	475 Park Avenue So Suite 700 ,New York
18925	AJF INC.	P. O. Box 697 ,New Boston
18928	AJFC COMMUNITY ACTION AGENCY	P O Box L ,Natchez
18933	AJH DESIGN	216 Oakwood Avenue ,Elmira
18937	AJI FENCE LTD.	909 East 68th Avenue ,Denver
18938	AJI IRRIGATION COMPANY	909 E. 68th Avenue ,Denver
18939	AJI NETWORK INC	717 N Shoreline Blvd ,Mountain View
18942	AJINOMOTO ALTHEA, INC.	11040 Roselle Street ,San Diego
18943	AJINOMOTO FROZEN FOODS USA, INC.	7124 N. Marine Drive ,Portland
18944	AJINOMOTO FROZEN FOODS, USA, INC.	7124 N. Marine Drive ,Portland
18945	AJINOMOTO HEARTLAND LLC	8430 W Bryn Mawr Ave ,Chicago
18946	AJINOMOTO HEARTLAND, INC.	8430 W Bryn Mawr ,Chicago
18947	AJINOMOTO NORTH AMERICA, INC.	400 Kelby Street ,Fort Lee
18950	AJIT HEALTHCARE, INC.	316 S. Westlake Avenue ,Los Angeles
18961	AJJ ENTERPRISES, INC.	11020 Kingston Pke., #110 ,Knoxville
18963	AJK FINANCIAL GROUP	20 Crossways Park North ,Woodbury
18965	AJK HOLDINGS INC.	12326 Sleepy Lake Ct ,Fairfax
18966	AJK, INC	412 Goodwin Rd ,Hatboro
18969	AJL LITIGATION MEDIA, INC.	P.O. Box 880589 ,San Diego
18970	AJL MANUFACTURING INC.	100 Holleder Parkway ,Rochester
18971	AJL, INC. DBA A.J. LONGO & ASSOCIATES	253 North Lake Avenue ,Pasadena
18976	AJM FRAMERS INC.	16850 Diana Lane Ste 102 ,Houston
18979	AJM PACKAGING CORPORATION	East 4111 Andover Road ,Bloomfield Hills
18988	AJO COMMUNITY HEALTH CENTER DBA DESERT SENITA COMMUNITY HEALTH CENTER	410 N. Malacate St. ,Ajo
18989	A-JOUR NET, INC.	953 St Andrews Lane ,Louisville
18990	AJP CORPORATION	803 Logan Street ,Goshen
18991	AJP ELECTRIC, INC.	11250 N. Cave Creek Road ,Phoenix
18992	AJP III CONSTRUCTION LLC	644 Tabernacle Road ,Medford
18993	AJP INSURANCE BROKERS, INC.	44684 Pride Mountain Street ,Temecula
18995	AJR ASSOCIATES, INC.	1 Belmont Avenue ,Bala Cynwyd
18996	AJR FILTRATION, INC.	3635 Swenson Avenue ,St. Charles
19000	AJR METALWORKS, INC.	2825 Reward Lane ,Dallas
19003	AJS ASSOCIATES	7604 Highway 60 ,Sellersburg
19004	AJS BUSINESS SERVICES, INC.	5700 Ridgefield Lane ,Little Rock
19005	AJS CAPITAL HOLDINGS, LLC	67B Mountain Blvd. Extension ,Warren
19007	AJS DESIGNS	237 West 35th Street ,New York City
19008	AJS ENTERPRISES, INC.	6507 E Ranch Rd ,Cave Creek
19010	AJS LANDSCAPING & DESIGN, INC.	1223 West 21st Street ,Houston
19011	AJS MANAGEMENT INC	300 South A Street #202 ,Oxnard
19012	AJS MASONRY, INC.	2 Dunsbach Road ,Clifton Park
19019	AJT & ASSOCIATES,INC.	8910 Astronaut Boulevard ,Cape Canaveral
19022	AJUBITA, LEFTWICH AND SALZER, LLC	1100 Poydras, Suite 1500 ,New Orleans
19023	AJULIA LLC	2 King Arthur Ct ,North Brunswick
19027	AJW TECHNOLOGY CONSULTANTS, INC.	445 Apollo Beach Blvd ,Apollo Beach
19028	AJW, INC.	2200 Wilson Blvd ,Arlington
19030	AK AEROSPACE TECHNOLOGY CORP.	12970 Brighton Dam Road ,Clarksville
19031	AK ASSOCIATES	15 Clinton Ave Ste 4 ,Rockville Centre
19032	AK ASSOCIATES LLC	33 Sherwood Court ,Jackson
19033	AK CONSTRUCTORS, INC.	1828 Railroad Street ,Corona
19035	AK DISTRICT ENGINEERS FCU	2204 3rd St ,Elmendorf Afb
19036	AK ELECTRIC, INC.	345 Wilbraham Street ,Palmer
19041	AK FINANCIAL GROUP	6 Venture, Suite 390 ,Irvine
19044	AK INDUSTRIAL CONTRACTORS, INC.	2224 Highway 267 S ,Searcy
19045	AK LYNROS CONSTRUCTION	335 S Wayne Ave ,Cincinnati
19046	AK MACAGNA FUNERAL HOME	103 Shad Row ,Piermont
19047	AK MATERIAL HANDLING SYSTEMS, INC.	8630 Monticello Lane No. ,Maple Grove
19048	AK PARTNERS / ZS CAPITAL	300 Atlantic Street, ,Stamford
19050	AK SPORTS LLC	6025 Royal Lane Suite 126 ,Dallas
19051	AK STEEL CORPORATION	9227 Centre Pointe Drive ,West Chester
19055	AK STEEL CORPORIATION	9227 Centre Pointe Drive ,West Chester
19056	AK SYSTEMS INC	200 Metroplex Dr Ste 202 ,Edison
19057	AK TUBE LLC	30400 E. Broadway ,Walbridge
19060	AKA CONSTRUCTION, INC.	Po Box 13116 ,Dayton
19063	AKA ENTERPRISE SOLUTIONS, INC.	875 Avenues Of America 20th Floor ,New York
19064	AKA ENTERPRISES, INC.	5200 NE 127th Way ,Vancouver
19066	AKA MYSTIQUE ACCESSORIES, LLC	389 Fifth Avenue ,New York
19068	AKA SPORTS, INC.	1004 258th Avenue Ne ,Sammamish
19071	AKADA SOFTWARE, INC.	4433 Caicos Court ,Sarasota
19074	AKAL ANIMAL CLINIC, INC.	940 Berryessa Road ,San Jose
19075	AKAL ENGINEERING INC	10 Abbey Rd ,Boylston
19076	AKAL SECURITY, INC.	Po Box 1197 ,Santa Cruz
19077	AKAM LIVING SERVICES, INC.	260 Madison Avenue 12Th Floor ,New York
19079	AKAMAI LANDSCAPE & MAINTENANCE SERVICE, INC.	P.O. Box 10834 ,Honolulu
19082	AKAMAI TECHNOLOGIES, INC.	8 Cambridge Center ,Cambridge
19083	AKAMINE OYADOMARI & KOSAKI, CPAS, INC.	1440 Kapiolani Blvd Ste 900 ,Honolulu
19084	AKANA TRUCKING, INC.	209 Hao St ,Honolulu
19085	AKANKSA INC	900 Ogden Ave # 196 ,Downers Grove
19089	AKAR, INC.	1404 Third Street Promenade ,Santa Monica
19090	AKARD COMMUTATOR OF TENNESSEE	629 Universal Street ,Alcoa
19093	AKASH BAJAJ MD INC	4644 Lincoln Blvd Suite 424 ,Marina Del Rey
19094	AKASH CORPORATION	1001 East Grand ,Pomona
19096	AKASHI JAPANESE RESTAURANT INC	5830 S Dixie Hwy ,South Miami
19097	AKAT SCRAP METAL, INC.	1658 N. Milwaukee Ave. ,Chicago
19100	AKAY USA, LLC	500 Hartle Street, Ste. E ,Sayreville
19102	AKC MARKETING & CONSULTING, INC.	8711 Windsor Parkway ,Johnston
19104	AKCA INC.	4603 Reece Rd. ,Plant City
19105	AKCELERANT HOLDINGS LLC	100 Lindenwood Dr. ,Malvern
19107	AKCES MEDIA	32 Stony Hill Rd Ste 5 ,Bethel
19108	AK-CHIN INDIAN COMMUNITY	42507 West Peters And Nall Road ,Maricopa
19109	AKCIA, INC.	107 E Us Highway 69 ,Kansas City
19111	AKCROS CHEMICALS INC.	500 Jersey Ave ,New Brunswick
19113	AKDHC, LLC	3003 N Central, Suite 400 ,Phoenix
19115	AKEBIA THERAPEUTICS, INC.	245 First Street ,Cambridge
19116	AKEBONO BRAKE CORPORATION	34385 W. Twelve Mile Road ,Farmington Hills
19117	AKEELA, INC.	360 West Benson Blvd., Suite 300 ,Anchorage
19118	AKEL, LOGAN & SHAFER, P.A.	704 Roselle Street ,Jacksonville
19120	AKELA INC.	5551 Ekwill Street Suite A ,Santa Barbara
19121	AKELA LASER CORP	2031 Rt 130 Suite G ,Monmouth Junction
19122	AKER AMERICAN SHIPPING INC	415 Mcfarlan Rd Ste 205 ,Kennett Square
19123	AKER BUSINESS SERVICES, INC.	3010 Briarpark Drive, Suite 500 ,Houston
19124	AKER INDUSTRIAL CONSTRUCTORS INCORPORATED	3010 Briarpark ,Houston
19125	AKER KASTEN VISION AND LASER	1445 NW Boca Raton Blvd ,Boca Raton
19126	AKER METALS INC.	3010 Briarpark Drive ,Houston
19127	AKER PHILADELPHIA SHIPYARD, INC.	2100 Kitty Hawk Avenue ,Philadelphia
19130	AKER WADE POWER TECHNOLOGIES	4035 Hunterstand Court ,Charlottesville
19133	AKERMAN LLP	495 North Keller Road Suite 300 ,Maitland
19135	AKERS & WISBAR, L.L.C.	Building 8-C ,Baton Rouge
19136	AKERS BIOSCIENCES INC	201 Grove Rd ,West Deptford
19139	AKERS NATIONAL ROLL	P.O. Box 655 ,Avonmore
19146	AKESO CONSULTING LLC	9636 Masterworks Drive ,Vienna
19147	AKEY MANUFACTURING INC	Po Box 305 ,Footville
19148	AKF CONSULTING, LLC	13771 N. Fountain Hills Boulevard ,Fountain Hills
19152	AKF REPORTERS INC.	436 Blvd Of The Allies ,Pittsburgh
19153	AKG CONSTRUCTION	5550 Topanga Canyon Blvd. ,Woodland Hills
19156	AKH INC ADVANCING KNOWLEDGE HE	In Healthcare ,Jacksonville
19157	AKH INC., ADVANCING KNOWLEDGE	585 Happ Road ,Northfield
19158	AKHIA PUBLIC RELATIONS	85 Executive Parkway, Suite 400 ,Hudson
19164	AKI ENTERPRISES, INC.	2181 South Grape Street ,Denver
19166	AKIBIA INC.	4 Technology Drive ,Westborough
19169	AKILI ACADEMY OF NEW ORLEANS	1700 Pratt ,New Orleans
19170	AKILI, INC.	400 Las Colinas Blvd East, Ste 450 ,Irving
19171	AKIMA MANAGEMENT SERVICES LLC	11405 North Community House Road ,Charlotte
19172	AKIMA MANAGEMENT SERVICES, INC.	13873 Park Center Rd. ,Herndon
19173	AKIMA, LLC	13873 Park Center Rd Ste 300N ,Herndon
19174	AKIMA/DTSV, LLC	739 Thimble Shoals Blvd. Suite 101 ,Newport News
19175	AKIMEKA ,LLC	901 N. Lake Destiny ,Maitland
19177	AKIN & PORTER PRODUCE INC.	P. O. Box D ,Greenfield
19178	AKIN BROTHERS FLOORING, L.L.C..	P. O. Box 12087 ,Oklahoma City
19180	AKIN GUMP STRAUSS HAUER & FELD, LLP	1700 Pacific Avenue ,Dallas
19181	AKIN LAW GROUP PLLC	45 Broadway Suite 2650 ,New York
19184	AKIN VENTURES INC.	108 N Main ,Elkader
19185	AKINA CORPORATION	1212 S. State Street ,Chicago
19186	AKINA ENTERPRISES LLC	Po Box 933 ,Kihei
19188	AKINNOVATE LLC	22793 Zulla Chase Pl ,Ashburn
19194	AKINS FOODS, INC.	1410 N. Mullan, Suite 207 ,Spokane Valley
19195	AKINS PARKER CREATIVE, LLC	225 N. Broadway, Suite 200 ,Santa Ana
19196	AKINS PETROLEUM COMPANY, INC	P.O. Box 429 ,Valdosta
19197	AKINS PUBLIC STRATEGIES	173 Mitchell Road ,Oak Ridge
19198	AKINS, NOWLIN & PREWITT, L.L.P.	306 N. Lampasas St. ,Round Rock
19200	AKIRA KIKO INC	801 S University Dr Ste C112 ,Plantation
19201	AKIRA WOOD, INC.	619 South Main Street ,Gainesville
19204	AKITA INNOVATIONS	54 Margaret St. ,Arlington
19205	AKI-USA INC	1135 County Road 83 ,Independence
19207	AKIVA GIL COMPANY, INC.	18 East 48th Street ,New York
19208	AKIVA SCHOOL	809 Percy Warner Blvd ,Nashville
19209	AKIWA TEK, INC.	13021 Arctic Circle ,Santa Fe Springs
19211	AKJ INC	907 Salisbury Way ,Stevensville
19212	AKJ INDUSTRIES, INC.	10175 Six Mile Cypress Pkwy. ,Fort Myers
19213	AKJ WHOLESALE LLC	4702 Benson Avenue ,Halethorpe
19215	AKKERMAN, INC.	58256 266th Street ,Brownsdale
19216	AKKO FASTENER, INC.	6855 Cornell Rd ,Cincinnati
19219	AKLILU AND COBIAN INFECTIOUS DISEASES, LLC	4750 N Federal Highway,Suite 200 ,Fort Lauderdale
19220	AKLM CONSULTING, INC.	18341 Buccaneer Terrace ,Leesburg
19223	AKM, LLC	17474 Old Jefferson Highway ,Prairieville
19224	AKMAN & ASSOCIATES, P.C.	1402 Front Avenue ,Lutherville
19226	AKMI CORPORATION	19240 Cabot Boulevard ,Hayward
19227	A-KOBAK CONTAINER CO., INC.	Po Box 490 ,Hinckley
19229	AKON CORPORATION	2135 Ringwood Ave. ,San Jose
19230	AKONNI BIOSYSTEMS, INC.	400 Sagner Ave Ste 300 ,Frederick
19232	AKORN, INC.	1925 West Field Court ,Lake Forest
19234	AKOYA OPERATING PARTNERS, LLC	625 N. Michigan Ave #2450 ,Chicago
19235	AKP & ASSOCIATES, LLC	2816 Culver Rd ,Birmingham
19236	AKP AND ASSOCIATES, INC.	1121 South 46th Street ,West Des Moines
19237	AKPD MESSAGE AND MEDIA, L.L.C.	730 North Franklin, Suite 404 ,Chicago
19238	AKQA, INC.	360 Third Street, 5th Floor ,San Francisco
19239	AKQURACY, LLC	800 Washington Ave N., Suite 206 ,Minneapolis
19240	AKR ASSOCIATES, INC.	596 North Mountain Road ,Newington
19241	AKR SOLUTIONS, INC.	81 Hillbrook Dr. ,Honey Brook
19242	AKRA BUILDERS INC	Po Box 1225 ,Effingham
19243	AKRAM E. RAFLA, D.M.D., P.C.	65 Elm Street ,Worcester
19247	AKRAPOVIC AMERICA, LLC	36 Waterworks Way ,Irvine
19249	AKRAYA INC.	840 West California Avenue ,Sunnyvale
19250	AKRE CAPITAL MANAGEMENT	P.O. Box 998 ,Middleburg
19251	AKRF, INC.	440 Park Avenue South - 8th Floor ,New York
19253	AKRIDGE PROPERTIES	1421 Southeastern Ave ,Jacksonville
19254	AKRIMAX PHARMACEUTICALS, LLC	11 Commerce Drive 1st Floor ,Cranford
19255	AKRION SYSTEMS LLC	6330 Hedgewood Drive ,Allentown
19256	AKRIS	16 Newbury Street ,Boston
19258	AKRO POLYCHEM, INC.	150 N. Miller Road, Suite 300B ,Fairlawn
19259	AKROCHEM CORPORATION	3770 Embassy Parkway ,Akron
19260	AKRON AIR PRODUCTS INCORPORATED	715 Powell Ave ,Hartville
19262	AKRON AREA ORAL & MAXILLOFACIAL SURGERY	3503 Fortuna Dr Ste 1 ,Akron
19263	AKRON ART MUSEUM	1 S. High St. ,Akron
19264	AKRON AUTOMOBILE ASSOCIATION	111 West Center Street ,Akron
19265	AKRON BAPTIST TEMPLE	2324 Manchester Road ,Akron
19267	AKRON BASEBALL, LLC	300 S. Main Street ,Akron
19269	AKRON BELTING & SUPPLY CO	1244 Home Ave ,Akron
19272	AKRON COATING & ADHESIVE, INC.	365 Stanton Avenue ,Akron
19273	AKRON CONCRETE CORPORATION	910 White Pond Drive ,Akron
19274	AKRON DERMATOLOGY ASSOCIATES,INC.	3085 West Market Street, Ste 102 ,Akron
19275	AKRON DIGESTIVE DISEASE CONSULTANTS, INC.	570 White Pond Drive Suite 100 ,Akron
19276	AKRON DISPERSIONS, INC.	Po Box 4195 ,Akron
19277	AKRON ENERGY SYSTEMS, LLC	226 Opportunity Parkway ,Akron
19278	AKRON ENT ASSOCIATES, INC.	395 East Market St. ,Akron
19279	AKRON EQUIPMENT COMPANY	3522 Manchester Road ,Akron
19280	AKRON EXPRESS, INC.	3155 Albrecht Avenue ,Akron
19281	AKRON FAMILY DENTAL CENTER INC	416 Castle Pines Drive ,Akron
19282	AKRON FAMILY INSTITUTE INC	3469 Fortuna Drive ,Akron
19283	AKRON FOUNDRY COMPANY INC.	2728 Wingate Ave. ,Akron
19284	AKRON GASKET & PACKING ENTERPRISES	445 Northeast Avenue ,Tallmadge
19286	AKRON GENERAL HEALTH SYSTEM	400 Wabash ,Akron
19287	AKRON GENERAL MEDICAL CENTER	400 Wabash Ave ,Akron
19288	AKRON HARDWARE CONSULTANTS,INC.	1100 Killian Road ,Akron
19289	AKRON HIGHLAND SQUARE ORAL AND MAXILLOFACIAL SURGERY ASSOCIATES,	3500 West Market Street, Suite 2 ,Akron
19290	AKRON HYDRAULIC, INC.	151 West Dartmore Avenue ,Akron
19291	AKRON JEWISH COMMUNITY FEDERATION	750 White Pond Drive ,Akron
19292	AKRON LEGAL NEWS	60 South Summit Street ,Akron
19293	AKRON METAL ETCHING CO.	463 Locust Street ,Akron
19294	AKRON NEPHROLOGY ASSOCIATES INC	224 West Exchange St Ste 330 ,Akron
19295	AKRON NEUROLOGY, INC.	4125 Medina Road, Suite #203 ,Akron
19296	AKRON ORAL & MAXILLOFACIAL SURGERY GROUP, INC.	554 White Pond Drive Ste. B ,Akron
19297	AKRON PAINT & VARNISH, INC.	1390 Firestone Parkway ,Akron
19301	AKRON PLASTIC SURGEONS, INC.	1 Park West Blvd. Suite 350 ,Akron
19302	AKRON PLASTIC SURGEONS, LLC	1 Park West Blvd. Suite 350 ,Akron
19303	AKRON PODIATRY ASSOCIATES, INC.	3090 West Market Street ,Fairlawn
19305	AKRON POLYMER SYSTEMS, INC.	62 N. Summit St. ,Akron
19307	AKRON RADIOLOGY, INC.	525 East Market Street ,Akron
19308	AKRON REBAR COMPANY	809 W Waterloo Rd ,Akron
19309	AKRON REGIONAL HOSPITAL ASSOCIATION	3200 West Market Street Suite 200 ,Akron
19310	AKRON SPECIAL MACHINERY, INC.	2740 Cory Ave ,Akron
19312	AKRON STEEL TREATING COMPANY, INC.	82 North Miller Rd ,Akron
19313	AKRON SUMMIT COMMUNITY ACTION, INC.	55 E Mill St ,Akron
19314	AKRON SUMMIT CONVENTION & VISITORS BUREAU, INC.	77 E Mill St ,Akron
19316	AKRON TOOL & DIE CO., INC	96 East Miller Avenue ,Akron
19317	AKRON TRACTOR & EQUIPMENT, INC.	1309 Collier Road ,Akron
19318	AKRON URBAN LEAGUE	440 Vernon Odom Blvd. ,Akron
19319	AKRON URBAN MINORITY ALCOHOL AND DRUG ABUSE OUTREACH PROGRAM	665 W Market Street Suite 2D ,Akron
19320	AKRON VETERINARY REFERRAL & EMERGENCY CENTER, INC.	1321 Centerview Circle ,Copley
19321	AKRON ZOOLOGICAL PARK	500 Edgewood Ave. ,Akron
19322	AKROS PHARMA, INC.	Suite 300 ,Princeton
19323	AKROTEX, INC.	P O Box 1508 ,Orange
19326	AKS ENGINEERING AND FORESTRY, LLC	12965 SW Herman Road, Suite 100 ,Tualatin
19327	AKS LLC	385 W Trigg Ave ,Memphis
19328	AKS MACHINE, INC	3929 East Guasti Road ,Ontario
19331	AKSHAR, INC.	6033 Airline Drive ,Houston
19332	AKSHAT CORPORATION	4156 148th Ave NE Bldg I ,Redmond
19333	AKSHAYA CORPORATION	1204 Sandy Shore Rd. ,Irving
19334	AKSM SERVICE CORPORATION	100 W Third Ave Ste 350 ,Columbus
19335	AKST & AKST	150 E 58th St Fl 34 ,New York
19336	AKSTEIN EYE CENTER PC	86 Upper Riverdale Road Sw ,Riverdale
19337	AKSU ORTHOPEDIC & SPINE CENTER	390 Waterloo Blvd Suite 200 ,Exton
19338	AKSYS GAMES LOCALIZATION INC.	365 Van Ness Way, Suite 510 ,Torrance
19339	AKT 3 COMPANY	10179 Broadsword Drive ,Bristow
19340	AKT AMERICAN CAPITAL, INC.	2121 Rosecrans Ave. 6th Floor ,El Segundo
19343	AKT ENTERPRISES, INC.	5469 Stewart Drive ,Virginia Beach
19347	AKT SERVICES, LLP	680 Hawthorne Ave. SE , 140 ,Salem
19349	AKTINA MEDICAL GROUP	360 Route 9 W North ,Congers
19350	AKTION ASSOCIATES, INC.	1687 Woodlands Dr ,Maumee
19353	AKUNNA TECHNOLOGIES INC	P.O Box 425556 ,Cambridge
19355	AKVELON, INC.	3120 139th Ave Se ,Bellevue
19357	AKWEN LTD	3743 Boettler Oaks Drive, Suite A ,Uniontown
19358	AKWESASNE HOUSING AUTHORITY	378 State Route 37, Suite A ,Hogansburg
19361	AKZO NOBEL CHEMICALS	525 W Van Buren Floor 16 ,Chicago
19362	AKZO NOBEL COATINGS INC.	525 West Van Buren Street ,Chicago
19363	AKZO NOBEL PAINTS LLC	525 West Van Buren Street ,Chicago
19364	AKZO NOBEL, INC.	525 W. Van Buren Street ,Chicago
19366	AKZONOBEL, INC.	525 West Van Buren St ,Chicago
19367	AL & BOBS SPORTS	3100 South Division ,Wyoming
19368	AL & DAN INC	P O Box 177307 ,Irving
19369	AL & JOHN, INC.	147 Clinton Road ,West Caldwell
19370	AL & LID FURNITURE AND APPLIANCE, INC. DBA LIDDIARD HOME FURNISHINGS	2502 N. 400 E. ,Tooele
19374	AL ARCHARD INC AND EL MONTE TIRE INC	661 El Cajon Blvd ,El Cajon
19375	A-L ASSOCIATES	420 Lexington Avenue ,New York
19378	AL BAUMANN CHEVROLET BUICK, INC.	2379 West State Street ,Fremont
19379	AL BENNER HOMES	314 Main Road ,Holden
19380	AL BENZSCHAWEL PLUMBING, INC.	1759 County Trunk Pp ,Depere
19382	AL BETZ AND ASSOCIATES, INC.	12 Ridgeview Drive ,Westminster
19383	AL BILTON FORD-MERCURY, INC.	Po Box 786 ,Holly Hill
19385	AL BOENKER INSURANCE AGENCY, INC	6030 Lake Worth Blvd ,Fort Worth
19386	AL BOURDEAU INSURANCE SERVICE, INC.	Po Box 90419 ,Flint
19387	AL BOURGEIOS PLUMBING AND HEATING, INC.	5612 Crawford Street ,New Orleans
19388	AL BOWLER INSURANCE AGENCY, INC.	13036 Old Glenn Highway ,Eagle River
19389	AL BROOKS THEATRE TICKET AGENCY, INC.	801 So. Flower Ave., #505 ,Los Angeles
19394	AL CLARKE	One Harbor Centre ,San Diego
19396	AL CORNELLA REFRIGERATION SERVICE, INC.	208 St. Onge Street ,Rapid City
19398	AL DAVIS FURNITURE INC	1601 University Avenue ,San Diego
19401	AL DEEBY DODGE CLARKSTON, INC.	8700 Dixie Highway ,Clarkston
19402	AL DENTE, INC.	16138 Amber Rock Court ,Parker
19405	A-L EQUIPMENT CO., INC.	355 Windy Point Drive ,Glendale Heights
19406	AL FASE AND COMPANY	248 Howard St ,Des Plaines
19407	AL FIGLIOLIA	9 Endo Boulevard ,Garden City
19410	AL GORDON PLUMBING & HEATING, L.C.	3855 W. Airline Highway ,Waterloo
19411	AL HAAG & SON PLUMBING & HEATING, INC.	79-69 77th Avenue ,Glendale
19415	AL HENDRICKSON, JR. ENTERPRISES, INC.	5201 W. Sample Road ,Coconut Creek
19416	AL HORGAN GENERAL CONTRACTORS, INC.	834 Pennslyvania Blvd, Suite 101 ,Feasterville
19420	AL J. MUELLER CONSTRUCTION CO.	3901 Oakland Suite A ,St. Joseph
19421	AL J. SCHNEIDER COMPANY	325 W. Main Street Suite 1800 ,Louisville
19422	AL JAZEERA AMERICA, LLC	118 King Street ,San Francisco
19423	AL JAZEERA INTERNATIONAL USA, INC.	1627 K Street, NW ,Washington
19425	AL JOHNSON CONSULTING LLC	1700 Eureka Boulevard Suite 110 ,Roseville
19426	AL JONES ARCHITECT, LLC	7909 Wrenwood Blvd, Ste A ,Baton Rouge
19427	AL- KHOEI BENEVOLENT FOUNDATION	137-11 90th Ave. ,Jamacia
19428	AL KOLLINGER AUTO BODY, INC.	10322 Perry Highwway ,Wexford
19431	AL LARSON DISTRIBUTING, INC.	55711 893 Road ,Fordyce
19434	AL LONG FORD, INC.	13711 E. Eight Mile Rd. ,Warren
19437	AL LYNCH, INC.	P. O. Box 3380 ,Honolulu
19442	AL MARINO, INC.	1653 4th Avenue ,Charleston
19449	AL PACKER,INC.	1530 N Military Trl ,West Palm Beach
19450	AL PACKERS WHITE MARSH FORD LLC	9801 Pulaski Hwy ,Baltimore
19453	AL PHILLIPS THE CLEANER, INC.	15685 S.W. 116th Ave., Pmb 299 ,Portland
19454	AL PIEMONTE CADILLAC, INC.	Po Box 3250 ,St Charles
19455	AL PIEMONTE FORD SALES, INC.	2500 West North Avenue ,Melrose Park
19456	AL PIEMONTE NISSAN	1600 W. North Avenue ,Melrose Park
19458	AL PIEMONTES ARLINGTON HEIGHTS FORD, INC.	801 W. Dundee Rd ,Arlington Heights
19462	AL PURMORT INSURANCE INC	3340 Bee Ridge Road ,Sarasota
19464	AL ROKER PRODUCTIONS INC	429 W 53rd St Fl 3 ,New York
19465	AL S FRUIT AND SHRUB CENTER LLC	1220 N Pacific Hwy ,Woodburn
19467	AL SCHEPPERS MOTORS COMPANY	1722 Southridge Drive ,Jefferson City
19469	AL SERRA CHEVROLET INC	G-6167 South Saginaw ,Grand Blanc
19470	AL SERRA CHEVROLET, LLC	1570 Auto Mall Loop ,Colorado Springs
19473	AL SHANKLE CONSTRUCTION COMPANY	108 Calle Sol ,San Clemente
19474	AL SHULTZ ADVERTISING, INC.	1777 Lafayette St Ste 202 ,Santa Clara
19483	AL TERRY PLUMBING & HEATING, INC.	1776 Hooksett Road ,Hooksett
19486	AL TUCKER TRAILERS INC	7401 North Loop East ,Houston
19489	AL WILLEFORD CHEVROLET-OLDS, INC.	P. O. Box 1296 ,Portland
19490	AL&L CROP SOLUTIONS INC	45133 County Road 32B ,Davis
19492	AL. NEYER CORPORATION	302 W. 3rd Street ,Cincinnati
19496	ALA MOANA DENTAL CARE, INC.	1601 Kapiolani Blvd., Suite 101 ,Honolulu
19500	ALA, INC.	101 Turtle Creek Blvd ,Dallas
19503	ALAARK ROBOTICS INC	16344 W Glendale Dr ,New Berlin
19504	ALAARK TOOLING & AUTOMATION, INC.	4336 Gateway Drive ,Sheboygan
19505	ALABAMA AIR SYSTEMS, INC.	3399 Kelly Creek Road ,Odenville
19508	ALABAMA AIRPORT PARKING & STOR	5333 Messer Airport Hwy ,Birmingham
19509	ALABAMA ALLERGY & ASTHMA CENTER LLC	504 Brookwood Blvd ,Birmingham
19510	ALABAMA ANESTHESIA OF HUNTSVILLE	One Hospital Drive ,Huntsville
19511	ALABAMA ANESTHESIOLOGY & PAIN CONSULTANTS, PC	4780 Southlake Parkway ,Birmingham
19512	ALABAMA APPLESEED CENTER FOR LAW & JUSTICE, INC.	309 N. Hull Street ,Montgomery
19513	ALABAMA ARTIFICIAL LIMB & ORTHOPEDIC SERVICE INC.	1223 East South Blvd. ,Montgomery
19514	ALABAMA ASPHALT PAVEMENT ASSOCIATI	P.O. Box 70396 ,Montgomery
19515	ALABAMA ASSOCIATION OF REALTORS, INC.	522 Washington Ave ,Montgomery
19516	ALABAMA ASSOCIATION OF SCHOOL BUSIN	2227 California Street ,Huntsville
19517	ALABAMA ASTHMA ALLERGY & IMMUNOLOGY CTR	4030 Pepperwood Circle ,Huntsville
19518	ALABAMA AUTO ADJUSTERS, INC	2164 Pelham Parkway ,Pelham
19520	ALABAMA BAG COMPANY, INC.	P.O. Box 576 ,Talladega
19521	ALABAMA BANKERS ASSOCIATIION	P.O. Box 241166 ,Montgomery
19522	ALABAMA BANKERS ASSOCIATION	534 Adams Avenue ,Montgomery
19523	ALABAMA BANKERS ASSOCIATION, INC	7515 Halcyon Summit Drive ,Montgomery
19524	ALABAMA BOLT & SUPPLY, INC.	630 Air Base Blvd ,Montgomery
19525	ALABAMA BONE AND JOINT CLINIC, LLC	120 Cahaba Valley Road, Suite 100 ,Pelham
19526	ALABAMA BRIDGE BUILDERS, INC.	P.O. Box 189 ,Pelham
19527	ALABAMA BROADCASTERS ASSOCIATION	2180 Parkway Lake Dr ,Birmingham
19528	ALABAMA CARD SYSTEMS, INC.	500 Gene Reed Dr., Suite 102 ,Birmingham
19529	ALABAMA CARDIOLOGY, P.C.	1515 Bohannon Drive ,Huntsville
19530	ALABAMA CARDIOVASCULAR GROUP, P.C.	2700 10th Avenue South ,Birmingham
19533	ALABAMA CATTLEMENS ASSOCIATION	201 S. Bainbridge Street ,Montgomery
19534	ALABAMA CENTER FOR PAIN MANAGEMENT AND RESEARCH, L.L.C	860 Montclair Road, Suite 955 ,Birmingham
19535	ALABAMA CENTRAL CREDIT UNION	Po Box 2327 ,Birmingham
19536	ALABAMA CHRISTIAN ACADEMY	4700 Wares Ferry Road ,Montgomery
19537	ALABAMA CIVIL JUSTICE FOUNDATION	532 South Perry ,Montgomery
19542	ALABAMA COASTAL RADIOLOGY, P.C.	5 Mobile Infirmary Cir ,Mobile
19543	ALABAMA COLON & RECTAL INSTITUTE PC	1317 Fourth Avenue South ,Birmingham
19545	ALABAMA CONTRACT SALES, INC.	P.O. Box 3490 ,Auburn
19546	ALABAMA CONTROLS, INC.	50 Commerce Drive ,Pelham
19547	ALABAMA COUNCIL ON HUMAN RELATIONS, INC.	P. O. Box 409 ,Auburn
19548	ALABAMA COUSHATTA TRIBE OF TEXAS	571 State Park Road 56 ,Livingston
19549	ALABAMA CR UN LEAGUE	Po Box 3108 ,Tallahassee
19550	ALABAMA CREDIT CORPORATION	P O Box 70015 ,Mobile
19556	ALABAMA DIGESTIVE DISEASES, PC	985 9th Avenue SW, Ste 200 ,Bessemer
19560	ALABAMA EDUCATION ASSOCIATION	422 Dexter Avenue ,Montgomery
19562	ALABAMA EYE & CATARACT CENTER, PC	1201 11th Avenue South, Ste 501 ,Birmingham
19563	ALABAMA EYE BANK	500 Robert Jemison Rd ,Birmingham
19564	ALABAMA EYE CLINIC, PC	109A Coosa St. E ,Talladega
19565	ALABAMA EYE SURGERY, P.C.	801 Princeton Avenue, SW, Suite 530 ,Birmingham
19566	ALABAMA FAMILY DDS LLC	205 Caldwell Dr ,Warrior
19567	ALABAMA FAMILY EYE CARE	2321 John Hawkins Parkway ,Hoover
19570	ALABAMA FORESTRY ASSOCIATION, INC.	555 Alabama Street ,Montgomery
19571	ALABAMA GAS CORPORATION	2101 6th Avenue North ,Birmingham
19572	ALABAMA GOLF ASSOCIATION, INC.	1025 Montgomery Highway, Suite 210 ,Birmingham
19574	ALABAMA GRAPHICS & ENGINEERING SUPPLY, INC.	2801 Fifth Avenue South ,Birmingham
19575	ALABAMA GROCERS ASSOCIATION	300 Vestavia Parkway Suite 3500 ,Birmingham
19578	ALABAMA GYNECOLOGY ASSOC.	2055 East South Blvd., Suite 712 ,Montgomery
19582	ALABAMA HOME BUILDERS	7515 Halcyon Summit Dr Ste 200 ,Montgomery
19583	ALABAMA HOSPITAL ASSOCIATION	500 North East Blvd. ,Montgomery
19584	ALABAMA HOUSING FINANCE AUTHORITY	7460 Halcyon Pointe Drive, Ste 200 ,Montgomery
19585	ALABAMA INDEPENDENT INSURANCE AGENTS, INC.	141 London Parkway ,Birmingham
19587	ALABAMA INFECTIOUS DISEASE CENTER, P.C.	420 Lowell Drive Se ,Huntsville
19588	ALABAMA INSURANCE GUARANTY	2020 Canyon Road, Suite 200 ,Birmingham
19589	ALABAMA INSURANCE UNDERWRITING ASSOCIATION	315 East Laurel Avenue, Suite 216D ,Foley
19590	ALABAMA INTERNAL MEDICINE, P.C.	48 Medical Park Drive East,Ste 356 ,Birmingham
19591	ALABAMA LINE LOCATION CENTER DBA ALABAMA 811	3104 Bates Lane ,Fultondale
19592	ALABAMA MANUFACTURED HOUSING ASSOCIATION, INC.	7245 Halcyon Summit Drive, Suite B ,Montgomery
19593	ALABAMA METAL FABRICATORS	27094 Hwy. Us 98 ,Elberta
19594	ALABAMA MOTOR EXPRESS	Po Box 487 ,Ashford
19595	ALABAMA MOTOR EXPRESS, INC.	P.O. Box 487 ,Ashford
19596	ALABAMA NASAL AND SINUS CENTER, PC	7191 Cahaba Valley Road, Suite 301 ,Birmingham
19599	ALABAMA NEUROSURGEONS, P.C.	7500 Hugh Daniel Drive, Suite 200 ,Birmingham
19600	ALABAMA NURSING HOME ASSOCIATION, INC.	4156 Carmichael Road ,Montgomery
19602	ALABAMA ONCOLOGY HEMATOLOGY	P O Box 230667 ,Montgomery
19603	ALABAMA ONE CREDIT UNION	1215 Veterans Memorial Parkway ,Tuscaloosa
19605	ALABAMA OPHTHALMOLOGY ASSOCIATES, P.C.	1000 19th Street South ,Birmingham
19607	ALABAMA ORTHOPAEDIC CENTER, P.C.	3525 Independence Drive ,Birmingham
19609	ALABAMA ORTHOPAEDIC CLINICS PC	3610 Springhill Memorial Drive N ,Mobile
19610	ALABAMA ORTHOPAEDIC SPECIALISTS, PA	Po Box 235003 ,Montgomery
19611	ALABAMA ORTHOPEDIC INSTITUTE, INC.	1908 Cherokee Ave Sw ,Cullman
19612	ALABAMA ORTHOPEDIC,SPINE & SPORTS MEDICINE ASSOCIATES, PC	52 Medical Park Dr E Ste 115 ,Birmingham
19615	ALABAMA PAPER PRODUCTS LLC	1300 Industrial Park Drive ,Tuscaloosa
19616	ALABAMA PATHOLOGY ASSOCIATES, P.C.	225-B Winton M. Blount Loop ,Montgomery
19617	ALABAMA PEDIATRIC GASTROENTEROLOGY, P.C.	2151 Highland Avenue South ,Birmingham
19618	ALABAMA PEDIATRICS, P.C.	2815 Independence Drive ,Birmingham
19619	ALABAMA PERIODONTICS, INC.	3240 Edwards Lake Parkway Suite 200 ,Birmingham
19620	ALABAMA PET CARE CLINICS INC	1068 Airport Dr ,Alex City
19621	ALABAMA PHYSICAL REHABILITATION SERVICES, INC.	1475 First Ave Sw ,Jacksonville
19622	ALABAMA PHYSICAL SERVICES INC	430 Green Springs Hwy Ste 21 ,Birmingham
19623	ALABAMA PLATE CUTTING COMPANY	P.O. Box 128 ,Saginaw
19625	ALABAMA PSYCHIATRIC SERVICES, P.C.	2868 Acton Road ,Birmingham
19627	ALABAMA QUALITY ASSURANCE FOUNDATION	Two Perimeter Park South ,Birmingham
19629	ALABAMA QUASSARTE ECONOMIC DEVELOPMENT AUTHORITY	7800 Madison Blvd., Suite 700 ,Huntsville
19632	ALABAMA RIVER CREDIT UNION	3365 S Alabama Ave ,Monroeville
19634	ALABAMA RURAL ELECTRIC ASSOCIATION OF COOPERATIVES	Post Office Box 244014 ,Montgomery
19635	ALABAMA RURAL ELECTRIC CREDIT UNION	Po Box 240547 ,Montgomery
19636	ALABAMA SAFETY INSTITUTE, INC.	3201 Midtown Park South ,Mobile
19637	ALABAMA SELF INSURED WORKERS COMPEN ATION FUND	813 Shades Creek Parkway ,Birmingham
19639	ALABAMA SHERIFFS YOUTH RANCHES INC.	2680 Bell Road ,Montgomery
19642	ALABAMA SOUTH FAMILY PODIATRY, P.C.	256 Honeysuckle Road Suite 12 ,Dothan
19646	ALABAMA STATE BOARD OF MEDICAL EXAMINERS	848 Washington Avenue ,Montgomery
19648	ALABAMA STATE EMPLOYEES CREDIT UNION	Po Box 231150 ,Montgomery
19649	ALABAMA STATE TROOPER ASSOCIATION	P.O. Box 1286 ,Montgomery
19653	ALABAMA TEACHERS CREDIT UNION	702 Walnut Street ,Gadsden
19654	ALABAMA TELCO CREDIT UNION	One Riverchase Pkwy, So ,Birmingham
19656	ALABAMA THRIFT STORES, INC.	1248 Center Point Parkway ,Birmingham
19658	ALABAMA TRUCKING ASSOC. WORKERS COMPENSATION SELF INSURANCE FUND	7550 Halcyon Pointe Drive ,Montgomery
19659	ALABAMA TRUCKING ASSOCIATION, INC.	7550 Halcyon Pointe Drive ,Montgomery
19660	ALABAMA TUBE CORPORATION	398 Star Road ,Ft. Payne
19661	ALABAMA UROLOGY & ROBOTICS CENTER,	1107 14th Avenue SE ,Decatur
19662	ALABAMA UROLOGY ASSOCIATES, PC	2022 Brookwood Medical Ctr Ste 305 ,Birmingham
19667	ALABAMA WOMENS MEDICINE, PC	1515 Scout Ridge Drive ,Hoover
19669	ALABAR CHIROPRACTIC & REHAB CE	1224 Alabar Lane ,Cape Coral
19670	ALABASTER DENTAL CARE, PC	P.O. Box 799 ,Alabaster
19671	ALABASTER PEDIATRICS, LLC	1004 1st Street North ,Alabaster
19673	ALACARE HOME HEALTH SERVICES, INC.	2400 John Hawkins Parkway ,Birmingham
19674	ALACER CORPORATION	C/O Pfizer Inc. 100 Route 206 North ,Peapack
19675	ALACER MANAGEMENT CORPORATION	9635 Maroon Cir ,Englewood
19676	ALACHUA SELF STORAGE, INC.	P.O. Box 1857 ,Alachua
19677	ALACO LADDER, INC.	5167 G Street ,Chino
19680	ALACRITECH, INC.	1995 N. First Street, Suite 200 ,San Jose
19681	ALACRITI, INC.	50 Cragwood Rd ,South Plainfield
19684	ALACRITY RENOVATION SERVICES, LLC	360 E 10th Ave. Suite 320 ,Eugene
19685	ALACRITY SERVICES LLC	1061 Wilshire Way ,Brentwood
19688	ALADDIN ELECTRIC, INC.	P.O. Box 600 ,Manitou
19689	ALADDIN ENGINEERING & MANUFACTURING, INC.	1100B South Prairie Avenue ,Waukesha
19692	ALADDIN FOOD MANAGEMENT SERVICES, LLC OF WHEELING, WV	21 Armory Drive ,Wheeling
19693	ALADDIN GOLD CREATIONS, INC.	3649 Woodhead Drive ,Northbrook
19694	ALADDIN HEATING & COOLING, INC	26969 Ryan Rdad ,Warren
19696	ALADDIN PACKAGING LLC	115 Engineers Road ,Hauppauge
19697	ALADDIN TEMP-RITE	250 East Main St. ,Hendersonville
19698	ALADDIN TRAVEL SERVICES, INC.	301 N. Main St ,Winston Salem
19700	ALADDINS BAKING COMPANY	1301 Carnegie Avenue ,Cleveland
19701	ALADTEC, INC.	906 Dominion Drive ,Hudson
19708	ALAIN DUCASSE NY, INC.	60 W 55th St ,New York
19712	ALAIN LOCKE CHARTER SCHOOL	150 N Michigan Ave Ste 2100 ,Chicago
19713	ALAIN PINEL REALTORS, INC.	12772 Saratoga Sunnyvale Road ,Saratoga
19717	ALAIRE TECHNOLOGIES, INC.	10815 Harley Road ,Lorton
19718	ALAJAJIAN, MARCOOSI ARCHITECTS, INC.	320 Arden Ave., Ste. 120 ,Glendale
19720	ALAKAI CONSULTING & ENGINEERING,	34 Bittersweet Lane ,Chester
19721	ALAKAI DEFENSE SYSTEMS, INC	Po Box 10405 ,Largo
19722	ALAKAI MECHANICAL CORPORATION	2655 Waiwai Loop ,Honolulu
19723	ALAKAI NA KEIKI, INC.	1100 Alakea St Ste 900 ,Honolulu
19725	ALAKAINA FOUNDATION	12565 Research Parkway Suite 300 ,Orlando
19728	ALAKEF COFFEE ROASTERS INC	1330 E Superior St ,Duluth
19730	ALAM FARZAD BERKE, M.D.	1400 N.E. Miami Gardens Drive ,North Miami Beach
19731	ALAMAC AMERICAN KNITS LLC	1885 Alamac Road ,Lumberton
19733	ALAMANCE COUNTRY CLUB, INC.	2402 Pineway Drive ,Burlington
19734	ALAMANCE COUNTY COMMUNITY SERVICES AGENCY INC	1946 Martin Street ,Burlington
19735	ALAMANCE COUNTY MEALS ON WHEELS, IN C.	411 W 5th St Ste A ,Burlington
19736	ALAMANCE DERMATOLOGY, P.A.	1638 Memorial Drive ,Burlington
19737	ALAMANCE EAR, NOSE, & THROAT, LLP	P.O. Box 2 ,Burlington
19739	ALAMANCE FARMERS MUTUAL INSURANC	128 W Harden St ,Graham
19740	ALAMANCE FOODS, INC.	840 Plantation Drive ,Burlington
19741	ALAMANCE PARTNERSHIP FOR CHILDREN, INC.	2322 River Rd ,Burlington
19742	ALAMANCE SKIN CENTER	1734 Westbrook Avenue ,Burlington
19743	ALAMANCE VEIN AND VASCULAR SURGE	2977 Crouse Ln ,Burlington
19745	ALAMAR HEALTHCARE, INC.	C/O Marlene Allan ,Camarillo
19747	ALAMBIC INVESTMENT MANAGEMENT	655 Montgomery St Ste 1905 ,San Francisco
19748	ALAMCO WOOD PRODUCTS, LLC	1410 West 9th Street ,Albert Lea
19749	ALAMEDA ALLIANCE FOR HEALTH	1240 South Loop Road ,Alameda
19752	ALAMEDA APPLIED SCIENCES CORPORATION	3077 Teagarden Street ,San Leandro
19753	ALAMEDA ASSOCIATES INSURANCE AGENCY, INC.	2515 Santa Clara Avenue, Suite 200 ,Alameda
19754	ALAMEDA BOY SCOUTS OF AMERICA	1714 Everett St ,Alameda
19755	ALAMEDA BOYS & GIRLS CLUB, INC.	1900 Third Street, Rear Building ,Alameda
19757	ALAMEDA CONSTRUCTION SERVICES	2528 East 125th St ,Compton
19758	ALAMEDA COUNTY BAR ASSOCIATION	1000 Broadway Ste 480 ,Oakland
19759	ALAMEDA COUNTY COMMUNITY FOOD BANK	7900 Edgewater Drive ,Oakland
19760	ALAMEDA COUNTY DENTAL SOCIETY	1345 Grand Avenue ,Piedmont
19761	ALAMEDA COUNTY FIRE DEPARTMENT	835 East 14th St. 200 ,San Leandro
19762	ALAMEDA COUNTY HEALTH CARE FOUNDATION	350 Frank H Ogawa Plaza, Ste 900 ,Oakland
19766	ALAMEDA COUNTY RESOURCE CONSERVATION DISTRICT	3585 Greenville Road Ste 2 ,Livermore
19768	ALAMEDA DIRECTORY, INC.	1416 Park Avenue ,Alameda
19769	ALAMEDA ELECTRIC SUPPLY, INC.	25823 Clawiter Road ,Hayward
19771	ALAMEDA FAMILY SERVICES	2325 Clement St. ,Alameda
19773	ALAMEDA HOSPITAL	2070 Clinton Avenue ,Alameda
19779	ALAMEDA THRIFTY PHARMACY	4900 Alameda ,El Paso
19780	ALAMEDA WHOLESALE NURSERY, INC.	C/O Rps Plan Administrators ,Greenwood Village
19781	ALAMEDA-CONTRA COSTA MEDICAL ASSOCIATION	6250 Claremont Avenue ,Oakland
19782	ALAMILLO REBAR, INC	325 W. Channel Rd ,Benecia
19788	ALAMO AIRCRAFT SUPPLY, INC.	2538 SW 36th Street ,San Antonio
19789	ALAMO AREA COUNCIL BOY SCOUTS OF AM ERICA	2226 NW Military Hwy ,San Antonio
19790	ALAMO AREA RAPE CRISIS CENTER	7500 Us Hwy 90 W ,San Antonio
19791	ALAMO AREA RESOURCE CENTER INC	903 W Martin Ms-18-2 ,San Antonio
19792	ALAMO ASTHMA & ALLERGY ASSOCIA	115 Gallery Cir Ste 200 ,San Antonio
19793	ALAMO AUSTIN AIR	9802 Willers Way ,Austin
19794	ALAMO BODY AND PAINT, INC.	16211 San Pedro ,San Antonio
19799	ALAMO CITY EYE PHYSICIANS, P.A.	11601 Toepperwein ,San Antonio
19802	ALAMO CITY MRI, L.P.	8706 Fredericksburg Road, Ste 103 ,San Antonio
19806	ALAMO CONSULTING ENGINEERING & SURVYING INC.	4365 E. Evans Road ,San Antonio
19807	ALAMO CRANE SERVICE, INC.	16850 Alamo Pkwy ,Selma
19808	ALAMO CYCLE SALES, LTD	11900 Ih 10 West ,San Antonio
19809	ALAMO DERMATOLOGY ASSOCIATES, P.A.	14855 Blanco Rd Ste 214 ,San Antonio
19810	ALAMO DRAFTHOUSE CINEMAS	13809 Research Blvd. Ste 735 ,Austin
19811	ALAMO DRAFTHOUSE CINEMAS, LLC	612A E 6th Street ,Austin
19812	ALAMO DRYWALL, INC.	780 Enterprise Drive ,Lake Havasu City
19813	ALAMO ENT ASSOCIATES	7940 Floyd Curl Drive, Suite 400 ,San Antonio
19814	ALAMO FAMILY PRACTICE, P.A.	2829 Babcock Rd, Tower 1, Ste 236C ,San Antonio
19816	ALAMO FEDERAL CREDIT UNION	6577 First Park Ten Blvd ,San Antonio
19817	ALAMO FENCE CO. OF SAN ANTONIO, INC.	579 Weil Rd ,Cibolo
19818	ALAMO FILTER COMPANY INC	7725 Us Hwy 87 E ,San Antonio
19819	ALAMO FIREWORKS, INC.	P.O. Box 200710 ,San Antonio
19820	ALAMO FOOD EQUIPMENT & SUPPLIES INC	6600 Guada Coma Dr ,Schertz
19821	ALAMO FOREST PRODUCTS	P.O. Box 7 ,Danville
19823	ALAMO GROUP II, LLC	3201 Danville Blvd., Suite 175 ,Alamo
19824	ALAMO GROUP USA INC.	Po Box 549 ,Seguin
19831	ALAMO IRON WORKS, INC.	943 Atandt Center Parkway ,San Antonio
19832	ALAMO LEARNING SYSTEMS, INC.	P O Box 848 ,Danville
19833	ALAMO LIGHTING	3240A Monument Way ,Concord
19834	ALAMO MAXILLOFACIAL SURGICAL ASSOCIATES, P.A.	4499 Medical Dr ,San Antonio
19835	ALAMO MUSIC CENTER, INC.	425 North Main Street ,San Antonio
19836	ALAMO NEUROSURGICAL INSTITUTE, P.A.	414 W. Sunset Road ,San Antonio
19837	ALAMO OUTDOORS SIGNS LTD.	18860 Goll St ,San Antonio
19840	ALAMO RESPIRATORY SERVICES, INC.	2128 Babcock Road, Building 2 ,San Antonio
19841	ALAMO RESTAURANTS, INC.	1045 Central Parkway North ,San Antonio
19842	ALAMO STONE CO	13020 S Kirkwood Rd ,Stafford
19843	ALAMO TRANSFORMER SUPPLY COMPANY	4931 Space Center Drive ,San Antonio
19844	ALAMO TRAVEL GROUP, L.P.	8930 Wurzbach Rd. ,San Antonio
19852	ALAMOGORDO PHYSICAL THERAPY & WE	2351 Indian Wells ,Alamogordo
19855	ALAMON TELCO, INC.	315 W. Idaho Street ,Kalispell
19857	ALAMONT DENTAL ASSOCIATES, PC	401 Martin Luther King Jr., Blvd. ,Bristol
19858	ALAMOSA DESIGN	531 Howard St. ,San Francisco
19859	ALAMOSA STATE BANK	P.O. Box 1098 ,Alamosa
19862	ALAN & ASSOCIATES LLC	55 Falcon Ridge Rd ,Rocky Hill
19865	ALAN A. BOGHOSIAN, D.D.S., P.C.	676 N. St Clair, Suite 1773 ,Chicago
19866	ALAN A. CANDOS INSURANCE AGENCY, INC.	8104 West 119th Street ,Palos Park
19867	ALAN A. DALESSANDRO, D.D.S., LTD.	2500 West Higgins Road, Suite 665 ,Hoffman Estates
19871	ALAN ALTMAN MD PA	9301 SW 92nd Avenue ,Miami
19872	ALAN ANDERSON LAW FIRM LLC	11100 Wayzata Blvd. Suite 545 ,Minneapolis
19873	ALAN ANTONELLI MD PC	189-04 Union Turnpike ,Fresh Meadows
19874	ALAN AZRAK, DDS, P.C.	836 Union Street ,Brooklyn
19875	ALAN B BRADLEY MD LLC	1220 E Elm St Ste 204 ,Lima
19876	ALAN B BRILL P C	49 N Airmont Rd Ste 100 ,Suffern
19878	ALAN B EVANS DDS PC	1612 Plaza Pl ,Muscatine
19879	ALAN B SYKES, DDS, PA	8321 Bandford Way ,Raleigh
19884	ALAN B. KANTSIPER, M.D., P.A.	17 Long Meadow Lane ,Columbia
19889	ALAN B. NERENBERG MD PC	P.O. Box 314 ,Jericho
19893	ALAN B. SCHORR, D.O.	380 Middletown Blvd. ,Langhorne
19900	ALAN BAUER	201 South 19th Street ,Rogers
19904	ALAN BESCO CARS AND TRUCKS	62 Dayton Avenue ,Xenia
19905	ALAN BILLER AND ASSOCIATES, INC.	535 Middlefield Rd., Ste 230 ,Menlo Park
19910	ALAN BRODEURS AUTO BODY	87 Mill Street Central ,Marlborough
19911	ALAN BROOKS PHOTOGRAPHY, INC.	777-43 Avenida Madrugada ,La Quinta
19915	ALAN BYER AUTO SALES, INC.	1230 West Genesee Street ,Syracuse
19918	ALAN C GORAL DDS	10789 Bradford Rd ,Littleton
19921	ALAN C YOUNG & ASSOCIATES P C	7310 Woodward Ave Ste 740 ,Detroit
19922	ALAN C. CIRILLI, D.D.S., P.C.	1665 West 12 Mile Road ,Berkley
19926	ALAN C. JOHNSON, DDS, INC.	2 Centaurus ,Trabuco Canyon
19927	ALAN C. MCCLURE ASSOCIATES, INC.	2929 Briarpark, Ste 220 ,Houston
19928	ALAN C. MINTZ, M.D.	19980 Oxnard Street ,Woodland Hills
19930	ALAN C. SNODGRASS, DDS, PC DBA THURSTON OAKS DENTAL	4305 NE Thurston Way ,Vancouver
19935	ALAN CASCIO, D.D.S.	810 College Ave., Suite 12 ,Kentfield
19936	ALAN CHEMICAL CORPORATION	843 Rahway Avenue ,Woodbridge
19939	ALAN COON DESIGN, LTD.	440 Warren Street ,Hudson
19941	ALAN COURT & ASSOCIATES	34 Park Place ,East Hampton
19943	ALAN D HALPERN	1015 Chestnut Street #417 ,Philadelphia
19952	ALAN D. BELL	650 Bloomfield Avenue- Suite 105 ,Bloomfield
19953	ALAN D. BILLER & ASSOCIATES, INC.	535 Middlefield Road, Suite 230 ,Menlo Park
19957	ALAN D. FORD II, D.M.D., P.C.	Po Box 71307 ,Albany
19959	ALAN D. GLASSMAN, M.D., P.C.	700 Sunset Drive ,Athens
19960	ALAN D. GORDON, M.D., P.C.	27 Sandy Lane, Suite 220 ,Lewistown
19963	ALAN D. MARCUS, D.D.S., M.S.D.	485 Broadway Suite #500 ,Millbrae
19964	ALAN D. MARKOWITZ, D.M.D., P.C.	510 West Darby Road Suite 1B ,Havertown
19967	ALAN D. ROSENBERG, P.C.	140 Woodbrook Road ,White Plains
19971	ALAN D. STANTON, D.D.S., INC.	6699 Chimney Rock #101 ,Houston
19973	ALAN D. WALLACE, ESQ.	14011 Ventura Blvd., Suite 406 ,Sherman Oaks
19974	ALAN D. WESTHEIMER, CPA/CFF, CFE	4544 Post Oak Place Dr. Suite 320 ,Houston
19975	ALAN D. WOLFELT D/B/A CENTER FOR LOSS & LIFE TRANSITION	3735 Broken Bow Road ,Fort Collins
19978	ALAN DESK CO., INC.	8575 Washington Blvd. ,Culver City
19979	ALAN DEZEN LCSW PC	325 East 41st St ,New York
19984	ALAN E MORITIS DDS	1410 Market Street ,Kirkland
19987	ALAN E. BARTON, D.D.S.	216 Howard Street ,Petaluma
19993	ALAN E. KNOTEK O.D.	29 S. Webster Street #104 ,Naperville
19997	ALAN E. MOORE, D.D.S.	156 Granville Street ,Gahanna
19998	ALAN E. OSHINSKY, M.D., P.A.	301 St. Paul Place, Suite 612 ,Baltimore
20002	ALAN E. WHEELER AGENCY, INC.	483 Atlantic Ave. ,Brooklyn
20005	ALAN EDEL OIL SERVICE, INC.	10670 Dennison Blvd S ,Northfield
20007	ALAN EPSTEIN, D.D.S. & ASSOCIATES, P.A.	9560 Santiago Road, Suite 104 ,Columbia
20013	ALAN F. JUSTIN, D.M.D., PLLC	191 Lake Avenue ,Saratoga Springs
20015	ALAN F. MACKS, DMD	5319 Tacoma Mall Blvd. ,Tacoma
20017	ALAN FARMER TRUCKING, INC.	12050 Covered Bridge Road ,Brookwood
20019	ALAN FERGUSON, D.D.S., P.L.C.	1222 E Missouri, Suite 201 ,Phoenix
20021	ALAN FRAME DDS	1171 Homestead Rd Ste 214 ,Santa Clara
20024	ALAN G GOODMAN DDS	2530 Riva Road Suite 201 ,Annapolis
20027	ALAN G. CARTER, DMD, P.C.	106 Mcclaine Street ,Silverton
20028	ALAN G. CHUI, DDS, INC.	1748 Novato Blvd, Suite 110 ,Novato
20033	ALAN G. STERN, D.D.S. PA	804 W Park Ave Bldg C ,Ocean
20035	ALAN G. VIANI, DDS	102 Forbus Street ,Poughkeepsie
20037	ALAN GAYNOR AND COMPANY, P.C.	434 Broadway, 6th Floor ,New York
20039	ALAN GOLD, M.D., P.C.	833 Northern Blvd. ,Great Neck
20042	ALAN GRAY, INC.	88 Broad Street ,Boston
20044	ALAN GUILLAUDEU, CPA, PC	1385 S. Colorado Blvd., Suite 700 ,Denver
20047	ALAN H CROWE & ASSOCIATES INC	1020 SW Taylor St Ste 240 ,Portland
20049	ALAN H KANTER, MD	250 East Yale Loop D ,Irvine
20051	ALAN H. ANDERSON, DDS	1758 West 4805 South, Suite 100 ,Kearns
20057	ALAN H. JOSEPH	69-38 Myrtle Ave. ,Glendale
20059	ALAN H. KISELSTEIN, M.D.	39000 Bob Hope Drive, P312 ,Rancho Mirage
20066	ALAN H. SHAW COMPANY, INC.	P. O. Box 2275 ,Asheville
20070	ALAN HAMILTON MD PC	5425 East Bell Rd ,Scottsdale
20073	ALAN HECKLER, ESQ.	16 Nottinghill Court ,Manlapan
20075	ALAN HEIT DDS INC	600 Wilshire Blvd #1515 ,Los Angeles
20076	ALAN HERMAN & ASSOCIATES, INC.	305 East Foothill Blvd. ,Monrovia
20078	ALAN HOFF LAW OFFICE, LLC	600 E Northland Avenue, Suite 1 ,Appleton
20080	ALAN I. BURCH, D.D.S., P.A.	19495 Biscayne Blvd., Suite 406 ,Aventura
20081	ALAN I. GOODMAN, CO LPA	55 Public Square Ste 1300 ,Cleveland
20082	ALAN I. ROSENBLATT, M.D. SC	4711 Golf Rd Ste 800 ,Skokie
20085	ALAN INDUSTRIES INC.	P.O. Box 1203 ,Columbus
20090	ALAN J MARCUS	20803 Biscayne Blvd Ste 301 ,Miami
20092	ALAN J NUKK DDM	Po Box 477 ,Washingtonville
20096	ALAN J SPECTOR DPM	2424 Bridge Ave ,Pt Pleasant
20097	ALAN J STEIN D D S & DAVID B F	2450 Lawrenceville Hwy Ste 100 ,Decatur
20101	ALAN J. BARCOMB, M.D.	41 Main Street ,Oakfield
20105	ALAN J. BREAM DDS, PC	1305 13Th Street ,Waynesboro
20111	ALAN J. FOSTER, D.D.S., P.C.	2150 W. South Outer Road ,Blue Springs
20113	ALAN J. HEATH	821 Butternut Court ,Frankfort
20114	ALAN J. ING, D.D.S., LLC	3-3295 Kuhio Hwy., Suite 202 ,Lihue
20115	ALAN J. KIVITZ, M.D.	514 Woodlawn Terrace ,Hollidaysburg
20116	ALAN J. KRAUS, M.D.	3012 Centre Oak Way, Suite 102 ,Germantown
20118	ALAN J. LEVIN, DDS, PC	6825 E. Tennessee Ave. Suite 621 ,Denver
20119	ALAN J. MOLTZ, D.D.S. FAGD	1845 East Rand Road, Suite 200 ,Arlington Heights
20120	ALAN J. NOVICK	306 East Grove Street ,Bloomington
20121	ALAN J. OSTROWE, M. D.	5319 Didesse Dr., Ste. A ,Baton Rouge
20125	ALAN J. ROBERTSON, DDS	320 West Main Street ,Kutztown
20126	ALAN J. ROGOFF	6515 Main Street ,Trumbull
20128	ALAN J. SALVI, D.D.S.	15231 Falcon Crest Court ,San Diego
20131	ALAN J. SCHRAM, DPM, PC	6704 Park Avenue ,Allen Park
20132	ALAN J. SILES PHYSICAL THERAPY AND REHABILITATIO	667 Stoneleigh Avenue ,Carmel
20133	ALAN J. SNYDER, D.P.M.	2443 Upper Terrace Rd. ,La Crescenta
20144	ALAN J. ZUCCARI, INC.	4100 Monument Corner Dr., Suite 500 ,Fairfax
20150	ALAN JOEL COMMUNICATIONS, INC.	110 Chestnut Ridge Road - No. 399 ,Montvale
20154	ALAN K. BERNALDO, CPA	1871 Wili Pa Loop, Ste. B ,Wailuku
20157	ALAN K. GOLDBERG, D.D.S., INC.	82 North Miller Road ,Akron
20158	ALAN K. MODEST & ASSOCIATES	40 Speen Street ,Framingham
20159	ALAN K. MUNOZ, M.D., P.A.	12200 Park Central Drive, Suite 410 ,Dallas
20160	ALAN K. NOMURA, D.D.S., L.L.C.	1481 S. King Street, Suite 503 ,Honolulu
20161	ALAN K. WILLIAMSON CPA, P.S.	7016 15th Ave. N.W. ,Seattle
20167	ALAN KOPPEL GALLERY, INC.	210 W Chicago Avenue ,Chicago
20168	ALAN KROPP & ASSOCIATES, INC.	2140 Shattuck Avenue ,Berkeley
20169	ALAN KUNSMAN ROOFING AND SIDING, INC.	203 Washington Street ,Freemansburg
20171	ALAN KWASELOW, M.D., P.C.	46325 W. 12 Mile Rd., Suite 215 ,Nova
20176	ALAN L MITCHELL MD PA	22023 State Rd 7 ,Boca Raton
20177	ALAN L NIX DDS PC	101 E High Street ,Terrell
20180	ALAN L. BALKANSKY DPM SC	5404 Lovers Lane Road ,Milwaukee
20181	ALAN L. DARNELL, INC.	17291 Irvine Blvd., Suite 435 ,Tustin
20182	ALAN L. DECHTER, D.D.S., P.A.	12900 Georgia Avenue ,Wheaton
20183	ALAN L. FRANK LAW ASSOCIATES, P.C.	135 Old York Road ,Jenkintown
20184	ALAN L. FREED ASSOCIATES INC.	119 S. Fairfax Street ,Alexandria
20187	ALAN L. GOLDBERG CPA	51 East 42nd Street, Suite 601 ,New York
20188	ALAN L. GRIMM, D.D.S., A.P.C	460 E. Calaveras Blvd. ,Milpitas
20189	ALAN L. HUBBARD, M.D., P.A.	P.O. Box 9329 ,The Woodlands
20190	ALAN L. LAROCHE, DMD, INC.	P.O. Box 842 ,Slatersville
20194	ALAN L. MORRIS, D.M.D.	761 Washington Street ,Norwood
20195	ALAN L. PEET, D.D.S., PLLC	550 N. 5th Ave ,Sequim
20198	ALAN L. ROSENBERG, DDS	61-34 188th Street - Suite 201 ,Fresh Meadows
20200	ALAN L. RUBIN DMD	355 Stratton Court ,Wyckoff
20209	ALAN LAURAIN, D.D.S	2711 Murfreesboro Road ,Antioch
20212	ALAN LEFF ASSOCIATES, INC.	52 Battalion Drive ,Basking Ridge
20217	ALAN LUBANES, OD	Po Box 936 ,Georgetown
20220	ALAN M ALVAREZ, DDS, INC	1155 N Capitol Ave #160 ,San Jose
20227	ALAN M. BURTON DMD, PA	2035 Hamburg Turnpike ,Wayne
20231	ALAN M. FREEDMAN, M.D.	401 Old Newport Blvd., Suite 101 ,Newport Beach
20233	ALAN M. GARDNER, M.D.,P.C.	2550 Windy Hill Road, Suite 220 ,Marietta
20240	ALAN M. KISNER, PLASTIC SURGERY P.L.L.C.	100 East Main Street ,Huntington
20241	ALAN M. LASKIN, ESQUIRE	1810 S Street ,Sacramento
20242	ALAN M. LAZAR, M.D., P.A.	3501 North Ocean Drive, Apt 8C ,Hollywood
20243	ALAN M. LEVINE, D.D.S., L.L.C.	5530 Wisconsin Avenue, Ste 829 ,Chevy Chase
20244	ALAN M. MELTZER, D.M.D., P.A.	1307 White Horse Road, Bldg. B ,Voorhees
20256	ALAN M. TANENBAUM, P.A.	116 Church Street ,Charleston
20260	ALAN MATARASSO, MD PC	1009 Park Avenue ,New York
20263	ALAN MCILVAIN COMPANY	C/O P.O. Box 380 ,Marcus Hook
20266	ALAN MILES & ASSOCIATES, INC.	2716 Ocean Park Blvd., Suite 3086 ,Santa Monica
20267	ALAN MORRISON, DO, LLC	5410 Connecticut Avenue, NW, #103 ,Washington
20272	ALAN NEIGHER	1804 Post Road East ,Westport
20273	ALAN NG MEDICAL REHABILITATION	86-11 Justice Ave ,Elmhurst
20274	ALAN NGUYEN DDS INC.	1675 Broadway St, Ste B ,Redwood City
20276	ALAN OPTICAL, LTD	400 W. Dundee Road ,Buffalo Grove
20282	ALAN P. CHUN, D.D.S., M.D., INC.	P. O. Box 936 ,Diablo
20283	ALAN P. DUBEN, DC	3625 E. Thousand Oaks Blvd. ,Westlake Village
20284	ALAN P. FRIEDLER, D.M.D., P.C.	419 Whalley Avenue - Suite 101 ,New Haven
20289	ALAN P. KAWAKAMI, D.D.S., P.C.	2700 E. Fry Boulevard, Suite B9 ,Sierra Vista
20290	ALAN P. LEVITT, O.D.	1031 Ives Dairy Road, Suite 133 ,N. Miami Beach
20292	ALAN P. NOHR, DDS, PS	8301-161st Ave NE, Suite 303 ,Redmond
20293	ALAN P. SHAPIRO	271 Quail Hollow Road ,East Amherst
20297	ALAN PITTMAN & ASSOCIATES P.C.	4200 Morganton Rd Ste 200-20 ,Fayetteville
20298	ALAN PLUMMER ASSOCIATES, INC.	1320 S. University Drive #300 ,Fort Worth
20299	ALAN PORTER PEDIGREE RESEARCH INC.	412 County Road 550 ,Rienzi
20300	ALAN PROPERTIES, INC.	2721 Joelle Dr. ,Toledo
20303	ALAN R GOODMAN	60 Walnut Street ,Wellesley
20304	ALAN R MILLER PC	370 East Maple Road, Fourth Floor ,Birmingham
20307	ALAN R. ARGUELLES, D.D.S., P.C.	75 Van Deene Ave ,West Springfield
20310	ALAN R. FARRIS	221 S. Market St. ,Sparta
20312	ALAN R. GRODIN, DDS, PLLC	430 South Main St. ,Clawson
20313	ALAN R. HELLER, DDS, MS, LLC	4405 East West Highway - Suite 106 ,Bethesda
20314	ALAN R. KIEFER, D.D.S.	Postnet 343 W. Milltown Road ,Wooster
20316	ALAN R. MALOUF, D.D.S.	450 Sutter Street, Suite 320 ,San Francisco
20322	ALAN R. SMITH	505 Ridge Street ,Reno
20323	ALAN R. WARREN, D.P.M.	24836 Harper Avenue ,St. Clair Shores
20325	ALAN RADA, OD	4602 Maccorkle Ave Se ,Charleston
20326	ALAN RANKIN, DDS	182 North Livingston Avenue ,Livingston
20327	ALAN RAYMOND BARR, P.C.	98 South Ocean Avenue ,Patchogue
20328	ALAN REISMAN, DDS	1075 East South Boulder Rd Ste 135 ,Boulder
20329	ALAN RICH & ASSOCIATES, A PROFESSIONAL LAW CORPORATION	2784 Gateway Road, Suite 104 ,Carlsbad
20330	ALAN RITCHEY, INC.	740 South Frontage Road ,Valley View
20332	ALAN ROCKOFF M.D. LLC	1101 Beacon Street ,Brookline
20333	ALAN ROINESTAD CONSTRUCTION & MANAGEMENT, INC.	2646 Industrial Parkway, Suite 100 ,Santa Maria
20336	ALAN ROSS & COMPANY,PC 401K PLAN	10 Hearthstone Court ,Reading
20341	ALAN S GOLD DDS	515 South Street ,Pittsfield
20348	ALAN S. CASSARA DMD & WAYNE C. JARVIS DDS LLP	2005 Lyell Avenue ,Rochester
20355	ALAN S. KAPLAN, D.M.D.	400 Arthur Godfrey Rd 502 ,Miami Beach
20356	ALAN S. KRAUSE, D.M.D., LLC	150 River Road Building J-2 ,Montville
20357	ALAN S. KUZNICK, D.M.D.	2001 Marcus Avenue ,Lake Success
20358	ALAN S. LEE, D.D.S.	715 N Main St ,Manteca
20360	ALAN S. LEVINE, P.C.	587 Fearrington Post ,Pittsboro
20361	ALAN S. LOWE & ASSOCIATES, P.C.	311 West Broughton Street ,Savannah
20363	ALAN S. NEWMAN ASSOCIATES, INC.	1025 Boulders Parkway ,Richmond
20364	ALAN S. ROCKOFF, MD	 ,
20365	ALAN S. TERLINSKY, M.D., P.C.	South Carlin Springs Road ,Arlington
20372	ALAN SCHATZBERG & ASSOCIATES, INC.	45 Ruta Court ,South Hackensack
20373	ALAN SCHAUER DENTAL PC	10604 Lockerbie Dr. ,Austin
20374	ALAN SCHERR ASSOCAITES, LLC	33 West First Street, Suite 440 ,Dayton
20375	ALAN SCHMIDT CONSTRUCTION, INC.	9679 Cincinnati-Columbus Road ,Cincinnati
20377	ALAN SERURE, M.D., P.A.	7300 S.W. 62nd Place ,South Miami
20383	ALAN SIMONINI HOMES LLC	501 East Morehead St ,Charlotte
20385	ALAN SMITH POOL PLASTERING, INC.	227 W. Carleton Avenue ,Orange
20388	ALAN SPENCER & ASSOCIATES, P.C.	1255 West 15th Street, Suite 810 ,Plano
20389	ALAN SPIEGELMAN	111 Sutter Street, Suite 1800 ,San Francisco
20390	ALAN STEVENS ASSOCIATES, INC.	4090 21st Ave Sw ,Cedar Rapids
20392	ALAN SWETT, D.D.S., P.L.C.	5965 Merle Hay Rd. Ste. A ,Johnston
20394	ALAN T SEELER INC	87 Route 132 N ,New Hampton
20399	ALAN T. NAHOUM, INC.	580 White Plains Road ,Tarrytown
20401	ALAN T. ROSENBLOOM, D.D.S.	189 Kinderkamack Road ,Westwood
20406	ALAN TRANSLEY INC	826 Broadway 9th Floor ,New York
20407	ALAN TYE & ASSOCIATES, L.C.	9104 Horner Court ,Fairfax
20408	ALAN ULISS, MD., PC.	110-11 72nd. Avenue ,Forest Hills
20409	ALAN UTZ & ASSOCIATES, INC.	15399 County Road 26 ,Tyler
20417	ALAN W. IRVIN, D.D.S., P.A.	1515 W. Cornwallis Drive, Suite 105 ,Greensboro
20418	ALAN W. KAPLIN, D.D.S., LTD.	860 Croftridge Lane ,Highland Park
20422	ALAN W. MAHANES, D.D.S.	2521 North Landing Road, Suite 100 ,Virginia Beach
20423	ALAN W. SHERRILL, DMD	104 Schubert Dr ,Downingtown
20426	ALAN W. SOLWAY, M.D., P.C.	32410 West Five Mile Rd. Ste.102 ,Livonia
20427	ALAN W. WEYMOUTH	194 Beechland Road ,Ellsworth
20430	ALAN WANZENBERG ARCHITECT, PC	333 W. 52nd Street ,New York
20431	ALAN WAXLER GROUP, LLC	4676 Wynn Road ,Las Vegas
20433	ALAN WEISS PRODUCTIONS, INC.	270 White Plains Road ,Eastchester
20437	ALAN WISHNEFF DDS, PA	9070 Kimberly Blvd., Suite 51 ,Boca Raton
20438	ALAN WONG RESTAURANTS, INC.	1857 S King St Ste 208 ,Honolulu
20439	ALAN WONG, DDS, P.C.	1851 W 84th Ave ,Federal Heights
20442	ALAN YELLIN, PH.D., INC.	11777 San Vicente Bl., Suite 703 ,Los Angeles
20447	ALANA HEALTHCARE, LLC	636 Division St ,Nashville
20451	ALANCO TECHNOLOGIES INC	7950 E Acoma Dr Ste 111 ,Scottsdale
20453	ALANDA LLC	391 George St 3rd Floor ,New Brunswick
20454	ALANDALE KNITTING LLC	210 Burnette St. ,Troy
20455	ALANE M. LEE, D.D.S.	1706 Willow Street, ,San Jose
20457	ALANIZ AND SCHRAEDER, L.L.P.	2500 Citywest Boulevard, Suite 1000 ,Houston
20460	ALANOD WESTLAKE METAL IND., INC.	36696 Sugar Ridge Road ,North Ridgeville
20461	AL-ANON FAMILY GROUP HEADQUARTERS, INC.	1600 Corporate Landing Parkway ,Virginia Beach
20462	AL-ANON FAMILY GROUPS	4936 Lankershim Blvd ,North Hollywood
20466	ALANS OF BOSCAWEN INC	133 N Main St ,Boscawen
20468	ALANSON M RANDOL, DDS, PC	1100 NW Garden Valley Blvd. ,Roseburg
20470	ALANTHUS ASSOCIATES INC	2331 Mill Rd Ste-100 ,Alexandria
20473	ALAPKO, INCORPORATED	2121 Crystal Drive, Suite 680 ,Arlington
20479	ALARA, INC.	Po Box 1199 ,Saranac Lake
20482	ALARD EQUIPMENT CORPORATION	6483 Lake Ave. ,Williamson
20483	ALAREAL CORPORATION	8417 Beverly Place ,El Paso
20484	ALARES LLC	248 Copeland St ,Quincy
20485	ALARIC COMPLIANCE SERVICES LLC	150 Broadway Suite 302 ,New York
20486	ALARIC CORP.	60 Jordan Drive ,Weymouth
20492	ALARIS HEALTH LLC	35 Journal Square ,Jersey City
20493	ALARIS HOMES, INC.	201 North Elm Street ,Greensboro
20495	ALARM & COMMUNICATIONS TECHNOLOGIES, INC.	P.O. Box 596 ,Wharton
20496	ALARM CAPITAL ALLIANCE II, LLC	3803 West Chester Pike Ste 100 ,Newtown Square
20497	ALARM CENTER, INC.	4500 3rd Avenue Se ,Lacey
20498	ALARM CENTRAL STATION INC	Po Box 1761 ,Beaverton
20499	ALARM CONTROL SYSTEMS, INC.	2166 South 900 East ,Salt Lake City
20500	ALARM CONTROLS CORPORATION	19 Brandywine Drive ,Deer Park
20502	ALARM ELECTRONICS & COMMUNICATION	11025 N Deer Hill ,Prescott
20503	ALARM ENGINEERING, INC.	2204 West Zion Road ,Salisbury
20504	ALARM EXPRESS, INC.	11053 Ables Lane ,Dallas
20505	ALARM FINANCIAL SERVICES	100 Tamal Plaza, Ste. 260 ,Corte Madera
20508	ALARM NEW ENGLAND, LLC	65 Inwood Rd ,Rocky Hill
20509	ALARM OF AMERICA	4025 Pleasantdale Rd ,Atlanta
20510	ALARM ONE OF TEXAS INC	Po Box 631 ,Katy
20513	ALARM SECURITY PROTECTION CO., INC.	P.O. Box 236 ,Waterford
20515	ALARM TECH SOLUTIONS, LLC	8141 Telegraph Road Suite F ,Severn
20516	ALARM TECH SYSTEMS, INC	2670 LeisczS Bridge Road ,Leesport
20519	ALARMAX DISTRIBUTORS, INC.	750 Holiday Drive, Suite 310 ,Pittsburgh
20520	ALARMCO, INC.	2007 Las Vegas Blvd. South ,Las Vegas
20521	ALARMEX, INC.	243 Boston St. ,Topsfield
20523	ALARMTECHS, INC.	1534 Avenue C ,Katy
20524	ALARMWATCH, INC.	235 Schilling Circle, Ste 108 ,Cockeysville
20525	ALARON CORPORATION	2138 State Route 18 ,Wampum
20529	ALAS-CO GENERAL CONSTRUCTION CO., INC.	Po Box 110629 ,Anchorage
20533	ALASHAN CASHMERE COMPANY	411 Chapel St., 2nd Floor ,Harrisville
20534	ALASKA ACCOUNTING SOLUTIONS INC.	1049 W 5th Ave Suite 104 ,Anchorge
20535	ALASKA ADVENTURE UNLIMITED LLC	3750 N. Caribou Street ,Wasilla
20537	ALASKA AIR FORWARDING, INC.	4443 S. 134th Pl. ,Tukwila
20539	ALASKA AIR TRANSIT	2331 Merrill Field Drive ,Anchorage
20540	ALASKA AIRLINES, INC.	Po Box 68900 - Seahb ,Seattle
20541	ALASKA AIRLINES/HORIZON AIR EFCU	19530 International Blvd Ste ,Seattle
20542	ALASKA APPRAISAL ASSOCIATES, INC.	1000 Rainier Avenue South ,Seattle
20543	ALASKA ARCHITECTURAL LIGHTING, INC	5401 Cordova Street ,Anchorage
20544	ALASKA BAR ASSOCIATION	840 K St. Ste 100 ,Anchorage
20545	ALASKA BARIATRIC CENTER	1200 Airport Heights ,Anchorage
20546	ALASKA BREAST CARE AND SURGERY, LL	3851 Piper St., Ste 462 ,Anchorage
20550	ALASKA BUSINESS SUPPLY, INC.	1503 W. 33rd Ave., Suite 204 ,Anchorage
20551	ALASKA CABARET HOTEL RESTAURANT & RETAILERS ASSOCIATION	1503 W 31st Ave Ste 202 ,Anchorage
20553	ALASKA CENTER FOR THE BLIND AND VIS UALLY IMPAIRED	3903 Taft Dr ,Anchorage
20554	ALASKA CENTRAL EXPRESS INC	Po Box 190248 ,Anchorage
20555	ALASKA CHADUX CORPORATION	2347 Azurite Court ,Anchorage
20559	ALASKA CLEAN SEAS	4720 Business Park Blvd Suite G42 ,Anchorage
20561	ALASKA COMMERCIAL FISHING & AGRICULTURE BANK	Po Box 92070 ,Anchorage
20562	ALASKA COMMUNICATIONS SYSTEMS	600 Telephone Ave. Ms15 ,Anchorage
20563	ALASKA COMMUNITY DEVELOPMENT CORPORATION	1517 Industrial Way, No. 8 ,Palmer
20565	ALASKA CONSTRUCTION SURVEYS, LLC	4141 B Street ,Anchorage
20566	ALASKA COUNSELING EXCELLENCE I	865 N Meridian St, Suite 104 ,Wasilla
20568	ALASKA DEMOLITION, L.L.C.	2817 Rampart Dr. ,Anchorage
20569	ALASKA DENTAL GROUP, PC	20633 Williamsburg Drive ,Eagle River
20572	ALASKA EAR NOSE & THROAT	3841 Piper St Ste T4-348 ,Anchorage
20573	ALASKA EARTH SCIENCES, INC.	11401 Olive Lane ,Anchorage
20574	ALASKA EHEALTH NETWORK	2440 E Tudor Rd Pmb 1143 ,Anchorage
20578	ALASKA EVENTS, INC.	2960 E Northern Ave., Bldg. B ,Phoenix
20579	ALASKA EXECUTIVE SEARCH, INC.	821 N St Ste 204 ,Anchorage
20580	ALASKA FAMILY SERVICES, INC.	1825 S Chugach St ,Palmer
20582	ALASKA FEDERATION OF NATIVES, INC.	1577 C Street, Suite 300 ,Anchorage
20583	ALASKA FINANCIAL ASSOCIATES, INC.	1400 K Street ,Anchorage
20585	ALASKA FOREST ASSOCIATION, INC.	111 Stedman Street, Suite 200 ,Ketchikan
20586	ALASKA GARDEN AND PET SUPPLY, INC.	114 N Orca St ,Anchorage
20587	ALASKA GEOGRAPHIC ASSOCIATION	241 North C Street ,Anchorage
20590	ALASKA GULF COAST, INC.	518 V Avenue ,Anacortes
20591	ALASKA HAND REHABILITATION, INC.	4015 Lake Otis Pkwy, Ste 200 ,Anchorage
20592	ALASKA HEALING ARTS CHIROPRACTIC, INC.	2490 E 42nd Avenue ,Anchorage
20593	ALASKA HEALTH FAIR, INC.	720 W 58th Ave Ste J ,Anchorage
20594	ALASKA HEART INSTITUTE, LLC	3841 Piper St, Ste T1-057 ,Anchorage
20595	ALASKA HOUSEWARES, INC.	2125 East 79th Ave ,Anchorage
20596	ALASKA HOUSING DEVELOPMENT CORP.	1800 Northwood Dr. ,Juneau
20597	ALASKA HYDRAULICS, INC.	410 Shelikof Street ,Kodiak
20598	ALASKA ICE SEAFOODS, INC.	3029 69th Avenue W. ,University Place
20599	ALASKA IMAGING ASSOCIATES, LLC	2751 Debarr Road, Ste. 390 ,Anchorage
20602	ALASKA INDUSTRIAL HARDWARE INC	2192 Viking Drive ,Anchorage
20603	ALASKA INDUSTRIAL HARDWARE, INC.	2192 Viking Drive ,Anchorage
20605	ALASKA INTERNAL MEDICINE & PEDIATRICS	4048 Laurel Street, Suite 306 ,Anchorage
20606	ALASKA INTERSTATE CONSTRUCTION, LLC	301 W Northern Lights Blvd, Ste 600 ,Anchorage
20607	ALASKA ISLAND COMMUNITY SERVICES	Po Box 1231 ,Wrangell
20608	ALASKA JEWELRY, INC.	407 Lincoln St. ,Sitka
20612	ALASKA LEGAL SERVICES CORPORATION	1016 W 6th Ave Ste 200 ,Anchorage
20613	ALASKA LITHO, INC.	8420 Airport Blvd ,Juneau
20614	ALASKA MARBLE AND GRANITE, INC.	1115 Whitney Road ,Anchorage
20615	ALASKA MARINE SAFETY EDUCATION ASSO CIATION	2924 Halibut Point Rd ,Sitka
20617	ALASKA MECHANICAL, INC.	8540 Dimond D Cir ,Anchorage
20618	ALASKA MEDICARE CLINIC INC	11260 Old Seward Hwy Ste 107 ,Anchorage
20624	ALASKA NATIVE HERITAGE CENTER	8800 Heritage Center Dr ,Anchorage
20625	ALASKA NATIVE INDUSTRIES COOPERATIVE ASSOCIATION, INC.	4025 Delridge Way SW, Suite 300 ,Seattle
20626	ALASKA NATIVE JUSTICE CENTER	3600 San Jeronimo Drive, Suite 264 ,Anchorage
20627	ALASKA NATIVE TRIBAL HEALTH CONSORTIUM	4000 Ambassador Drive ,Anchorage
20628	ALASKA NETWORK ON DOMESTIC VIOLENCE AND SEXUAL ASSAULT	130 Seward St Ste 214 ,Juneau
20629	ALASKA NEURO ASSOCIATES, LLC	4241 B St Ste 202 ,Anchorage
20630	ALASKA NEUROSCIENCE ASSOCIATES, LLC	3851 Piper Street, Suite U464 ,Anchorage
20631	ALASKA OIL AND GAS ASSOCIATION	121 West Fireweed Lane, Suite 207 ,Anchorage
20632	ALASKA ONCOLOGY & HEMATOLOGY, LLC	2925 Debarr Rd Ste 300 ,Anchorage
20634	ALASKA PACIFIC BANCSHARES, INC.	2094 Jordan Avenue ,Juneau
20635	ALASKA PACIFIC BANK	2094 Jordan Avenue ,Juneau
20636	ALASKA PACIFIC ENVIRONMENTAL SERVICES 1, LLC	3301 C Street, Suite 209 ,Anchorage
20641	ALASKA PHYSICAL THERAPY SPECIALISTS, P.C.	3650 Lake Otis Parkway, Suite 201 ,Anchorage
20642	ALASKA PIPE TRADES U.A. 367 HEALTH AND SECURITY PLAN	610 West 54th Avenue ,Anchorage
20643	ALASKA POWER & TELEPHONE COMPANY	P.O. Box 3222 ,Port Townsend
20645	ALASKA PREMIER UNDERWRITERS INC.	2028 E. Northern Lts., Ste. 202 ,Anchorage
20646	ALASKA PRIMARY CARE ASSOCIATION	903 W. Northern Lights Blvd. ,Anchorage
20647	ALASKA PROCESS INDUSTRY CAREERS CON SORTIUM	2600 Cordova St Ste 105 ,Anchorage
20648	ALASKA PROFESSIONAL CONSTRUCTION, INC.	P.O. Box 876207 ,Wasilla
20650	ALASKA PUBLIC EMPLOYEES ASSOCIATION/AFT INC.	211 4th Street ,Juneau
20651	ALASKA PUBLIC ENTITY INSURANCE	2233 Jordan Avenue ,Juneau
20654	ALASKA PUMP & SUPPLY, INC.	261 E. 56th Ave, Bldg A ,Anchorage
20656	ALASKA RAINFOREST SANCTUARY, LLC	Po Box 5425 ,Ketchikan
20659	ALASKA RIM ENGINEERING, INC.	9131 E. Frontage Road ,Palmer
20660	ALASKA RIVERWAYS, INC	1975 Discovery Drive ,Fairbanks
20663	ALASKA RUBBER & SUPPLY, INC.	5811 Old Seward Hwy ,Anchorage
20666	ALASKA SALES & SERVICE, INC.	1300 E 5th Ave ,Anchorage
20668	ALASKA SEAPLANE SERVICE LLC	1873 Shell Simmons Dr. ,Juneau
20669	ALASKA SOUTHCENTRAL UROLOGY SPECIALISTS, LLC	3841 Piper Street, Suite T300 ,Anchorage
20670	ALASKA SPECIALTY HOSPITAL, LLC	4800 Cordova St. ,Anchorage
20671	ALASKA STATE CHAMBER OF COMMERCE	471 West 36th Ave, Suite 201 ,Anchorage
20673	ALASKA STATE HOSPITAL AND NURSING HOME ASSOCIATION	1049 West 5th Ave Suite 100 ,Anchorage
20674	ALASKA STATE MEDICAL ASSOCIATION HEALTH CARE PLAN DOC PLAN	4107 Laurel Street ,Anchorage
20675	ALASKA STEEL COMPANY	6180 Electron Dr ,Anchorage
20676	ALASKA STRUCTURES, INC.	205 Lake Street S., Suite 300 ,Kirkland
20677	ALASKA SUMMIT ENTERPRISE, INC.	11723 Old Glenn Hwy Ste 209A ,Eagle River
20680	ALASKA TANKER COMPANY, LLC	15400 NW Greenbrier Parkway ,Beaverton
20681	ALASKA TEAMSTER - EMPLOYER PENSION PLAN	520 East 34th Avenue, Suite 107 ,Anchorage
20686	ALASKA TRAVEL ADVENTURES, INC.	9085 Glacier Hwy Ste 310 ,Juneau
20687	ALASKA TRAVEL INDUSTRY ASSOCIATION	2600 Cordova Street, Suite 201 ,Anchorage
20688	ALASKA TRAVEL SOURCE, INC.	1236 E 72nd Ave ,Anchorage
20689	ALASKA TRUST COMPANY	1029 W. Third Avenue, Suite 400 ,Anchorage
20692	ALASKA USA FEDERAL CU	4000 Credit Union Dr ,Anchorage
20693	ALASKA VILLAGE ELECTRIC COOPERATIVE, INC.	4831 Eagle Street ,Anchorage
20694	ALASKA VISION CENTER, INC	800 Glacier Ave ,Juneau
20695	ALASKA WILD BERRY PRODUCTS, INC.	5225 Juneau Street ,Anchorage
20696	ALASKA WILDERNESS LEAGUE	122 C St NW Ste 240 ,Washington
20697	ALASKA WOMENS HEALTH PC	3260 Providence Drive, Suite 322 ,Anchorage
20698	ALASKA WORKS PARTNERSHIP, INC.	1413 Hyder St #B ,Anchorage
20699	ALASKAN BREWING, LLC	5429 Shaune Drive ,Juneau
20700	ALASKAN EXPRESS SERVICE INC	3623 Munster Ave ,Hayward
20701	ALASKAN FUR COMPANY, INC.	9029 Metcalf Ave. ,Overland Park
20702	ALASKAN HOME SERVICES	2428 W Campus Dr. ,Tempe
20703	ALASKAN OBSERVERS, INC.	130 Nickerson St., 206 ,Seattle
20704	ALASKAN PROF. EMPLOYER SERVICES DBA SWAN EMPLOYER SERVICES	1306 E. 74th Avenue, Suite 200 ,Anchorage
20710	ALATAS AMERICAS, INC.	22015 South Freeway ,Manvel
20711	ALATEC, INC.	650 Pratt Avenue NW ,Huntsville
20713	ALATRADE, LLC	725 Blount Avenue ,Guntersville
20714	ALATRUST CREDIT UNION	Po Box 36489 ,Hoover
20716	ALAVEN CORP.	3050 Village Park Drive Plover ,Wisconsin
20717	ALAVEN PHARMACEUTICAL LLC	200 North Cobb Parkway ,Marietta
20718	ALAYA, INC.	1256 9th Avenue ,San Francisco
20720	ALB HOLDINGS, INC.	2962 Calle Quebracho ,Thousand Oaks
20721	ALB INDUSTRIAL SUPPLIES, INC.	263 48th Street ,Brooklyn
20723	ALB, INC.	552 W. 10th Street ,Pittsburg
20726	ALBA CONTRACTORS, INC.	8670 Twinbrook Rd ,Mentor
20727	ALBA INSURANCE AGENCY, INC.	3996 So. 5600 W. ,West Valley City
20728	ALBA LOYDA CRUZ MOYA	Po Box 194000 ,Hato Rey
20729	ALBA MANUFACTURING, INC.	8950 Seward Road ,Fairfield
20730	ALBA ORTHODONTICS LLC	116 Cumberland Parkway ,Mechanicsburg
20733	ALBA WHEELS UP INTERNATIONAL, INC.	15-030 132nd Ave Ste 208 ,Jamaica
20734	ALBAAD USA	129 S. Technology Dr. ,Reidsville
20737	ALBACOR SHIPPING USA INC	180 Franklin Tpke ,Mahwah
20738	ALBAHEALTH LLC	425 North Gateway Avenue ,Rockwood
20739	ALBAHEALTH, LLC	425 North Gateway Avenue ,Rockwood
20741	ALBAN CONSTRUCTION, LLC	130 Market Street ,Kenilworth
20742	ALBAN TRACTOR CO. INC.	8531 Pulaski Hwy ,Baltimore
20743	ALBANELLI CEMENT CONTRACTORS, INC.	12725 Fairlane ,Livonia
20746	ALBANESE & LUTZKE, INC.	705 South Main St. ,Plymouth
20747	ALBANESE ORGANIZATION, INC.	1050 Franklin Ave ,Garden City
20748	ALBANIAN-AMERICAN ENTERPRISE FUND	C/O F Qello, 780 Third Av 46th Fl ,New York
20749	ALBANO & GREENWALD	469 Prospect Street ,Torrington
20750	ALBANO APPLIANCE & SERVICE LLC	Po Box 269 ,Pound Ridge
20751	ALBANO SYSTEMS INC	1 Hartfield Blvd Ste 301 ,East Windsor
20753	ALBAN-WERTHEIMER ORTHOPAEDIC GROUP	4401 Atlantic Avenue, #110 ,Long Beach
20755	ALBANY ADVOCACY RESOURCE CENTER	2616 Pointe North Blvd ,Albany
20756	ALBANY AIR CONDITIONING AND HEATING COMPANY, INC	2500 W Gordon Ave ,Albany
20764	ALBANY BANK & TRUST N.A.	3400 West Lawrence ,Chicago
20765	ALBANY BEVERAGE COMPANY	Po Box 586 ,Albany
20766	ALBANY BEVERAGE CORP	3899 Carman Road ,Schenectady
20768	ALBANY CARDIOTHORACIC SURGEONS, P.C.	319 S. Manning Blvd., Suite 110 ,Albany
20769	ALBANY CENTER FOR PAIN MANAGEMENT	116 Everett Road ,Albany
20770	ALBANY CHRYSLER CENTER	34650 225th Avenue ,Albany
20771	ALBANY COLLEGE OF PHARMACY AND HEALTH SCIENCES	106 New Scotland Avenue ,Albany
20772	ALBANY COMMUNICATIONS, INC.	3303 Gillionville Road ,Albany
20773	ALBANY COMMUNITY ACTION PARTNERSHIP	333 Sheridan Ave ,Albany
20774	ALBANY COMMUNITY CHARTER SCHOOL	65 Krank Street ,Albany
20775	ALBANY COUNTRY CLUB	300 Wormer Road ,Voorheesville
20776	ALBANY COUNTY CONVENTION AND VISITORS BUREAU	25 Quackenbush Sq ,Albany
20777	ALBANY DENTAL CARE, PC	2 Kross Keys Dr ,Albany
20778	ALBANY DERMATOLOGY CLINIC, P.A.	2709 Meredyth Drive Suite 340 ,Albany
20780	ALBANY ELEVATOR INC	438 N Pearl St ,Albany
20784	ALBANY ENVELOPE, LLC	23 Winthrop Avenue ,Albany
20786	ALBANY EYE ASSOCIATES PHYSICIANS AND	63 Shaker Rd Ste 101 ,Albany
20788	ALBANY FIREMENS FEDERAL CREDIT UNION	532 Central Ave ,Albany
20791	ALBANY INDUSTRIES, INC.	504 North Glenfield Road ,New Albany
20793	ALBANY INTERNAL MEDICINE	2402 Osler Court ,Albany
20794	ALBANY INTERNATIONAL CORP.	P.O. Box 1907 ,Albany
20795	ALBANY IVF FERTILITY & GYNECOLOGY	399 Albany Shaker Road ,Loudonville
20797	ALBANY LASER SPA INC.	116 Wolf Road ,Albany
20798	ALBANY LASER SPA, LLC	5426 Tildens Grove ,Windermer
20800	ALBANY LEADERSHIP CHARTER SCHOOL FOR GIRLS	19 Hackett Boulevard ,Albany
20801	ALBANY LIGHT TRUCK REPAIR	4 Anderson Dr ,Albany
20803	ALBANY MACHINE PRODUCTS, INC	35218 238th Avenue ,Albany
20805	ALBANY MECHANICAL SERVICES, INC.	15 Albany Avenue ,Green Island
20806	ALBANY MEDICAL CENTER	43 New Scotland Avenue ,Albany
20808	ALBANY MEDICAL COLLEGE	47 New Scotland Avenue ,Albany
20809	ALBANY METAL FABRICATION HOLDINGS, INC.	67 Henry Johnson Blvd. ,Albany
20810	ALBANY MOLECULAR RESEARCH, INC.	26 Corporate Circle ,Albany
20811	ALBANY MULTI-MEDICINE GROUP	1694 Central Ave ,Albany
20815	ALBANY ORAL MAXILLOFACIAL SURGERY GROUP	2 Executive Park Drive ,Albany
20817	ALBANY PEDIATRICS, PC	1801 Palmyra Rd ,Albany
20818	ALBANY PLASTIC SURGEONS, PLLC	4 Executive Park Drive ,Albany
20820	ALBANY PULMONARY AND CRITICAL CARE, P.C.	P.O. Box 72105 ,Albany
20822	ALBANY REALTY GROUP, LLC	250 Osbourne Road ,Colonie
20828	ALBANY SURGERY ASSOCIATES, P.C.	63 Shaker Road ,Albany
20829	ALBANY SURGICAL, P.C.	P. O. Box 1686 ,Albany
20830	ALBANY SYMPHONY ORCHESTRA	19 Clinton Avenue ,Albany
20832	ALBANY UPSTATE DENTAL PC	540 Broadway Ste 100 ,Albany
20833	ALBANY UROLOGY CLINIC, P.C.	2400 Osler Court ,Albany
20834	ALBANY VALVE & FITTING CO.	120 South Church Street ,Schenectady
20836	ALBANY-CHICAGO COMPANY LLC	8200 100th Street ,Pleasant Prairie
20837	ALBANY-COLONIE REGIONAL CHAMBER	Five Computer Drive South ,Albany
20838	ALBANY-TROY CATARACT & LASER ASSOCIATES, PLLC	3 Atrium Drive ,Albany
20839	ALBAR INDUSTRIES, INC.	780 Whitney Dr. ,Lapeer
20841	ALBARELL ELECTRIC, INC.	901 West Lehigh Street ,Bethlehem
20842	ALBARELLA DESIGN, INC.	100 Bridgepoint Drive, Suite 100 ,South St Paul
20843	ALBATRANS, INC.	149-10 183rd Street ,Jamaica
20845	ALBATROS TRAVEL INC	1666 Kennedy Causeway Ste 702 ,North Bay Village
20847	ALBATROSS PICTURES, INC.	8840 Wilshire Blvd., 2D Floor ,Beverly Hills
20848	ALBATROSS USA, INC.	36-41 36th Street ,Long Island City
20849	ALBAUGH, INC.	1525 NE 36th Street ,Ankeny
20851	ALBD ELECTRIC & CABLE INC	2912 E Bluestar St ,Anaheim
20853	ALBECK FINANCIAL SERVICES, INC.	7102 N. Sam Houston Pkwy W ,Houston
20854	ALBECK GERKEN, INC.	1911 North Us 301 ,Tampa
20855	ALBECO	4775 W 139th Street ,Cleveland
20857	ALBEE CONTRACTING, INC.	2220-B Gamble Road ,Savannah
20858	ALBEMARLE ACADEMY	1210 Us Highway 17 South ,Elizabeth City
20859	ALBEMARLE AND ASSOCIATES, LTD.	115 West St. Clair Street ,Kill Devil Hills
20863	ALBEMARLE CORPORATION	451 Florida Street ,Baton Rouge
20864	ALBEMARLE DERMATOLOGY ASSOCIATES, LLC	3350 Berkmar Drive ,Charlottesville
20865	ALBEMARLE DERMATOLOGY CLINIC	323 Yadkin Street ,Albemarle
20867	ALBEMARLE EYE CENTER, PLLC	1503 North Road Street ,Elizabeth City
20870	ALBEMARLE HEATING & AIR INC.	102 Keystone Place 2nd Floor ,Charlottesville
20872	ALBEMARLE MEDICAL ASSOCIATES, PLLC	1507 North Road Street, Suite 3 ,Elizabeth City
20876	ALBEMARLE OIL COMPANY	300 Circle Drive ,Albemarle
20877	ALBEMARLE PEDIATRIC OPHTHALMOLOGY & STRABISMUS, P.C.	1101 East Jefferson Street, Suite 3 ,Charlottesville
20878	ALBEMARLE PULMONARY MEDICINE ASSOCIATES, P.A.	1507 North Road Street, Suite 1 ,Elizabeth City
20883	ALBENI FALLS BUILDING SUPPLY	520 Highway 2 ,Old Town
20884	ALBENSI DENTAL LABORATORY, INC.	100 Colony Drive ,Irwin
20886	ALBER CRAFTON, PSC	9418 Norton Commons Blvd Ste 200 ,Prospect
20889	ALBERIC COLON AUTO SALES, INC.	Po Box 70320 ,San Juan
20891	ALBERICI CORPORATION	8800 Page Avenue ,St. Louis
20892	ALBERICI GROUP INC.	8800 Page Avenue ,St Louis
20893	ALBERN SPOOLSTRA, D.D.S., APC	2700 Bellflower Blvd., Ste. 301 ,Long Beach
20895	ALBEROMED INC.	70 South Orange Avenue ,Livingston
20896	ALBERONI SEWING MACHINE, INC.	2991 E White Star Ave ,Anaheim
20897	ALBERS & COMPANY	1655 North Fort Myer Drive Ste 700 ,Arlington
20898	ALBERS & COMPANY, INC	4733 Tacoma Mall Blvd. ,Tacoma
20900	ALBERS MECHANICAL CONTRACTORS, INC	200 West Plato Boulevard ,St. Paul
20901	ALBERT & ALBERT	205 W Broadway Ave ,Elk City
20902	ALBERT & BESSIE MAE KRONKOSKY CHARITABLE FOUNDATION	112 East Pecan Suite 830 ,San Antonio
20903	ALBERT & GOODMAN, CPAS, P.C.	100 Lexington Drive - Suite 150 ,Buffalo Grove
20906	ALBERT & MARY LASKER FOUNDATION, INC.	110 East 42nd Street Suite 1300 ,New York
20909	ALBERT A KHALIL	42 Jeffery Circle ,Dayton
20913	ALBERT A. CITRON, D.M.D.	307 Maple Avenue West, Suite H ,Vienna
20916	ALBERT A. WEBB ASSOCIATES	3788 Mccray Street ,Riverside
20920	ALBERT ARNO, INCORPORATED	5000 Claxton Avenue ,St. Louis
20923	ALBERT B. CRUSH COMPANY OF LEXINGTON, INC.	2028 Parallel Road ,Lexington
20926	ALBERT B. SABIN VACCINE INSTITUTE	2000 Pennsylvania Ave NW Ste 7100 ,Washington
20933	ALBERT BIGGIANI D.M.D., P.C.	646 Commack Road ,Commack
20934	ALBERT BOYD MD PA	941 York Dr Ste 200 ,Desoto
20937	ALBERT BUZZETTI & ASSOCIATES	467 Sylvan Ave Fl 2 ,Englewood Cliffs
20938	ALBERT C GRAHAM COMPANY	30 Ferry Blvd ,Stratford
20941	ALBERT C. KOBAYASHI, INC.	94-535 Ukee Street ,Waipahu
20943	ALBERT C. MAK, M.D., INC.	707 S. Garfield Ave., Ste #B-002 ,Alhambra
20944	ALBERT C. PHY & SONS, INC.	2290 Wyandotte Road ,Willow Grove
20947	ALBERT CACCAVALE	P.O. Box 11720 ,Prescott
20948	ALBERT CANAS, MD, PA	1680 Michigan Avenue, Suite 912 ,Miami Beach
20960	ALBERT D. MASON, INC.	50 Congress Street, Suite 843 ,Boston
20962	ALBERT DABBAH, M.D., P.A.	9970 Central Park Blvd., Suite 201 ,Boca Raton
20964	ALBERT DAVIDOO AND ISAVI	16055 Ventura Boulevard Suite 1225 ,Encino
20965	ALBERT DAVIDSON JR CPA PC	742 Pre Emption Rd # A ,Geneva
20971	ALBERT E SACCO, DDS, PA	18 Ayres Lane ,Little Silver
20980	ALBERT EINSTEIN ACADEMY INC	101 Garden Of Eden Rd ,Wilmington
20982	ALBERT EINSTEIN HEALTHCARE NETWORK	5501 Old York Road ,Philadelphia
20984	ALBERT ELLIS INSTITUTE	145 E 32nd St Fl 9 ,New York
20985	ALBERT ELLIS, INC.	124 Mill Street ,Moorestown
20988	ALBERT F. FITZGERALD, INC.	120 Commerce Way ,Woburn
20989	ALBERT F. G. BEDINGER CONSULTING ENGINEERS, PC	500 Clyde Street ,Knoxville
20992	ALBERT FREI & SONS, INC.	Po Box 700 ,Henderson
20994	ALBERT FRIED & COMPANY, LLC	45 Broadway 24th Floor ,New York
20995	ALBERT FURS, INC.	28699 Chagrin Blvd. ,Woodmere
20998	ALBERT G. GRABB, M.D., INC.	309 Rocky Point Road ,Palos Verdes Estates
21000	ALBERT G. KARAM, M.D., P.A.	12200 Park Central, Suite 405B ,Dallas
21003	ALBERT G. STOLL JR. A LAW CORPORATION	55 Francisco Street, Suite 403 ,San Francisco
21004	ALBERT GARLATTI CONSTRUCTIONS COMPANY, INC.	401 Cleveland Avenue ,Highland Park
21008	ALBERT H. NOTINI & SONS, INC.	225 Aiken Street ,Lowell
21012	ALBERT HERMAN DRAPERIES, INC.	7603 First Pl Unit B7 ,Oakwood Village
21017	ALBERT J LAUER INC	5200 211th Sreet West ,Farmington
21024	ALBERT J. MARCHIONNE INSURANCE AGENCY, INC.	11 Independence Avenue ,Quincy
21026	ALBERT J. REPICCI, D.M.D., P.C.	141 Milbank Avenue ,Greenwich
21030	ALBERT J. WEISBROT MD INC.	P.O. Box 37959 ,Cincinnati
21034	ALBERT K. SASSOON, M.D., P.C.	877 Park Avenue ,New York
21035	ALBERT KAHN ASSOCIATES, INC.	7430 Second Avenue ,Detroit
21036	ALBERT KEMPERLE, INC.	176 New Highway ,Amityville
21038	ALBERT KIRCHMAYR CHOCOLATIER, INC	9630 Deereco Rd ,Timonium
21039	ALBERT KNAPP MD PC	760 Park Avenue ,New York
21041	ALBERT L. BERRA, D.D.S., M.S.	721 West Olive ,Porterville
21042	ALBERT L. CRUSH II	1809 Fairway Dr. ,Lagrange
21047	ALBERT LEA SEED HOUSE, INC.	Po Box 127 ,Albert Lea
21048	ALBERT LEE, INC.	1476 Elliott Ave W ,Seattle
21050	ALBERT LUCAS, D.M.D., P.A.	8430 West Broward Boulevard ,Plantation
21051	ALBERT M DRUKTEINIS MD JD	1750 Elm St Ste 601 ,Manchester
21053	ALBERT M LEFKOVITS, MD PC	1040 Park Avenue ,New York
21054	ALBERT M MINA DMD	777 S New Ballas Rd Ste 318W ,Saint Louis
21058	ALBERT M. DE FABRITUS, M.D.	352 Seventh Avenue, Suite 1003 ,New York
21061	ALBERT M. STUSH JR. DMD	142 Farley Cir ,Lewisburg
21063	ALBERT MARINE CONSTRUCTION, INC	65 Pennsylvania Avenue ,Waretown
21070	ALBERT NAHMAN PLUMBING & HEATING	3333 M.L. King Jr. Way ,Berkeley
21072	ALBERT O. J. LANDUCCI, D.D.S., INC.	10 Scenic Way #201 ,San Mateo
21073	ALBERT P BLOSS DDS	13032 6th Ave NW ,Seattle
21077	ALBERT P. ELLENDER, D.D.S., A.P.C.	102 Ramey Road, Progressive Square ,Houma
21078	ALBERT P. PEPKA, M.D., F.A.A.P., P.C.	16620 North 40th Street, Suite B4 ,Phoenix
21080	ALBERT PAPER COMPANY	1255 North Union Street ,Stockton
21083	ALBERT R ARCAND DMD, INC.	1079 Main St ,West Warwick
21084	ALBERT R DUARTE DMD PC	2130 Massachusetts Avenue ,Cambridge
21085	ALBERT R. HARTMAN, M.D., P.C.	4403 Harrison Blvde Suite 4625 ,Ogden
21087	ALBERT R. PINO, LTD.	3900 Mercy Drive ,Mchenry
21092	ALBERT RIGHTER & TITTMANN ARCHITECTS, INC.	262 Washington Street ,Boston
21094	ALBERT RUSSO, STANDING CHAPTER	One Aaa Drive Suite 101 ,Robbinsville
21096	ALBERT S. CHINAPPI, JR., D.D.S., P.A.	43 East Main Street ,Marlton
21101	ALBERT STERLING & ASSOCIATES, INC.	5613 Winsome Lane ,Houston
21103	ALBERT T. DOMINGO, MS, MD, INC.	82 North Miller Rd ,Akron
21106	ALBERT TIRE COMPANY	39 Phoenix Drive ,West Deptford
21108	ALBERT USTER IMPORTS INC	9211 Gaither Road ,Gaithersburg
21110	ALBERT V. RANDACCIO BUILDER, INC.	300 International Drive ,Williamsville
21111	ALBERT V. SMITH, P.A.	P.O. Box 5866 ,Spartanburg
21114	ALBERT W MARCHIANDO	4614 Jayden Court ,Quincy
21120	ALBERT WATSON PHOTOGRAPHY INC.	44 Laight Street, Unit 1 ,New York
21126	ALBERT ZAFONTE, JR.	215 Uniondale Ave ,Uniondale
21128	ALBERT, NEELY & KUHLMANN, L.L.P.	309 West 7th Street, Suite 1200 ,Fort Worth
21129	ALBERT, WHITEHEAD, P.C.	10 North Dearborn Suite 600 ,Chicago
21130	ALBERTA BAIR THEATER	2722 3rd Avenue North, Suite 200 ,Billings
21134	ALBERTINA KERR CENTERS	424 NE 22nd Ave. ,Portland
21135	ALBERTINI GROUP INC	5550 Lbj Fwy Ste 700 ,Dallas
21153	ALBERTO MOTTESI EVANGELISTICASSO	3636 Westminster Avenue ,Santa Ana
21160	ALBERTO ROMERO PA	1105 W Swann Ave ,Tampa
21163	ALBERTO SOBRADO, M.D.	170 Pleasant Street ,North Andover
21164	ALBERTO TAYLOR DDS	791 Bayside Rd Ste 2 ,Arcata
21165	ALBERTO TEXIDOR PH.D., PLLC	2150 South Dobson Road, Suite 4 ,Mesa
21169	ALBERTS & HELING, CPAS LLC	1977 American Drive, Suite 202 ,Neenah
21172	ALBERTS PLASTERING, INC.	1610 Orchard View Lane ,Brussels
21174	ALBERTS SCREENPRINT INC.	3704 Summit Road ,Norton
21175	ALBERTSON & DAVIDSON, LLP	3491 Concourse Street Suite 201 ,Ontario
21179	ALBERTSON PERFORMANCE GROUP, INC.	250 SW Birdshill Road ,Portland
21187	ALBERTY & ASSOCIATES LLC	7388 Highland Rd ,Baton Rouge
21189	ALBIERO PLUMBING, INC.	1940 N Main St ,West Bend
21190	ALBIES FOODS, INC.	1534 Orourke Blvd ,Gaylord
21191	ALBIN CARLSON & CO.	745 South Rohlwing Road ,Addison
21193	ALBIN HENGESBACH CARPENTRY AND CUSTOM CABINETS	116 E Main Street ,Westphalia
21194	ALBIN, RANDALL & BENNETT	130 Middle Street, 3rd Floor ,Portland
21195	ALBIN, YATES, BALIUS & ROACH, PLLC	5601 Granite Parkway, Suite 400 ,Plano
21196	ALBINA COMMUNITY BANK	430 NW 10th Ave Ste 101 ,Portland
21197	ALBINA FUEL COMPANY	801 Main Street ,Vancouver
21198	ALBINA HEAD START INCORPORATED	3417 NE 7th Ave ,Portland
21199	ALBINA PIPE BENDING CO., INC.	12080 SW Myslony St. ,Tualatin
21200	ALBINA VEYS, D.M.D., P.C.	104 S. 2nd Avenue ,Collegeville
21201	ALBINDER, ALTMAN & BLOCK	462 Seventh Avenue ,New York
21202	ALBINO CONSTRUCTION, INC.	12568 W. Washington Blvd., Suite 20 ,Culver City
21206	ALBION COSMETICS	110 East 42nd Street ,New York
21207	ALBION ENGINEERING COMPANY	1250 N. Church Street ,Moorestown
21208	ALBION FELLOWS BACON CENTER	P.O. Box 3164 ,Evansville
21209	ALBION FINANCIAL GROUP	812 East 2100 South ,Salt Lake City
21210	ALBION INDUSTRIES INC.	800 North Clark Street ,Albion
21211	ALBION INVESTORS, LLC	75 Rockefeller Plaza ,New York
21213	ALBION LABORATORIES, INC.	101 N Main Street ,Clearfield
21214	ALBION MACHINE & TOOL COMPANY	Box 239 ,Albion
21215	ALBION MOTORS FORD-MERCURY INC	1411 N. Eaton St. ,Albion
21216	ALBION POWER COMPANY INC	214 Pierce Street ,San Francisco
21217	ALBION SCACCIA ENTERPRISES, LLC	8601 Dunwoody Place ,Sandy Springs
21219	ALBION TELEPHONE COMPANY	P.O. Box 98 ,Albion
21220	ALBION-HOLLEY PENNYSAVER INC	Po Box 231 ,Albion
21221	ALBITZ-MILOE & ASSOCIATES, INC.	23133 Hawthorne Blvd. ,Torrance
21222	ALBO & OBLON L L P	2200 Clarendon Blvd Ste 1201 ,Arlington
21223	ALBON MANUFACTURING, L.L.C.	2801 Technology Place ,Norman
21224	ALBORG MARTIN & BUDDE, LLP	2121 North California Blvd. ,Walnut Creek
21225	ALBORN CONSTRUCTION, INC.	11331 Dave Lane ,Anchorage
21227	ALBOURNE AMERICA, LLC	655 Montgomery St Ste 1910 ,San Francisco
21228	ALBRACHT ORTHOPEDIC SURGERY, PLLC	1901 Medi Park Dr Ste 103 ,Amarillo
21230	ALBREADA REFUSE & SWEEPING, LLC	P.O. Box 569 ,Torrington
21231	ALBRECHT ENGINEERING, INC.	3500 Boston Street Ms-12 Suite ,Baltimore
21235	ALBRECHT FOODS	3255 Golf Road ,Delafield
21237	ALBRECHT INCORPORATED	17 South Main Street ,Akron
21239	ALBRECHT, VIGGIANO, ZURECK & COMPANY	25 Suffolk Court ,Hauppauge
21240	ALBRECHTA AND COBLE, LTD.	2228 Hayes Ave., Ste A ,Fremont
21241	ALBRECHT-MILLER, INC.	P.O. Box 322 ,Rancho Santa Fe
21245	ALBRIGHT CAPITAL MANAGEMENT LLC	1101 New York Avenue, Suite 900 ,Washington
21246	ALBRIGHT COLLEGE	P O Box 15234 ,Reading
21249	ALBRIGHT EYECARE	1595 E. Common Street ,New Braunfels
21250	ALBRIGHT MANAGED NETWORKS, LLC	112 W 8th Street, Suite B ,Port Angeles
21251	ALBRIGHT PACKAGING, INC.	330 W College Avenue ,Appleton
21252	ALBRIGHT PAINTING COMPANY	P.O. Box 590 ,St. Albans
21254	ALBRIGHT STEEL & WIRE COMPANY	P.O. Box 2056 ,Oklahoma City
21255	ALBRIGHT STONEBRIDGE GROUP, LLC	601 13Th Street, N.W. ,Washington
21256	ALBRIGHT TECHNOLOGIES, INC.	25 Litchfield St ,Leominster
21257	ALBRIGHT WELDING SUPPLY CO. INC.	3132 E Lincoln Way ,Wooster
21258	ALBRIGHT, CRUMBACKER, MOUL & ITELL LLC	1110 Professional Court, Suite 300 ,Hagerstown
21259	ALBRIGHT, FORTENBERRY & NINAS, LLP	Po Box 2767 ,Columbus
21261	ALBRIGHT, STODDARD, WARNICK & ALBRIGHT, A PROFESSIONAL CORPORATION	801 So. Rancho Dr., Ste D-4 ,Las Vegas
21263	ALBRIGHTS OF BELPRE, INC.	511 Washington Blvd. ,Belpre
21264	ALBRITE CARPETS, INC.	223 Winthrop Avenue ,Lawrence
21265	ALBRITTON ELECTRICAL SERVICE, INC.	4821 Six Oaks Drive ,Tallahassee
21266	ALBRITTON WILLIAMS, INC.	2850 Industrial Plaza ,Tallahassee
21268	ALBU & ASSOCIATES, INC.	1460 Minnesota Ave. ,Winter Park
21269	ALBUM KING, INC.	20 Kean Street ,West Babylon
21270	ALBUMS, INC.	15900 Foltz Industrial Pkwy ,Strongsville
21272	ALBUQUERQUE AREA INDIAN HEALTH BOAR D, INC.	5015 Prospect Ave Ne ,Albuquerque
21276	ALBUQUERQUE CENTER FOR RHEUMATOLOGY PC	1617 University Blvd Ne ,Albuquerque
21278	ALBUQUERQUE COMMUNITY FOUNDATION	624 Tijeras Ave., NW ,Albuquerque
21279	ALBUQUERQUE CONVENTION AND VISITOR S BUREAU, INC.	20 First Plaza Ctr NW Ste 601 ,Albuquerque
21281	ALBUQUERQUE CRANIOFACIAL CENTER, LTD.	7520 Montgomery NE, Suite D-2 ,Albuquerque
21282	ALBUQUERQUE DERMATOLOGY ASSOCIATES & CUTANEOUS SURGERY CENTER, PA	5310 Homestead Rd. NE, Suite 301 ,Albuquerque
21283	ALBUQUERQUE ECONOMIC DEVELOPMENT, INC.	851 University Blvd. SE, Suite 203 ,Albuquerque
21287	ALBUQUERQUE GRAND LLC	161 Barbados Dr ,Jupiter
21288	ALBUQUERQUE HARDWOOD LUMBER CO.	4100 Second St. NW ,Albuquerque
21289	ALBUQUERQUE HEALTH CARE FOR THE HOMELESS	P. O. Box 25445 ,Albuquerque
21290	ALBUQUERQUE HISPANO CHAMBER OF COMMERCE	1309 4th Street Sw ,Albuquerque
21291	ALBUQUERQUE IMPLANT AND PERIODONTAL CONSULTANTS	4216 Louisiana Blvd. ,Albuquerque
21293	ALBUQUERQUE MANUFACTURING, INC.	6300 Jefferson St Ne ,Albuquerque
21294	ALBUQUERQUE MEALS ON WHEELS, INC.	Po Box 92614 ,Albuquerque
21295	ALBUQUERQUE MINIMALLY INVASIVE UROLOGY, LLC	200 Oak Street Suite 5 ,Albuquerque
21296	ALBUQUERQUE NEUROSCIENCE, INC.	101 Hospital Loop NE, Suite 209 ,Albuquerque
21297	ALBUQUERQUE PIPE & PUMP SUPPLY COMPANY	4300 Ellison Street Ne ,Albuquerque
21298	ALBUQUERQUE PUBLISHING COMPANY	P.O. Box 95777 ,Albuquerque
21304	ALBUQUERQUE UROLOGY ASSOCIATES, P.A.	610 Broadway Boulevard Ne ,Albuquerque
21305	ALBUQUERQUE VEIN & LASER INSTITUTE	7401 Hancock Court Ne ,Albuquerque
21306	ALBUQUERQUE VISION CLINIC, LLC	5343 Wyoming Blvd. Ne ,Albuquerque
21307	ALBUQUERQUE WOMENS HEALTH, P.C.	1010 Lead SE, Suite 4 ,Albuquerque
21309	ALBURTIS ANIMAL HOSPITAL	106 North Main Street ,Alburtis
21310	ALBUS-KEEFE & ASSOCIATES, INC.	1011 N. Armando Street ,Anaheim
21312	ALC ELECTRICAL CONTRACTOR, INC.	1761 E 2nd St ,Scotch Plains
21314	ALC HOME HEALTH CARE, INCORPORATED	477 E Butterfield Rd Ste 208 ,Lombard
21315	ALC INCORPORATED	Po Box 1208 ,Atkinson
21316	ALC OF MARYLAND, INC.	61 Thomas Johnson Drive, Suite B ,Frederick
21317	ALC, INC.	8280 Midlothian Turnpike ,Richmond
21318	ALCA CONSTRUCTION COMPANY, INC.	55 Airport Road ,Hartford
21319	ALCA CORPORATION	593 Fairview Ave N ,St Paul
21322	ALCALA COMPANY INC.	10788 Roselle Street Suite 101 ,San Diego
21323	ALCALA CONSULTING	7474 N. Figueroa St., 200 ,Los Angeles
21325	ALCALDE & FAY	2111 Wilson Blvd. ,Arlington
21326	ALCAM, INC.	501-G La Mesa Road ,Mt Pleasant
21328	ALCAN AUTO & TRUCK, INC.	Po Box 448 ,Delta Junction
21330	ALCAN CORPORATION	4700 Daybreak Parkway ,South Jordan
21337	ALCANCE MEDIA GROUP	268 Bush Street, Suite 3703 ,San Francisco
21338	ALCANTAR & KAHL, L.L.P.	1300 SW 5th Avenue, Suite 1750 ,Portland
21342	AL-CAST MOLD AND PATTERN, INC.	15720 Lincoln St Ne ,Ham Lake
21343	ALCAST, INC.	8792 Cliffside Drive ,Huntington Beach
21344	ALCAT, INCORPORATED	116 West Main Street ,Milford
21346	ALCATEL USA, INC.	600 Mountain Avenue, Room 7C406 ,Murray Hill
21347	ALCATEL VACUUM PRODUCTS	67 Sharp Street ,Hingham
21348	ALCATEL-LUCENT HOLDINGS, INC.	600 Mountain Avenue, Room 7B503 ,Murray Hill
21350	ALCATEL-LUCENT USA INC.	600 Mountain Avenue ,Murray Hill
21353	ALCATRAZ CRUISES LLC	55 Francisco Street, Suite 360 ,San Francisco
21356	ALCC, INC.	2533 N Carson Street ,Carson City
21359	ALCHEM, LTD	Po Box 1728 ,Jamestown
21360	ALCHEME, INC.	2700 Diamond Street ,San Francisco
21362	ALCHEMIST GENERAL, INC	720 Snellng Avenue ,St. Paul
21366	ALCHEMY CONSULTING, INC.	330 Hosmer Ct. ,San Carlos
21367	ALCHEMY DESIGNS INC	14193 NW Lakeview Drive ,Portland
21368	ALCHEMY ENTERTAINMENT, INC.	1299 Ocean Avenue, Suite 333 ,Santa Monica
21370	ALCHEMY MANAGEMENT, INC.	16722 Avenfield Rd. ,Tomball
21371	ALCHEMY SECURITY, LLC	238 Santa Fe Drive ,Denver
21376	ALCHEMY-PARTNERS, PC	5885 Trinity Parkway ,Centreville
21377	ALCHERABIO LLC	304 Amboy Avenue ,Metuchen
21378	ALCHESTER GROUP LLC	678 Troy Schenectady,Suite 303 ,Latham
21379	ALCHRO, INC.	P.O. Box 813787 ,Hollywood
21380	ALCIMED	5 Vaughn Drive Suite 105 ,Princeton
21382	ALCO AUTO PARTS CO INC	288 Hyde Park Ave ,Jamaica Plain
21383	ALCO CONSTRUCTION CO., INC.	3608 N. Milwaukee Avenue ,Chicago
21384	ALCO CORPORATION, INC.	P.O. Box 1957 ,Cody
21385	ALCO FEDERAL CREDIT UNION	2859 Lindy Ln ,Wellsville
21386	ALCO FENCE COMPANY OF CENTRAL WEST VIRGINIA, INC.	1141 Paper Fig Court ,Sanibel
21388	ALCO HOLDINGS, INC.	3005 Rosemont Drive ,Landenberg
21391	ALCO IRON & METAL CO.	2140 Davis Street ,San Leandro
21392	ALCO MANAGEMENT, INC.	35 Union Avenue #200 ,Memphis
21395	ALCO PARKING CORPORATION	D L Clark Building ,Pittsburgh
21398	ALCO PLASTICS, INC.	160 East Pond Road ,Romeo
21399	ALCO PRODUCTS, LLC	580 St. Jean ,Detroit
21400	ALCO SALES AND SERVICE COMPANY	6851 High Grove Blvd ,Burr Ridge
21401	ALCO SERVICE & SUPPLY COMPANY	11578 K-Tel Drive ,Minnetonka
21403	ALCO SPRING INDUSTRIES, INC	2300 Euclid Ave ,Chicago Heights
21405	ALCO TECHNOLOGIES INC	1815 W 213Th St Ste 175 ,Torrance
21406	ALCO TOOL SUPPLY, INC.	54847 Cr 17 ,Elkhart
21408	ALCOA COMMUNITY FEDERAL CREDIT UNION	Po Box 1269 ,Benton
21409	ALCOA ELECTRICAL CONTRACTOR IN	12340 Seal Beach Blvd ,Seal Beach
21411	ALCOA INC	201 Isabella Street ,Pittsburgh
21412	ALCOA PITTSBURGH FEDERAL CREDI	30 Isabella St Ste 100 ,Pittsburgh
21413	ALCOA TENN FEDERAL CREDIT UNION	Po Box 9001 ,Alcoa
21414	ALCO-CHEM, INC.	45 N. Summit Street ,Akron
21416	ALCOEUR GARDENS	1126 Lakewood Road ,Toms River
21417	ALCOHOL & ADDICTIONS RESOURCE CENTE R,INC	818 E Jefferson Blvd ,South Bend
21418	ALCOHOL & DRUG ABUSE COUNCIL	Pob 384 ,Lufkin
21419	ALCOHOL & DRUG ABUSE SERVICES, INC.	120 Chestnut Street ,Port Allegany
21420	ALCOHOL & DRUG RECOVERY CENTERS, INC.	500 Blue Hills Ave. ,Hartford
21424	ALCOHOL AND DRUG ABUSE COUNCIL OF D ELAWARE COUNTY, INC.	72 Main St ,Delhi
21425	ALCOHOL AND DRUG COUNCIL OF TOMPKIN S COUNTY, INC.	201 E Green St ,Ithaca
21427	ALCOHOL AND DRUG FREEDOM CENTER OF KNOX COUNTY	106 East Gambier Street ,Mount Vernon
21429	ALCOHOL DRUG ADMINISTRATIVE MO	Po Box 298 ,Goodrich
21430	ALCOHOL DRUG COUNCIL - HIGH GAIN PR OJECT	1424 4th St Ste 205 ,Santa Monica
21432	ALCOHOL JUSTICE	24 Belvedere Street ,San Rafael
21434	ALCOHOL/DRUG COUNCIL OF NORTH CAROLINA	600 East Main Street, Ste 203 ,Durham
21435	ALCOHOLIC BEVERAGE MEDICAL RESEARCH FND	1122 Kenilworth Dr Ste 407 ,Baltimore
21436	ALCOHOLISM COUNCIL OF BUTLER COUNTY, OHIO	2935 Hamilton Mason Road ,Hamilton
21438	ALCOLE PROPERTIES, INC.	2321 Rosecrans Ave., Suite 4250 ,El Segundo
21441	ALCOM PRINTING GROUP, INC	140 Christopher Lane ,Harleysville
21442	ALCOMA DENTAL ASSOCIATES, P.C.	5769 Saltsburg Road ,Verona
21444	ALCON BUILDERS GROUP INC.	180 East 94th Street ,New York
21445	ALCON COLORADO ENGINEERING, INC.	Po Box 892305 ,Temecula
21446	ALCON EMPLOYEES FEDERAL CREDIT UNION	6201 South Fwy ,Fort Worth
21447	ALCON ENTERTAINMENT, LLC	10390 Santa Monica Blvd., Suite 250 ,Los Angeles
21448	ALCON INDUSTRIES INC	7990 Baker Avenue ,Cleveland
21449	ALCON INDUSTRIES, INC.	7990 Baker Avenue ,Cleveland
21450	ALCON LABORATORIES, INC.	6201 South Freeway ,Fort Worth
21451	ALCON MECHANICAL INC	103 W Market St Suite 201 ,Warren
21453	ALCON TOOL COMPANY	565 Lafollette St ,Akron
21454	ALCON, INC.	6522 Snider Road ,Loveland
21459	ALCONOX, INC.	30 Glen Street Ste 309 ,White Plains
21460	ALCOP ADHESIVE LABEL COMPANY	826 Perkins Lane ,Beverly
21462	ALCOPRO, INC.	P.O. Box 10954 ,Knoxville
21463	ALCOR INC.	300 Breesport ,San Antonio
21464	ALCOR SCIENTIFIC INC.	20 Thurber Boulevard ,Smithfield
21465	ALCOR SUPPLIES	P. O. Box 107 ,Miamisburg
21467	ALCORN & CURETON, LTD.	4604-B Pinecrest Office Park Dr ,Alexandria
21468	ALCORN AIRE, INC.	325 Robinson St ,Bakersfield
21470	ALCORN COUNTY ELECTRIC POWER ASSOCIATION	Po Box 1590 ,Corinth
21471	ALCORN FENCE COMPANY	9901 Glenoaks Blvd ,Sun Valley
21472	ALCORN GOERING SAGE, LLP	One West Sixth Street ,Madison
21476	ALCORP, INC.	250 West 57th Street, 26th Floor ,New York
21478	ALCOSE CREDIT UNION	3001 Jacks Run Rd Ste 101 ,White Oak
21479	ALCOSYS, INC.	1405 S. Fern St., #553 ,Arlington
21480	ALCOTEC WIRE CORPORATION	2750 Aero Park Drive ,Traverse City
21484	ALCOTT HR GROUP, LLC	71 Executive Boulevard ,Farmingdale
21489	ALCOTT WHITNEY, LLC	414 Bridge Street ,Franklin
21490	ALCOVA MORTGAGE LLC	305 Market Street Sw ,Roanoke
21498	AL-CRAFT DESIGN & ENGINEERING, INC	710 Minnesota Avenue ,Troy
21499	ALCUIN SCHOOL	6144 Churchill Way ,Dallas
21501	ALCYON, INC.	4801 University Square ,Huntsville
21504	ALCYONE PLUMBING CO., INC.	4 Brooklyn Ave. ,Massapequa
21505	ALD INSURANCE AGENCY INC	60A Brighton Ave ,Allston
21506	ALD PRECAST CORP.	Po Box 398 ,Columbus
21507	ALD THERMAL TREATMENT, INC.	2656 24th Street ,Port Huron
21508	ALD VACUUM TECHNOLOGIES, INC.	18 Thompson Road ,East Windsor
21510	ALDA INC	245 Amity Rd Ste 209 ,Woodbridge
21511	ALDA INC.	5928 Vineyard Avenue ,Rancho Cucamonga
21512	ALDA MEDICAL CENTER, INC	131 Goshen Road Extension Ste 300 ,Rincon
21513	ALDAG/HONOLD MECHANICAL, INC.	3509 S Business Drive ,Sheboygan
21514	ALDAGEN, INC.	2810 Meridian Parkway, Suite 148 ,Durham
21518	ALDEA HOMES, INC.	941 Washington Blvd. , Ste. 310 ,Roseville
21519	ALDEA PHARMACEUTICALS, INC.	3696 Haven Avenue Suite C ,Redwood City
21521	ALDEA TECHNOLOGIES, INC.	10 North Martingale Road ,Schaumberg
21522	ALDEA, INC.	Po Box 841 ,Napa
21523	ALDEBARAN ROBOTICS, INC	185 Alewife Brook Parkway, Ste 410 ,Cambridge
21524	ALDEC INC	2260 Corporate Cir Ste 400 ,Henderson
21526	ALDELANO CORPORATION OF MICHIGAN	2050 Spencerville Rd ,Lima
21527	ALDEN & OTT PRINTING INKS, CO.	616 E Brook Dr ,Arlington Heights
21528	ALDEN ANIMAL HOSPITAL, LLC	11076 Broadway ,Alden
21529	ALDEN B AND VADA B DOW CREATIVITY FOUNDATION	315 Post Street ,Midland
21531	ALDEN BUICK GMC	6 Whalers Way ,Fairhaven
21532	ALDEN CAPITAL MANAGEMENT LLC	310 - 120th Ave. NE, Suite 200 ,Bellevue
21533	ALDEN CREDIT UNION	710 Grattan Street ,Chicopee
21538	ALDEN EQUIPMENT INC.	66 1/2 Bridge Street ,Amsterdam
21540	ALDEN GROUP LTD	60 Carleton Ave ,Islip Terrace
21544	ALDEN LANE NURSERY AND GARDEN CENTER, INC.	981 Alden Lane ,Livermore
21546	ALDEN LEEDS, INC.	55 Jacobus Ave. ,Kearny
21549	ALDEN MANAGEMENT GROUP	150 Paularino Avenue ,Costa Mesa
21550	ALDEN MANAGEMENT SERVICES, INC.	4200 West Peterson Avenue ,Chicago
21551	ALDEN MANAGEMENT SERVICES, INCORPORATED	4200 W. Peterson Avenue ,Chicago
21553	ALDEN MEDICAL LLC	360 Cold Spring Ave Ste 1 ,West Springfield
21554	ALDEN OPTICAL LABORATORIES, INC.	6 Lancaster Parkway ,Lancaster
21556	ALDEN PHARMACY, INC.	13203 Broadway Street ,Alden
21558	ALDEN REALTY MANAGEMENT, LLC	P.O. Box 252148 ,Los Angeles
21560	ALDEN RESOURCES, LLC	332 West Cumberland Gap Parkway ,Corbin
21561	ALDEN SHOE COMPANY, INC.	One Taunton Street ,Middleborough
21562	ALDEN STATE BANK	10564 Coy St ,Alden
21566	ALDER BIOPHARMACEUTICALS, INC.	11804 N Creek Parkway S ,Bothell
21567	ALDER BROOK DENTAL ASSOCIATES, PC	8 Essex Way ,Essex
21568	ALDER CONSTRUCTION COMPANY	3939 South 500 West ,Salt Lake City
21569	ALDER FOODS, INC.	One Foxhill Drive ,Walpole
21570	ALDER GROUP , INC.	903 Geneva Street ,Delavan
21572	ALDER LAW, A PROFESSIONAL CORPORATION	1840 Century Park East, 15th Floor ,Los Angeles
21573	ALDER SALES CORPORATION	6676 South 400 West ,Murray
21575	ALDER TECHNOLOGY, INC	4732 Glass Mountain Way ,Haymarket
21576	ALDERAC ENTERTAINMENT GROUP	4045 E Guasti Rd Ste 210 ,Ontario
21580	ALDERFER & TRAVIS CARDIOLOGY, P.C.	670 Lawn Avenue, Suite 3A ,Sellersville
21581	ALDERFER GLASS COMPANY	144 Telford Pike ,Telford
21583	ALDER-LYNN FAMILY DENTISTRY	4410 194th Street SW, #C ,Lynnwood
21584	ALDERMAN & ALDERMAN	472 South Salina Street ,Syracuse
21585	ALDERMAN & HILGERS, LLP	888 S. Figueroa Street, 16th Floor ,Los Angeles
21587	ALDERMAN BERNSTEIN LLC	101 University Blvd., Suite 350 ,Denver
21588	ALDERMAN GROUP, LLC	1015 Mumma Road ,Wormlysburg
21590	ALDERMAN ORAL & MAXILLOFACIAL SURGERY	14555 Hazel Dell Parkway ,Carmel
21593	ALDERMANS, INC.	1380 S. M-13 ,Lennon
21595	ALDERSGATE UNITED METHODIST CHURCH	1301 Collingwood Road ,Alexandria
21597	ALDERSLY	326 Mission Avenue ,San Rafael
21598	ALDERSON & ASSOCIATES, INC.	7700 Torino, Suite 101 ,San Antonio
21599	ALDERSON BROADDUS COLLEGE	101 College Hill Drive Box 2004 ,Philippi
21600	ALDERSON CONSTRUCTION	710 Channing Way ,Berkeley
21601	ALDERSON CONVALESCENT HOSPITAL	124 Walnut Street ,Woodland
21602	ALDERSON ENGINEERING, INC	407 Lakeside Drive ,Southampton
21603	ALDERSON ENTERPRISES, L.P.	1210 19th Street ,Lubbock
21604	ALDERSON FUNERAL HOME, INC.	9 Holmes Avenue ,Waterbury
21605	ALDERWOOD COLLISION CENTER, INC	4030 Alderwood Mall Blvd ,Lynnwood
21606	ALDERWOOD RESORT MANAGEMENT LLC	42184 Moonridge Rd., Suite 1 ,Big Bear Lake
21608	ALDERWOOD VISION THERAPY CENTE	16006 Ash Way Ste 101 ,Lynnwood
21610	ALDEVRON, LLC	3233 15th Street S ,Fargo
21612	ALDI INC.	1200 North Kirk Road ,Batavia
21614	ALDIE COUNSELING CENTER	11 Welden Dr ,Doylestown
21615	ALDIE VETERINARY HOSPITAL	43083 Peacock Market Plaza Unit 140 ,South Riding
21616	ALDIK, INC.	9820 Pflumm Road ,Lenexa
21617	ALDILA GOLF CORP.	14145 Danielson Street, Suite B ,Poway
21618	ALDILA, INC.	14145 Danielson St Ste B ,Poway
21620	ALDINE INC	150 Varick St. ,New York
21621	ALDO A. LOMBARDO, M.D., P.A.	851 W. Indiantown Road ,Jupiter
21626	ALDO PRODUCTS COMPANY, INC.	1604 N. Main Street ,Kannapolis
21627	ALDO SORDELLI DDS MSD PA	1035 Dairy Ashford ,Houston
21629	ALDO US, INC.	2300 Emile-Belanger ,Ville St Laurent
21631	ALDO, INC.	17422 Minnetonka Blvd ,Minnetonka
21634	ALDON COMPANY, INC.	3410 Sunset Avenue ,Waukegan
21635	ALDON FOOD CORPORATION	4461 Township Line Road ,Schwenksville
21636	ALDON MANAGEMENT CORPORATION	8180 Wisconsin Ave ,Bethesda
21637	ALDON SUPPLY, INC.	612 Steubenville Avenue ,Cambridge
21640	ALDONEX, INC.	2917 St. Charles Road ,Bellwood
21642	ALDRICH & ASSOCIATES, INC.	43 Sherman Hill Road, Suite D104 ,Woodbury
21643	ALDRICH & BONNEFIN, P.L.C.	18500 Von Karman Ave Ste 300 ,Irvine
21644	ALDRICH & COX, INC.	3075 Southwestern Blvd Ste 202 ,Orchard Park
21645	ALDRICH & ELLIOT, PC	6 Market Place, Suite 2 ,Essex Junction
21646	ALDRICH CAPITAL GROUP LTD	1430 5th Street #510 ,Santa Monica
21647	ALDRICH CHIROPRACTIC CENTER, LLC	100 North Hamilton Road ,Gahanna
21648	ALDRICH CLEAN-TECH EQUIPMENT CORP	59 Webster Place ,Worcester
21649	ALDRICH CONSTRUCTION COMPANY, INC.	1395 Tolland Turnpike ,Manchester
21651	ALDRICH EIKE, PC.	319 SW Washington, Suite 1200 ,Portland
21653	ALDRICH MEMORIAL NURSERY SCHOOL	855 Essex Parkway NW ,Rochester
21654	ALDRICH PUBLIC LIBRARY	6 Washington Street ,Barre
21655	ALDRICH RENT-ALL, INC.	9043 Prosperity Farms Rd ,Lake Park
21656	ALDRICH TOOL RENTAL, INC.	1601 North Congress Avenue ,West Palm Beach
21657	ALDRICH-THOMAS GROUP, INC.	18 North 3rd Street ,Temple
21659	ALDRIDGE CONNORS, LLP	Fifteen Piedmont Center ,Atlanta
21661	ALDRIDGE ELECTRIC INC	844 East Rockland Rd ,Libertyville
21662	ALDRIDGE FINANCIAL CONSULTANTS, LLC	3021 Bethel Road ,Columbus
21664	ALDRIDGE MARKETING GROUP, INC.	11435 120th Avenue Ne ,Kirkland
21666	ALDRIDGE, INCORPORATED	913 Trinity Road ,Raleigh
21667	ALDS, INC.	7373 Mohawk Street ,La Mesa
21670	ALE ENTERPRISES, INC.	2206 State Hwy 74 South ,Purcell
21672	ALE-8-ONE BOTTLING COMPANY INC.	25 Carol Road ,Winchester
21675	ALEA NORTH AMERICA COMPANY	55 Capital Blvd ,Rocky Hill
21677	ALEBRA TECHNOLOGIES, INC.	Po Box 120390 ,New Brighton
21679	ALEC C. GUSH, DDS, PC	2 James Street ,Auburn
21681	ALEC M. ELCHAHAL, DMD, MS, PC.	4395 Johns Creek Parkway Suite 100 ,Suwanee
21686	ALECKNA & ASSOCIATES, LLC	244 Cranbury Rd. ,Princeton Junction
21687	ALECO CONTAINER	5545 W 56th Ave Unit F ,Arvada
21688	ALECS SHOE STORE, INC.	201 Main Street ,Nashua
21691	ALECTRO, INC.	3100 E Cedar Street ,Ontario
21692	ALEDO CONSULTING, INC.	8395 Keystone Crossing ,Indianapolis
21696	ALEFS LLC DBA ALEFS HARLEY-DAVIDSON	5427 N Chuzy Dr ,Wichita
21697	ALEGACY FOOD SERVICE PRODUCTS GROUP, INC.	12683 Corral Place ,Santa Fe Springs
21699	ALEGEUS TECHNOLOGIES, LLC	1601 Trapelo Rd ,Waltham
21701	ALEGIS REVENUE GROUP, LLC	1201 Lake Woodlands Dr. ,The Woodlands
21702	ALEGNA REALTY, LLC	4528 Aircholtz Road ,Cincinnati
21703	ALEGRE DENTAL INC	160 Market St ,Lynn
21704	ALEGRE DENTAL LLC	2116 Vista Oeste NW Ste 202 ,Albuquerque
21706	ALEGRE, INC	3101 West Tech Road ,Miamisburg
21708	ALEGRIA & COMPANY PS	601 North 39th Avenue ,Yakima
21723	ALEJANDRO OLIVERAS RIVERA CHAPTER 13 TRUSTEE	Po Box 9024062 ,San Juan
21728	ALEK INDUSTRIES, INC	4095 Executive Drive ,Beavercreek
21729	ALEKMAN DITUSA LLC	1550 Main Street ,Springfield
21730	ALEKS CORPORATION	15460 Laguna Canyon Road ,Irvine
21734	ALEKSANDRA WIRGA MD INC	3505 Long Beach Blvd Ste 2D ,Long Beach
21737	ALEM INTERNATIONAL MANAGEMENT, INC.	624 South Arthur Avenue ,Louisville
21738	ALEMBA GROUP INC	7760 France Avenue South #1100 ,Edina
21739	ALEMBIC COMPUTER SERVICES,INC	2125 S. 48th Street ,Tempe
21740	ALEMBIC INTERNATIONAL, LTD	P.O. Box 1941 ,Honokaa
21742	ALEMITE CORPORATION	1057 521 Corporate Cntr Dr Ste 100 ,Fort Mill
21744	ALEN SECURITY COMPANY, INC.	10 Pleasant Hill Road ,Monroe Township
21745	ALEN USA, LP	9326 Baythorne Drive ,Houston
21746	ALEN, INC	6207 Cottage Hill Road ,Mobile
21747	ALENA ASHENBERG, MD PEDIATRICS, LLC	505 Nashua Road ,Dracut
21748	ALENA WEALTH LLC	57 Bedford Street ,Lexington
21749	ALENCO COMMUNICATIONS, INC.	427 N Broadway St ,Joshua
21750	ALENCO TOOL SUPPLY CO	4444 N. Elston Ave. ,Chicago
21753	ALENCON ACQUISITION CO LLC	330 South Warminster Road ,Hatboro
21754	ALENE CANDLES, LLC	51 Scarborough Lane ,Milford
21755	ALENIA AERMACCHI NORTH AMERICA, INC.	1235 South Clark Street ,Arlington
21756	ALENT, INC.	One Weybosset Hill ,Providence
21757	ALEPH AMERICA CORPORATION	4700 Aircenter Circle ,Reno
21763	ALEPPO TEMPLE SHRINE ACTIVITIES, INC	99 Fordham Road ,Wilmington
21765	ALERDING & CO., LLC	4181 E. 96th St., Ste. 180 ,Indianapolis
21767	ALERE INC.	51 Sawyer Road Suite 200 ,Waltham
21768	ALERE PROPERTY GROUP	100 Bayview Circle ,Newport Beach
21769	ALERE, BIOSITE, FREE AND CLEAR INVERNESS	3200 Windy Hill Road, Suite B-100 ,Atlanta
21770	ALEREON, INC.	7600 N. Capital Of Texas Highway ,Austin
21771	ALERIAN CAPITAL MANAGEMENT LLC	2100 Mckinney Avenue ,Dallas
21773	ALERION CAPITAL GROUP L L C	7702 E Doubletree Ranch Rd ,Scottsdale
21774	ALERION PARTNERS, LLC	23 Old Kings Highway South ,Darien
21775	ALERIS INTERNATIONAL, INC.	25825 Science Park Dr, Ste 400 ,Beachwood
21777	ALERIS OHIO MANAGEMENT INC	25825 Science Park Dr Ste 400 ,Beachwood
21778	ALERIS ROLLED PRODUCTS, INC.	25825 Science Park Dr Ste 400 ,Beachwood
21779	ALERIS SPECIALTY PRODUCTS, INC.	25825 Science Park Dr ,Beachwood
21780	ALERIS SPECIFICATION ALLOYS INC	25825 Science Park Dr ,Beachwood
21781	ALERKRME, INC. DBA THE GODDARD SCHOOL	160 Medical Drive ,Carmel
21783	ALERSTALLINGS, LLC	6037 Frantz Rd. ,Dublin
21787	ALERT AMBULANCE SERVICES, INC.	1195 Airport Road ,Lakewood
21789	ALERT DRIVING, INC.	1900 Camden Avenue ,San Jose
21791	ALERT FIRE PROTECTION, INC.	P.O. Box 403 ,Uwchland
21794	ALERT LIFE SCIENCES COMPUTING	11710 Plaza America Dr Ste 2000 ,Reston
21796	ALERT MEDICAL, INC.	30555 Greenfield ,Southfield
21798	ALERT PHARMACY SERVICES, INC.	219 North Baltimore Avenue ,Mt. Holly Springs
21801	ALERT RESPONSE, LLC.	Po Box 292894 ,Lewisville
21803	ALERT SAFETY LITE PRODUCTS COMPANY	24500 Solon Road ,Bedford Heights
21804	ALERT SCIENTIFIC, INC.	469 School Street ,East Hartford
21805	ALERT SELF PERFORMANCE, LLC	P.O. Box 164 ,Somers
21806	ALERT SPRINKLER CO INC	Po Box 558 ,Jamesburg
21807	ALERT STAMPING & MANUFACTURING CO. INC.	24500 Solon Road ,Bedford Heights
21810	ALERT-ALL CORP.	164 Orlan Road ,New Holland
21811	ALERTNESS SOLUTIONS, INC.	1601 S. Deanza Blvd., Suite 270 ,Cupertino
21813	ALERUS FINANCIAL	2300 S. Columbia Road ,Grand Forks
21823	ALESCO ADVISORS, LLC	120 Office Park Way ,Pittsford
21824	ALESHIRE & WYNDER, LLP	18881 Von Karman Ave Ste 400 ,Irvine
21825	ALESHIRE ROBB, P.C.	2847 Ingram Mill Rd., A-102 ,Springfield
21827	ALESSANDRA PAVING & MASONRY LLC	22 Park Avenue ,Randolph
21828	ALESSANDRA RITTER, DDS, MS, PA	501 Eastowne Drive ,Chapel Hill
21833	ALESSANDRO/WEBER DESIGN CONSULTANTS	20 West 22nd Street ,New York
21834	ALESSCO, INC.	13161 Sherman Way, Building C ,North Hollywood
21835	ALESSI FAMILY CARE, P.A.	9400 Bonita Beach Road ,Bonita Springs
21839	ALESSIO EYE MD	17534 Royalton Road ,Strongsville
21845	ALETHIUM CORP	7112 Calabria Ct Unit E ,San Diego
21847	ALEUTIAN PRIBILOF ISLANDS ASSOCIATION INC.	1131 E International Airport Road ,Anchorage
21848	ALEUTIAN SPRAY FISHERIES, INC.	2157 N. Northlake Way, Suite 210 ,Seattle
21851	ALEX & GAXIOLA, P.C.	1717 East Bell Road, Suite One ,Phoenix
21853	ALEX A. ACCETTA, CPA & ASSOCIATES, INC.	8840 Warner Ave., Suite 204 ,Fountain Valley
21856	ALEX A. FARNOOSH DMD, INC	8920 Wilshire Blvd. ,Beverly Hills
21859	ALEX AND ANI, LLC	2000 Chapel View Boulevard ,Cranston
21863	ALEX B SCHEINGROSS	3772 Clairemont Drive ,San Diego
21865	ALEX BACHOURA, L.L.C.	1510 Utah Street ,Houston
21866	ALEX BEJIAN, DMD	331 Chestnut Street ,Needham
21867	ALEX BELL DENTAL	Dds Llc ,Centerville
21868	ALEX BLOOM	12101 Chaucer Rd ,Los Alamitos
21869	ALEX BOUDOV	523 W 6th St Ste 385 ,Los Angeles
21872	ALEX C. FERGUSSON, LLC	5000 Letterkenny Rd., Suite 220 ,Chambersburg
21873	ALEX C. SALINAS, D.D.S., P.C.	7323 Marbach Road, Suite 101 ,San Antonio
21876	ALEX COLE PAVING INC	390 Peruville Rd ,Freeville
21880	ALEX DOWNIE & SONS COMPANY	19 West Heights Ave ,Youngstown
21884	ALEX E. PARIS CONTRACTING COMPANY, INC.	Box 369 ,Atlasburg
21889	ALEX GHAZAL DMD	1950 Laurel Manor Dr. Bldg 184 ,The Villages
21897	ALEX J MARTIN DDS PLC	10752 North 89th Place Suite 107 ,Scottsdale
21899	ALEX J ROBINSON OD	427 North College Street ,Waxahachie
21900	ALEX J. HARALAM, D.M.D.	12 Eisenhower Boulevard ,Lancaster
21905	ALEX KATZ	435 West Broadway ,New York
21909	ALEX LEE, INC.	120 Fourth Street Southwest ,Hickory
21910	ALEX LEVAY, ATTORNEY, P.L.L.C.	29 North King Street ,Leesburg
21912	ALEX M. GREENBERG , DDS, PC	18 East 48th Street, Suite 1702 ,New York
21913	ALEX M. MERCADO, M.D., L.L.C.	191 Route 206 ,Flanders
21915	ALEX MANDEL, M.D.	328 Taunton Avenue ,East Providence
21917	ALEX MEDICAL, INC.	5920 Sea Lion Place, Ste. 120 ,Carlsbad
21919	ALEX MICHELSON MD INC	24800 Chrisanta Drive Ste 260 ,Mission Viejo
21920	ALEX MISHEL, D.D.S., P.C.	6425 N Keystone Ave. ,Indianapolis
21923	ALEX MOVING & STORAGE	2610 South Birch Street ,Santa Ana
21925	ALEX N. SILL COMPANY	The Genesis Building ,Cleveland
21927	ALEX POPE INC.	5540 Marlboro Pike ,Forestville
21928	ALEX PRAGER STUDIO, LLC	750 Fairmont Avenue, #100 ,Glendale
21929	ALEX PRODUCTS INC	Po Box 326 ,Ridgeville Corners
21930	ALEX R. MCDONALD PHD, DDS INCORPORATED	3300 Webster Street, Suite 810 ,Oakland
21931	ALEX RADER DDS	1855 San Miguel Drive ,Walnut Creek
21932	ALEX ROOFING COMPANY, INC	1644 E 12Th Street ,Erie
21935	ALEX S. JOSEPH ASSOCIATES, INC.	5790 Widewaters Parkway ,Dewitt
21936	ALEX S. PALMER & COMPANY	1801 W End Avenue, Ste 1600 ,Nashville
21938	ALEX SMITH GARDEN DESIGN, LTD.	5642 Peachtree Rd ,Chamblee
21940	ALEX SOLOMIANY PA	80 SW 8th St Ste 1710 ,Miami
21942	ALEX TATUM CONSTRUCTION CO INC	300 Mckinley Drive ,Griffin
21947	ALEX ZAND, M.D., A.P.C.	16 Silhouette ,Irvine
21948	ALEX. BROWN REALTY, INC.	300 East Lombard Street Suite 1200 ,Baltimore
21949	ALEXA ENERGY LTD	1248 Wayne St. ,Reading
21954	ALEXA S LESSOW MD	1049 5th Ave Ste 1A ,New York
21956	ALEX-ALTERNATIVE EXPERTS, LLC	4443 Brookfield Corporate Drive ,Chantilly
21957	ALEXAN LLC	Cabanero Edzel Single Member ,San Diego
21958	ALEXANDER & ALEXANDER ORTHODONTICS, PLLC	5500 Preston Road, Suite 360 ,Dallas
21960	ALEXANDER & ALEXANDER, INC.	Po Box 119 ,Leitchfield
21961	ALEXANDER & ASSOCIATES CO.	360 Mclean Drive ,Cincinnati
21962	ALEXANDER & ASSOCIATES, INC.	147 Old Bernal Ave Ste 10 ,Pleasanton
21963	ALEXANDER & BALDWIN, INC.	822 Bishop Street ,Honolulu
21964	ALEXANDER & BALDWIN, LLC	P. O. Box 3440 ,Honolulu
21965	ALEXANDER & BALDWIN, LLC HAWAIIAN COMMERCIAL & SUGAR CO.	P.O. Box 266 ,Puunene
21966	ALEXANDER & BEBOUT, INC.	10098 Lincoln Hwy ,Van Wert
21967	ALEXANDER & CATALANO LLC	6713 Collamer Raod ,East Syracuse
21968	ALEXANDER & CHANDLER PA	123B Broad Street ,Kernersville
21970	ALEXANDER & COMPANY	291 Heritage Walk ,Woodstock
21972	ALEXANDER & GRENON CHIROPRACTIC CENTER PC	677 S Main St ,Cheshire
21973	ALEXANDER & HORNUNG INC.	20643 Stephens Road ,St Clair Shores
21975	ALEXANDER & MCCABE APPRAISAL MANAGEMENT COMPANY	180 Redwood Street ,San Francisco
21977	ALEXANDER & PELLI, LLC	1608 Walnut St Ste 900 ,Philadelphia
21980	ALEXANDER & SANDERS INSURANCE AGENCY, INC.	4610 Bluebonnet Blvd., Suite A ,Baton Rouge
21981	ALEXANDER & SONS INC.	18934 E Avenida Del Ray ,Rio Verde
21984	ALEXANDER A BOL A I A ARCHITEC	251 Springfield Ave ,Berkeley Heights
21986	ALEXANDER A. DAVIS M.D., INC.	P.O. Box 576527 ,Modesto
21989	ALEXANDER A. PRATTES, M.D	27871 Medical Center Road, Ste 160 ,Mission Viejo
21991	ALEXANDER AGENCY, INC.	P.O. Box 3190 ,Fort Mill
21992	ALEXANDER AIZMAN, M.D., P.C.	21 Chase Road ,Manhasset
21994	ALEXANDER ALVAREZ & COMPANY	301 Forest Ave. ,Laguna Beach
21995	ALEXANDER AND ALEXANDER	208 South Lasalle Street ,Chicago
21996	ALEXANDER AND ASSOCIATES APC	5151 Shoreham Place 200 ,San Diego
21998	ALEXANDER ANDREOFF, ATTORNEY AT LAW	1830 N. Fountain Blvd ,Springfield
21999	ALEXANDER ANDREW INC	1306 S Alameda St ,Compton
22001	ALEXANDER ANTONELLI ARCHITECTS PLLC	48 West 37th Street, 17th Floor ,New York
22003	ALEXANDER AUTOMOTIVE GROUP	111 Alpha Drive ,Franklin
22005	ALEXANDER BABBAGE INC	1201 Peachtree Street NE Ste 500 ,Atlanta
22007	ALEXANDER BINZEL CORPORATION	650 Medimmune Ct ,Frederick
22009	ALEXANDER BROS. LIMITED	2958 Ualena Street ,Honolulu
22010	ALEXANDER BROTHERS FLORIST LLC	1192 Madison Avenue ,New York
22011	ALEXANDER BUILDING COMPANY, INC.	7550 E. Main Street ,Scottsdale
22012	ALEXANDER BUILDING CORPORATION	432 Route 100 South ,Bridgewater Corners
22016	ALEXANDER CHANG M.D., P.C.	2101 Greentree Road, Suite 105 ,Pittsburgh
22017	ALEXANDER CHAPLIK MD PA	6238 W Atlantic Ave ,Delray Beach
22019	ALEXANDER CLARK PRINTING	10801 W Emerald St ,Boise
22020	ALEXANDER COLALILLO, JR.	100 Chews Landing Road ,Haddonfield
22021	ALEXANDER COMMUNICATIONS GROUP	712 Main St Ste 187B ,Boonton
22022	ALEXANDER COMPANY	161 West 2nd N ,Bancroft
22023	ALEXANDER COMPANY, INC.	145 East Badger Road, Suite 200 ,Madison
22029	ALEXANDER D. GAMBER, DDS, LLC	2200 Woodman Drive ,Kettering
22032	ALEXANDER DESIGN ASSOCIATES, INC.	150 West 30th St., Suite 1105 ,New York
22035	ALEXANDER DODDS COMPANY	3000 Walkent Drive N.W. ,Grand Rapids
22036	ALEXANDER DOLSKY	110-45 Queens Blvd Ste 105 ,Forest Hills
22037	ALEXANDER DRUG, INC.	490 North 2nd East ,Mountain Home
22038	ALEXANDER DUBOSE & TOWNSEND LLP	1844 Harvard Street ,Houston
22042	ALEXANDER EAR, NOSE AND THROAT CENTER, PC	2726 Lawrenceville Highway ,Decatur
22045	ALEXANDER ENERGY	85 Jeffrey Pine Lane ,Carson City
22046	ALEXANDER EQUINE VETERINARY SERVICES INC.	2373 NW 185th Ave Pmb 514 ,Hillsboro
22049	ALEXANDER EYE INSTITUTE, S.C.	250 N. Metro Drive ,Appleton
22062	ALEXANDER GRAHAM BELL MONTESSORI SC	9200 Capitol Dr ,Wheeling
22067	ALEXANDER HAMILTON INSTITUTE, INC.	289 Cupsaw Drive ,Ringwood
22068	ALEXANDER HASELKORN MD.,PA	750 Broadway ,Paterson
22071	ALEXANDER HUTTON, INC.	1215 Fourth Ave., Suite 900 ,Seattle
22072	ALEXANDER IMAGING INC.	570 Bryant St ,San Francisco
22075	ALEXANDER INFUSION, LLC	75 Nassau Terminal Road ,New Hyde Park
22076	ALEXANDER INSURANCE, INC.	Po Box 8113 ,Newark
22077	ALEXANDER INVESTMENT SERVICES	909 Lily Creek Road ,Louisville
22078	ALEXANDER ISLEY, INC.	9 Brookside Place ,Redding
22079	ALEXANDER J WAYNE & ASSOCIATES	2551 N Clark Street, Suite 601 ,Chicago
22081	ALEXANDER J. CORONDONI D.D.S.	7424 Jackson Drive, Suite 2 ,San Diego
22085	ALEXANDER JAMES & CO	P. O. Box 116 ,Sea Cliff
22092	ALEXANDER KRAKOW AND GLICK LLP	401 Wilshire Blvd. ,Santa Monica
22095	ALEXANDER LANKFORD & HIERS, INC.	4000 S. Medford Dr. ,Lufkin
22096	ALEXANDER LAW FIRM, P.C.	C/O Rps Plan Administrators ,Aurora
22097	ALEXANDER LAW GROUP LLP	111 W Saint John St Ste 700 ,San Jose
22099	ALEXANDER LEWIS MD	1820 San Miguel Drive ,Walnut Creek
22100	ALEXANDER LINSKY, D.M.D., P.C.	15 Bond Street ,Great Neck
22102	ALEXANDER LUMBER CO	419 N Cedar Avenue ,Owatonna
22103	ALEXANDER LUMBER CO.	Po Box 831 ,Aurora
22104	ALEXANDER M DELLA BELLA DMD, LLC	7835 Remington Road ,Cincinnati
22108	ALEXANDER M. WALDMAN DIAMOND CO., INC.	15 W 47th St. ,New York
22111	ALEXANDER MANN SOLUTIONS CORPORATION	1301 E. 9th Street ,Cleveland
22114	ALEXANDER MARKETING GROUP	1650 Broadway, Suite 1002 ,New York
22115	ALEXANDER MARKETING, INC.	7777 Alvarado Road, Ste 249 ,La Mesa
22117	ALEXANDER MCQUEEN TRADING LTD	50 Hartz Way ,Secaucus
22119	ALEXANDER MEDICAL GROUP, P.C.	222 Alexander Street, Suite 2400 ,Rochester
22120	ALEXANDER METALS, INC.	497 Cave Road ,Nashville
22123	ALEXANDER MORFORD & WOO, INC.	16310 NE 80th Street ,Redmond
22124	ALEXANDER MOTORS INC	Po Box 70 ,Superior
22126	ALEXANDER MUSS INSTITUTE FOR ISRAEL EDUCATION	78 Randall Ave ,Rockville Centre
22128	ALEXANDER N. NEWMAN, M.D., P.A.	204 Ashville Ave Ste 60 ,Cary
22129	ALEXANDER N. STADNYK, M. D.	6624 Fannin Street ,Houston
22131	ALEXANDER NICHOLSON INC.	155 Forestvue Drive ,Earlysville
22132	ALEXANDER OIL COMPANY	Po Box 769 ,Brenham
22135	ALEXANDER OPEN SYSTEMS	12980 Foster Street #300 ,Overland Park
22136	ALEXANDER ORTHOPAEDIC ASSOCIATES	12416 66th Street North ,Largo
22138	ALEXANDER OSINOVSKY, D.D.S., P.C.	8230 Boone Blvd., Suite 410 ,Vienna
22142	ALEXANDER PLANT FARM INC	1214 Piney Woods Rd ,Alleyton
22144	ALEXANDER PLUMBING, HEATING & AIR CONDITIONING CO., INC.	743 Alexander Road #10 ,Princeton
22148	ALEXANDER PROPERTIES GROUP, INC.	3190 NE Expressway Ste 400 ,Atlanta
22149	ALEXANDER PROPERTIES, INC.	Po Box 2137 ,Wausau
22150	ALEXANDER PUBLICATIONS	1048 Irvine Ave. #484 ,Newport Beach
22151	ALEXANDER R. ARSHINKOFF	466 W. Streetsboro Street ,Hudson
22156	ALEXANDER RANDOLPH ADVISORY, INC.	1902 Campus Commons Drive ,Reston
22161	ALEXANDER RIVKIN, M.D., INC.	14724 Ventura Blvd., Suite 1009 ,Sherman Oaks
22162	ALEXANDER ROAD ASSOCIATES IN PSYCHIATRY & COUNSELING, P.C.	707 Alexander Road ,Princeton
22163	ALEXANDER ROSS & CO.	100 Park Avenue ,New York
22164	ALEXANDER ROSSITCH, DDS, PA	1901 Brunswick Avenue ,Charlotte
22165	ALEXANDER S DIPAOLO CPA PC	43-01 Bell Blvd 2nd Flr ,Bayside
22166	ALEXANDER S. BUCHANAN, PLLC,	30 Temple Street ,Nashua
22167	ALEXANDER S. KITA, DDS, PA	3517 J.F.K. Blvd. ,North Little Rock
22168	ALEXANDER S. ONASSIS PUBLIC BENEFIT FOUNDATION USA, INC.	645 Fifth Avenue - Suite 304 ,New York
22172	ALEXANDER SCHNEIDER USA, INC.	C/O Richard Graber ,Staten Island
22173	ALEXANDER SCHOOL, INC.	6050 SW 57th Avenue ,Miami
22176	ALEXANDER SCREW PRODUCTS, INC.	8750 Pendleton Pike ,Indianapolis
22177	ALEXANDER SEALCOATINGS & STRIPING, INC.	P.O. Box 211032 ,Montgomery
22180	ALEXANDER- SMITH ACADEMY	10255 Richmond Ave ,Houston
22184	ALEXANDER SPASIC, MD FAMILY MEDICINE LLC	419 Village Dr Suite 6 ,Carlisle
22186	ALEXANDER STEEL SALES, INC.	1 Betterworld Circle ,Temecula
22187	ALEXANDER SUMMER, LLC	205 Robin Road ,Paramus
22191	ALEXANDER TARNARIDER, O.D., P.C.	319 Brighton Beach Avenue ,Brooklyn
22192	ALEXANDER TERMITE & PEST	2395 Pleasantdale Rd ,Doraville
22194	ALEXANDER THOMPSON ARNOLD PLLC	624 E Reelfoot Avenue ,Union City
22197	ALEXANDER TRAVEL, LTD.	4700 N. University ,Peoria
22201	ALEXANDER W CRUDEN AND CO CPAS	12 Corporate Woods Blvd ,Albany
22204	ALEXANDER WAGNER CO INC	25 Lafayette St ,Paterson
22208	ALEXANDER WOLF & COMPANY, INC.	One Dupont Street ,Plainview
22210	ALEXANDER X. KUHN & COMPANY	123 W. Front Street, Suite 200 ,Wheaton
22212	ALEXANDER YOUTH NETWORK	6220 Thermal Rd ,Charlotte
22214	ALEXANDER, ARONSON, FINNING & CO., P.C.	21 East Main Street ,Westborough
22215	ALEXANDER, BERKEY, WILLIAMS & WEATHERS, LLP	2030 Addison Street, Suite 410 ,Berkeley
22216	ALEXANDER, CLAYTON & WILSON, LLP	One Boardwalk, Ste 200 ,Thousand Oaks
22217	ALEXANDER, DEGANCE & BARNETT, PA	225 Water Street, Suite 1200 ,Jacksonville
22219	ALEXANDER, EISENBERG & SPILMAN, P.C	600 South Adams ,Birmingham
22220	ALEXANDER, HAAS, MARTIN & PARTNERS, INC	3520 Piedmont Road ,Atlanta
22221	ALEXANDER, LAWRENCE, FRUMES & LABOWITZ, LLP	1880 Century Park East, Suite 914 ,Los Angeles
22222	ALEXANDER, OFFENBERGER & ROOT, INC.	3131 Elbee Rd ,Moraine
22229	ALEXANDERS INC	590 North Morley Avenue ,Nogales
22230	ALEXANDERS INC.	210 Route 4 East ,Paramus
22231	ALEXANDERS MACHINE SHOP, INC.	1201 East Johnson Avenue ,Jonesboro
22232	ALEXANDERS METALS	1127 East Main Street ,Sultan
22234	ALEXANDRA CHAMPALIMAUD & ASSOC	475 10th Avenue ,New York
22235	ALEXANDRA DRESEL, M.D.	8210 Walnut Hill Lane #609 ,Dallas
22236	ALEXANDRA GARCIA, DDS, MC, PA	1900 Post Oak Blvd ,Houston
22238	ALEXANDRA HOUSE INC	Po Box 49039 ,Blaine
22244	ALEXANDRA S GEORGE DDS PC	171 Wexford Bayne Rd Ste 200 ,Wexford
22247	ALEXANDRE DE PARIS, LLC	12751 Federal Systems Park Drive ,Fairfax
22248	ALEXANDRE LONDON INC	4500 Main St Ste 620 ,Virginia Beach
22250	ALEXANDRIA ASSOCIATES IN DERMATOLOGY, PC	Suite 110, ,Alexandria
22253	ALEXANDRIA CLINIC P.A.	610 30th Avenue West ,Alexandria
22255	ALEXANDRIA CONVENTION & VISITORS AS	625 N. Washington Street ,Alexandria
22256	ALEXANDRIA COUNTRY DAY SCHOOL	5603 Bayou Rapides Rd. ,Alexandria
22258	ALEXANDRIA DRUGS INC	7857 Alexandria Pike ,Alexandria
22259	ALEXANDRIA ENTERPRISES, INC.	4311 Co. Rd 82 Se ,Alexandria
22260	ALEXANDRIA EXTRUSION COMPANY	401 County Road 22 NW ,Alexandria
22261	ALEXANDRIA EYE & LASER CENTER, LLC	231 Windermere Blvd ,Alexandria
22263	ALEXANDRIA GASTROINTESTINAL SPECIALISTS, LLC	3311 Prescott Road ,Alexandria
22264	ALEXANDRIA HEALTHCARE FOR WOMEN, LLC	3302 Masonic Drive ,Alexandria
22265	ALEXANDRIA HOMES, INC.	5745 Highway 29 South ,Alexandria
22266	ALEXANDRIA HYUNDAI, LLC	1707 Mt. Vernon Avenue ,Alexandria
22267	ALEXANDRIA LIGHTING & SUPPLY, INC.	701 North Henry Street ,Alexandria
22269	ALEXANDRIA MOULDING, INC.	Po Box 169 ,Moxee
22270	ALEXANDRIA NEIGHBORHOOD HEALTH SERVICES, INC.	2445 Army Navy Drive, Suite 305 ,Arlington
22274	ALEXANDRIA ORAL SURGERY, P.C.	4660 Kenmore Avenue, Suite 204 ,Alexandria
22277	ALEXANDRIA PET CARE INC	7 Rosecrest Avenue ,Alexandria
22279	ALEXANDRIA PRO FAB CO., INC.	8210 State Highway 29 North ,Alexandria
22280	ALEXANDRIA PULMONARY & CRITICAL CARE ASSOC , PC	6355 Walker Lane Suite 300 ,Alexandria
22281	ALEXANDRIA REAL ESTATE EQUITIES, INC.	385 E. Colorado Blvd., Suite 299 ,Pasadena
22282	ALEXANDRIA RECREATIONAL VEHICLES, INC.	5701 State Highway 29 South ,Alexandria
22285	ALEXANDRIA TIRE CENTER	Po Box 110 ,Alexandria
22289	ALEXANDRIA-LAKE RIDGE PEDIATRICS, LTD.	1500 N Beauregard St Ste 200 ,Alexandria
22290	ALEXANDRIAN PUBLIC LIBRARY	115 W. Fifth Street ,Mount Vernon
22291	ALEXANDROV, METZGER & FLANNAGAN, PC	32 Franklin Street, Suite 304 ,Worcester
22292	ALEXANT SYSTEMS CORPORATION	5568 General Washington Dr Ste ,Alexandria
22294	ALEXCO RESOURCE U.S. CORP.	1150 200 Granville Street ,Vancouver
22296	ALEXEM PC	62 Brown St Ste 203 ,Haverhill
22299	ALEXIA CRAWFORD, INC.	224 South Van Brunt Street ,Englewood
22300	ALEXIA MOORE WINE MARKETING, INC.	1755 East Bayshore ,Redwood City
22302	ALEXIA R LUCERO, DDS	516 W Remington Drive ,Sunnyvale
22303	ALEXIAN BROTHERS HEALTH SYSTEM	600 Alexian Way ,Elk Grove Village
22304	ALEXIAN BROTHERS SENIOR MINISTRIES	12250 Weber Hill Road Ste 200 ,St Louis
22305	ALEXIAN BROTHERS SHERBROOKE VILLAGE	4005 Ripa ,St. Louis
22306	ALEXIAN VILLAGE OF MILWAUKEE	9301 N. 76th ,Milwaukee
22308	ALEXIC INC	6789 Quail Hill Pkwy # 209 ,Irvine
22315	ALEXIN, LLC	1390 South Adams Street ,Bluffton
22316	ALEXION PHARMACEUTICALS, INC.	352 Knotter Drive ,Cheshire
22317	ALEXIS B. OLSSON, D.D.S., P.C.	201 E. Huron 12-100 ,Chicago
22318	ALEXIS BITTAR, LLC	45 Main Street ,Brooklyn
22321	ALEXIS EXHIBITS INC.	825 Leona Street ,Elyria
22324	ALEXIS GRANITE DESIGN	2206 Us Highway 281 ,Marble Falls
22325	ALEXIS IZQUIERDO, P.A.	102 East 49th Street ,Hialeah
22326	ALEXIS LANE M.D., INC.	8055 Valencia Street ,Aptos
22331	ALEXIS, INC.	10 South Cody Court ,Lakewood
22332	ALEXIUS J CROWLEY DDS LTD	720 Osterman Avenue Suite 101 ,Deerfield
22334	ALEXS AIR CONDITIONING, INC	706 Bayou Rd ,La Marque
22335	ALEXS PLACE AT THE EDGE OF	8322 Park Rd ,Batavia
22339	ALEXSSA ENTERPRISES LTD	301 North Main Street ,West Bend
22340	ALEXSY LANG PC	535 Griswold St Suite 1550 ,Detroit
22342	ALEXTON INCORPORATED	5600B General Washington Dr B201 ,Alexandria
22344	ALEXZA PHARMACEUTICALS, INC.	2091 Stierlin Court ,Mountain View
22346	ALEYANT SYSTEMS, LLC	P.O. Box 641 ,Wheaton
22347	ALF I LTD	1720 SE 16th Avenue ,Ocala
22351	ALFA BOX CORPORATION	P.O. Box 242 ,Spencer
22352	ALFA CONSULTING LLC	8920 Route 108, Suite C ,Columbia
22353	ALFA DEVELOPMENT INC.	39 Oak Ridge Road ,Newfoundland
22354	ALFA ELECTRIC	4092 39th Avenue ,Oakland
22355	ALFA ESCROW, INC	1675 Hanover Street ,City Of Industry
22358	ALFA INTERNATIONAL GLOBAL LEGAL NETWORK, INC. DBA ALFA INTL	980 North Michigan Avenue ,Chicago
22359	ALFA LAVAL INC.	5400 International Trade Drive ,Richmond
22361	ALFA MACHINE CO., INC.	2154 Route 130 North ,Monmouth Junction
22362	ALFA MEDICAL CLINIC, P.A.	2540 West Arrowwood Road Suite 110 ,Charlotte
22363	ALFA MUTUAL INSURANCE COMPANY	P O Box 11000 ,Montgomery
22364	ALFA PIPING CORP.	57-12 Grand Avenue ,Maspeth
22365	ALFA SCIENTIFIC DESIGNS INC.	13200 Gregg Street ,Poway
22366	ALFA TECH CONSULTING ENGINEERS, INC.	1321 Ridder Park Dr #50 ,San Jose
22368	ALFAB, INC	Route 16 North ,Smithville
22370	ALFAGOMMA AMERICA, INC.	Atsb, Po Box 938 ,Dubuque
22371	ALFALFA, INC.	P.O. Box 743 ,Lakin
22372	ALFALIGHT, INC.	1832 Wright Street ,Madison
22374	ALFANO FLYNN LLC	53 Mountain Road ,Suffield
22376	ALFANO MOTORCARS INC	1423 Calle Joaquin ,San Luis Obispo
22379	ALFARO OIL & GAS, L.L.C.	21022 Gathering Oak, Suite 2101 ,San Antonio
22380	AL-FAROOQ CORPORATION	1235 SW 87th Avenue ,Miami
22381	ALFA-TRONICS, INC.	Po Box 250 ,Jobstown
22382	ALFE HEAT TREATING, INC.	10630 W. Perimeter Road, Suite 100 ,Fort Wayne
22383	ALFERO CO., INC.	47-49 S. 12Th Street ,Easton
22384	ALFF CHIROPRACTIC, INC	1590 E Main Street ,Ventura
22385	ALFI INTERNATIONAL INC	3331 Grande Vista Dr ,Newbury Park
22388	ALFIES RESTAURANT	1666 Ocean Shore Blvd ,Ormond Beach
22389	ALFIN, FAGIN, FALCE & RUGGIERO, LLP	231 Farmington Avenue ,Farmington
22390	ALFING CORPORATION	44160 Plymouth Oaks Blvd. ,Plymouth
22391	ALFINITI, INC.	Po Box 177 ,Winton
22392	ALFMEIER CORPORATION	120 Ellcon Drive ,Greenville
22393	ALFMEIER, FRIEDRICHS & RATH LLC	120 Elcon Dr ,Greenville
22395	ALFOND YOUTH CENTER/WATERVILLE BOYS & GIRLS CLUB & YMCA	126 North Street ,Waterville
22396	ALFONS HAAR INC	150 Advanced Dr ,Springboro
22397	ALFONSI RAILROAD CONSTRUCTION CO.	23501 Pennsylvania Road ,Brownstown Township
22398	ALFONSO & ASSOC., CONSULTING. INC. .	13412 Arctic Avenue ,Rockville
22401	ALFONSO ENTERPRISES, LLC DBA SIGN LITE	1490 I-10 Service Road ,Slidell
22410	ALFONSO S FAMILY TRATTORIA	99 W Main St # 101 ,Somerville
22414	ALFORD BOLIN, L.L.C.	224 Dauphin Street ,Mobile
22418	ALFORD ENT & FACIAL PLASTIC	6560 Fannin ,Houston
22419	ALFORD HOMES LP	17480 Dallas Pkwy Ste 217 ,Dallas
22423	ALFORD SERVICES, INC.	209 Clendenning Rd ,Houma
22425	ALFORD, STAPLES, LAPEYRE & ROBICHAUX, LLC	701 Barrow St ,Houma
22426	ALFRED & VASQUEZ ASSOCIATES IN	10375 Richmond Ave Ste 1510 ,Houston
22434	ALFRED A. YEE	1217 Palolo Avenue ,Honolulu
22435	ALFRED ANGELO, INC.	1301 Virginia Drive ,Fort Washington
22439	ALFRED B. MACLAY, JR., DAY SCHOOL	3737 N. Meridian Rd ,Tallahassee
22441	ALFRED BENESCH & COMPANY	205 North Michigan Avenue ,Chicago
22445	ALFRED C. GRIFFIN, JR., D.D.S., LTD.	179 Broadview Avenue ,Warrenton
22447	ALFRED C. TOEPFER INTERNATIONAL INC	701 Fourth Ave South ,Minneapolis
22451	ALFRED D PANETTA	510 South Mathilda Ave.,Ste 6 ,Sunnyvale
22454	ALFRED D. STAVROS	433 N. Milwaukee Ave. ,Wheeling
22456	ALFRED DELA CRUZ	18080 San Ramon Valley Blvd ,San Ramon
22465	ALFRED F. DESCENZA & SON, INC.	387 Washington Street ,Boston
22472	ALFRED H. GRIMES, A PROFESSIONAL CORPORATION PINNACLE PAIN MEDICINE	550 W. Washington, Suite 2 ,Carson City
22475	ALFRED HERNANDEZ, M.D.	1849 S. Osprey Avenue ,Sarasota
22476	ALFRED HUTT, M.D.	106 Woodbridge Street ,South Hadley
22489	ALFRED J. POGGI, DO LTD	277 Neilan Road ,Somerset
22497	ALFRED L ALSON MD	Po Box 352018 ,Palm Coast
22500	ALFRED L. KRAFT, D.M.D.	25 New Chardon Street ,Boston
22503	ALFRED L. SCHILLER HARDWARE INC.	11525 Blankenbaker Access Dr ,Louisville
22507	ALFRED M SHIVER PA	260 East Court St ,Marion
22509	ALFRED MARQUEZ	5939 Gateway West Blvd ,El Paso
22510	ALFRED MASKERONI DDS	9396 Baltimore National Pike ,Ellicott City
22512	ALFRED MILLER CONTRACTING CO.	1177 L. Miller ,Lake Charles
22514	ALFRED NICKLES BAKERY, INC.	26 N. Main Street ,Navarre
22516	ALFRED P. JOSEPHSEN, DMD	31 Harrison Avenue ,West Caldwell
22517	ALFRED P. SLOAN FOUNDATION	630 Fifth Avenue, Suite 2550 ,New York
22519	ALFRED PUBLISHING CO., INC.	16320 Roscoe Blvd., Suite 100 ,Van Nuys
22520	ALFRED RANDALL MOSS, M.D., P.A.	101 Professional Park ,Gaffney
22521	ALFRED S. BASSIN, DMD, FAGD, PC	2 Stowe Road, Suite 8 ,Peekskill
22522	ALFRED S. DING, D.D.S.	242 Biarritz Court ,Redwood City
22526	ALFRED SHTAINER, MD PC	24 East 12Th Street Rm 2-1 ,New York
22529	ALFRED STREET BAPTIST CHURCH	301 S Alfred Street ,Alexandria
22530	ALFRED T. LONGO, D.D.S., P.C.	121 W. Mission Avenue ,Bellevue
22531	ALFRED TECHNOLOGY RESOURCES INC	109 Canada Rd ,Painted Post
22533	ALFRED UNIVERSITY	1 Saxon Drive ,Alfred
22534	ALFRED V. ALTOPIEDI, ESQUIRE	902 Old Marple Road ,Springfield
22536	ALFRED W. HOLLIS, DDS, PLLC	157 Lake Avenue ,Saratoga Springs
22537	ALFRED W. SLOAN, M.D., APC	1275 North Rose Drive, Suite 122 ,Placentia
22549	ALFREDO LDC	620 Armonk Road ,Mt Kisco
22559	ALFREDOS RESTAURANT INC	22 Pleasant View Rd ,New Milford
22562	ALFREDSON BROTHERS CONSTRUCTION COMPANY	Po Box 425 ,Menominee
22566	ALFSON ENERGY LAND SERVICES, INC.	7600 E. Orchard Road ,Englewood
22567	ALFW LLC	124 Commons Court ,Chadds Ford
22568	ALG GLOBAL LOGISTICS, INC.	4660 La Jolla Village Dr Ste 500 ,San Diego
22571	ALG PARTNERS INC	24 Prime Park Way Ste 102 ,Natick
22572	ALG TRUCK AND TRAILER REPAIR LP	4101 Fulton Street ,Houston
22574	ALGAE ENERGY, INC.	2460 Industrial Park Blvd ,Cumming
22575	AL-GAR FEDERAL CREDIT UNION	316 Paca St ,Cumberland
22576	ALGAR INC DBA GRADE A AUTO PARTS	7301 Grade Lane ,Louisville
22577	ALGART HEALTH CARE, INC.	8902 Detroit Avenue ,Cleveland
22578	ALGAS- SDI INTERNATIONAL LLC	151 S. Michigan Street ,Seattle
22581	ALGENTIS, LLC	201 N. Civic Drive, Suite 100 ,Walnut Creek
22582	ALGER MANUFACTURING LLC	724 South Bon View Avenue ,Ontario
22586	ALGERT COLDIRON INVESTORS LLC	555 California Street, Suite 3325 ,San Francisco
22587	ALGETA US, LLC	210 Broadway ,Cambridge
22590	ALGIN MANAGEMENT CO., LLC	183 Madison Avenue ,New York
22595	ALGODON WINES & LUXURY DEVELOPMENT GROUP, INC.	135 Fifth Avenue, 10th Floor ,New York
22596	ALGOLOGY ASSOCIATES, P.C.	P.O. Box 374 ,Little Falls
22597	ALGOMA HARDWOODS INC	1001 Perry Street ,Algoma
22598	ALGOMA LUMBER COMPANY, INC.	1400 Perry St ,Algoma
22599	ALGOMA MOTORS, INC.	1020 Jefferson Street ,Algoma
22600	ALGOMA SHIPPING INC.	152 Conant Street ,Beverly
22601	ALGON CORPORATION	12000 SW 132 Court ,Miami
22603	ALGONQUIN ADVISORS LLC	2 Greenwich Office Park ,Greenwich
22604	ALGONQUIN ARTS THEATRE	173 Main Street ,Manasquan
22605	ALGONQUIN CLUB OF BOSTON	217 Commonwealth Avenue ,Boston
22606	ALGONQUIN GOLF CLUB	340 N Berry Rd ,Glendale
22609	ALGONQUIN POWER FUND AMERICA, INC.	26 Canal Bank Road ,Windsor Locks
22612	ALGONQUIN STATE BANK, N.A.	2400 Huntington Drive N. ,Algonquin
22613	ALGOOD FOOD COMPANY	7401 Trade Port Drive ,Louisville
22617	ALGOSEC INC	Po Box 609 ,S Yarmouth
22618	ALGREN ASSOCIATES, INC.	212 West 35th Street - 5th Floor ,New York
22622	ALHAMBRA BUILDING COMPANY, INC.	2077 Elmwood Avenue ,Warwick
22623	ALHAMBRA CHAMBER OF COMMERCE	104 S 1st St ,Alhambra
22624	ALHAMBRA CHRYSLER JEEP DODGE, INC.	1100 W. Main Street ,Alhambra
22626	ALHAMBRA CONVALESCENT HOME, INC.	1020 Huntington Drive ,San Marino
22627	ALHAMBRA CREDIT UNION	7339 N 35th Ave ,Phoenix
22628	ALHAMBRA DENTAL PLAZA	1675 Alhambra Blvd., Suite F ,Sacramento
22630	ALHAMBRA FOUNDRY CO., LTD	1147 Meridian Avenue ,Alhambra
22631	ALHAMBRA GRANTFORK TELEPHONE CO.	Po Box 207 ,Alhambra
22632	ALHAMBRA HOSPITAL MEDICAL CENTER LP	100 S Raymond Ave ,Alhambra
22633	ALHAMBRA INVESTMENT PARTNERS L	9520 Haitian Dr ,Cutler Bay
22636	ALHAMBRA REPROGRAPHICS, INC.	3939 East Guasti Rd., Unit B ,Ontario
22637	AL-HAMRA ACADEMY	435 South Street ,Shrewsbury
22638	ALHOLM, MONAHAN, KLAUKE, HAY & OLDENBURG, LLC	221 North Lasalle Street, Suite 450 ,Chicago
22640	AL-HUDA INC.	P.O. Box 596 ,College Park
22644	ALI ACTUARIAL & RETIREMENT PLAN SERVICES	23 Kaly Lane ,Fletcher
22647	ALI ALIJANIAN, D.D.S., P.C.	1150 Civic Drive, Suite 101 ,Walnut Creek
22656	ALI GHAZANFARI MD PLLC	6116 E Arbor Ave ,Mesa
22658	ALI HAERI, D.M.D., M.H.S., A PROFESSIONAL	1297 W Main St Ste A ,El Cajon
22661	ALI INDUSTRIES, INC.	747 E Xenia Dr ,Fairborn
22663	ALI INTERNATIONAL	578 Washington Blvd ,Marina Del Rey
22664	ALI IRANMANESH, D.M.D., M.D., INC.	2222 East Street, Suite 355 ,Concord
22671	ALI MOSHARRAFA, M.D., P.C.	4611 E. Shea Blvd. #230 ,Phoenix
22672	ALI NORTH AMERICA, INC.	3765 Champion Blvd ,Winston City
22675	ALI SADRI DDS & BABAK	195 Blue Ravine Road ,Folsom
22678	ALI SARKARZADEH DDS PC	1750 Rockville Pike ,Rockville
22685	ALI, PAPPAS & COX, PC	614 James Street ,Syracuse
22686	ALIA DUMEZ DUNN & MCTERNAN, SC	6633 Green Bay Rd ,Kenosha
22688	ALIANA DEVELOPMENT COMPANY	11200 Richmond Ave Ste 280 ,Houston
22689	ALIANCE ENTERTAINMENT, INC.	825 Northgate Blvd ,New Albany
22690	ALIANCE REAL ESTATE GROUP, INC.	Po Box 220 ,Jericho
22694	ALIANTE GAMING, LLC	7300 Aliante Parkway ,North Las Vegas
22696	ALIANZA FAMILY SERVICES LLC	Po Box 44774 ,Rio Rancho
22698	ALIASWIRE, INC.	400 Talcott Avenue ,Watertown
22699	ALIBABA. COM, INC	3945 Freedom Circle ,Santa Clara
22700	ALIBHAI & BEPPU, P.L.L.C.	14595 Bel-Red Road, Suite 103 ,Bellevue
22701	ALIBRE, INC.	2350 Campbell Creek Blvd., Ste. 100 ,Richardson
22703	ALICANTO INC	2102 Old Page Mill Road ,Palo Alto
22710	ALICE CARMICHAEL RICHEY PLLC	1118 Scotland Avenue ,Charlotte
22713	ALICE DESMOND AND HAMILTON FISH LIBRARY	Po Box 265 ,Garrison
22716	ALICE FREEMAN	1214 Vfw Parkway ,West Roxbury
22717	ALICE G ALATORRE DDS INC	82013 Dr Carreon Blvd Ste D ,Indio
22718	ALICE G. GOSFIELD AND ASSOCIATES, P.C.	2309 Delancey Place ,Philadelphia
22719	ALICE H. MOORE, DDS AND LORNA PETERSEN, DMD	1316 North 5th Street ,Perkasie
22720	ALICE H. TAI, D.D.S.	525 Bollinger Canyon Way ,San Ramon
22721	ALICE HECHT	1026 Massachusetts Ave ,Arlington
22722	ALICE HYDE MEDICAL CENTER	133 Park Street ,Malone
22723	ALICE INK, INC.	350 SE 1st Street ,Delray Beach
22730	ALICE LANE	2 Blackstone Lane ,Malvern
22732	ALICE LAU DMD	9017 Shady Grove Court ,Gaithersburg
22734	ALICE LLOYD COLLEGE	100 Purpose Road ,Pippa Passes
22735	ALICE MANUFACTURING COMPANY, INC.	Post Office Box 369 ,Easley
22737	ALICE PAUL HOUSE	P.O. Box 417 ,Indiana
22738	ALICE PECK DAY HEALTH SYSTEMS CORP.	10 Alice Peck Day Dr. ,Lebanon
22739	ALICE PETERSON COMPANY, INC.	118 Center Street ,El Segundo
22741	ALICE R.F. SHEN, D.D.S., M.S.	1235 W. Huntington Drive ,Arcadia
22742	ALICE RICKEL LLC	3690 Orange Pl No.440 ,Beachwood
22743	ALICE S. BEHR, D.C.	409 East 14th Street, Suite E ,New York
22744	ALICE SONG MD CORPORATION	280 Glenn Summer Rd. ,Pasadena
22746	ALICE URBANKOVA DDS, PLLC	1 Holly Lane ,Old Field
22747	ALICE VESSEL DMD PLLC	685 Citadel Drive East Suite 313 ,Colorado Springs
22752	ALICIA G. MANENTI, O.D., INC.	8879 Brecksville Road ,Brecksville
22754	ALICIA INTERNATIONAL, INC.	7354 North Caldwell Ave ,Niles
22755	ALICIA J WILLETTE DDS, PC	2879 Route 5 ,East Thetford
22757	ALICIA PACIFIC VETERINARY CENT	30051 Alicia Pkwy ,Laguna Niguel
22759	ALICIA RUSSELL CARTER MD PC	212 E 69th Street ,New York
22761	ALICKS HOME MEDICAL EQUIPMENT, INC .	17187 State Road 23 ,South Bend
22764	ALICO, INC.	10070 Daniels Interstate Court ,Fort Myers
22765	ALICON GROUP, INC.	5405 Alton Parkway ,Irvine
22766	ALIDA PEARL CO-OP ASSOCIATION	301 East 3rd Street ,Chapman
22767	ALIEF & WEST HOUSTON CARDIOLOGY	12121 Richmond, Suite 214 ,Houston
22769	ALIEN SKIN SOFTWARE, LLC	1111 Haynes St. ,Raleigh
22770	ALIEN TECHNOLOGY CORPORATION	18220 Butterfield Blvd ,Morgan Hill
22772	ALIENOR, INC.	2520 Lincoln Blvd. ,Venice
22773	ALIENWARE CORPORATION	14591 SW 120 St. ,Miami
22775	ALIGN AEROSPACE LLC	21123 Nordhoff St. ,Chatsworth
22776	ALIGN CHIROPRACTIC CENTER	6239 College Ave Ste 201 ,Oakland
22777	ALIGN CLINIC, LLC	700 South Claremont Street ,San Mateo
22780	ALIGN CORPORATION	2168 Stephens Walk ,Dunwoody
22781	ALIGN CREDIT UNION	40 Market Street ,Lowell
22782	ALIGN ENTERTAINMENT GROUP	200 West 54 Street ,New York
22784	ALIGN NETWORK, INC.	6000 Town Center Boulevard ,Canonsburg
22788	ALIGN TECHNOLOGY, INC.	2560 Orchard Parkway ,San Jose
22789	ALIGN WEALTH MANAGEMENT	13921 Quail Pointe Dr. ,Oklahoma City
22790	ALIGN YOUR SPINE CHIROPRACTIC LIFE CENTER, INC.	4800 West Hillsboro Blvd. ,Coconut Creek
22791	ALIGN, ASSESS, ACHIEVE, LLC	400 West Wilson Bridge Rd, Ste 170 ,Worthington
22793	ALIGNED DEVELOPMENT STRATEGIES	1900 L Street NW Suite 600 ,Washington
22796	ALIGNLIFE SYSTEMS, LLC	4812 N. Sheridian Road ,Peoria
22797	ALIGNMARK, INC.	500 Winderley Place, Suite 224 ,Maitland
22798	ALIGNMENT DYNAMICS, INC.	3716 Southwood Drive ,Gastonia
22802	ALIGNMENT STRATEGIES, INC.	9812 Falls Road, Suite 114-252 ,Potomac
22803	ALIGNMENT SUPPLIES, INC.	1681 Lance Pointe Road ,Maumee
22804	AL-IHSAN ACADEMY	130-08 Rockaway Blvd ,South Ozone Park
22810	ALII RESORTS LLC	128 Kio Loop ,Kihei
22812	ALILIN FAMILY MEDICINE, LLC	7221 Aloma Ave., Suites 200-400B ,Winter Park
22813	ALIMAC PC SERVICES, INC.	1340 Blue Oaks Blvd., Suite 150 ,Roseville
22814	ALIMAK HEK INC.	12552 Old Galveston Rd, Suite A160 ,Webster
22816	ALIMAR FLOW TECHNOLOGIES	217 Depot Street ,Antioch
22821	ALIMEX PRECISION IN ALUMINUM, INC.	2554 Business Parkway ,Minden
22823	ALIN MACHINING CO, INC. DBA POWER PLANT SERVICES, INC.	3131 Soffel Avenue ,Melrose Park
22828	ALINA E LYONS D M D P A	806 Farnsworth Ave ,Bordentown
22833	ALINDA CAPITAL PARTNERS LLC	100 West Putnam Avenue - 3rd Floor ,Greenwich
22834	ALINE COMPONENTS, INC.	P.O. Box 263 ,Kulpsville
22835	A-LINE INC	19500 S Rancho Way ,Rancho Dominguez
22836	A-LINE STAFFING SOLUTIONS	7400 Triangle Dr., Suite B ,Sterling Heights
22837	ALINEAN, INC.	127 W Fairbanks Avenue ,Winter Park
22838	A-LINED HANDLING SYSTEMS, INC.	92 Burnside Ave ,East Hartford
22842	ALION SCIENCE AND TECHNOLOGY CORPORATION	1750 Tysons Blvd, Ste 1300 ,Mclean
22844	ALIOS BIOPHARMA, INC.	260 East Grand Avenue ,South San Francisco
22847	ALIPHCOM	99 Rhode Island St Fl 3 ,San Francisco
22849	ALIPRO USA, LLC	2310 W Altorfer Drive ,Peoria
22851	ALIQUIPPA TERMINALS, INC	100 Woodlawn Road ,Aliquippa
22852	ALIQUOT ASSOCIATES, INC.	1390 South Main Street, Suite 310 ,Walnut Creek
22854	ALIREZA KHANSARI, DDS, MSD, INC	13422 Pomerado Road ,Poway
22861	ALISA ANN RUCH BURN FOUNDATION	2501 W Burbank Blvd Ste 201 ,Burbank
22877	ALISO VIEJO ICE RINK INC.	9 Journey ,Aliso Viejo
22879	ALISON & ASSOCIATES, INC.	2743 Perimeter Parkway ,Augusta
22881	ALISON C. STAPAKIS, DDS, INC.	3742 Katella Avenue, Ste 301 ,Los Alamitos
22883	ALISON CONTROL, INC.	35 Daniel Rd West ,Fairfield
22884	ALISON J. MCMILLIAN, D.D.S., M.S., P.A.	1126 North Church Street Suite 100 ,Greensboro
22885	ALISON K. JACKSON, DDS, APC	7545 Soquel Drive ,Aptos
22891	ALISON T. FREEMAN, D.M.D., P.C.	7 Gorwin Drive ,Hanson
22892	ALISON W. LOCKHART, DMD, PA	5107 Trenholm Rd ,Columbia
22894	ALISPED USA INC.	248-29 Brookville Blvd. ,Rosdale
22895	ALISSA NEIL PR	95 Morton St., 4th Floor ,New York
22896	A-LIST SERVICES LLC	363 Seventh Ave ,New York
22898	ALISTO ENGINEERING GROUP, INC	2737 N. Main St. ,Walnut Creek
22899	ALITECH CONSULTING, LP	19627 1-45 North Suite 700 ,Spring
22902	ALIVE CREDIT UNION	9790 Touchton Rd ,Jacksonville
22903	ALIVE ENTERTAINMENT, LLC	Neuman Associates ,Encino
22904	ALIVE HOSPICE INC.	1718 Patterson St ,Nashville
22905	ALIVE MEDIA GROUP LLC	2200 Gravois Ave Ste 201 ,Saint Louis
22907	ALIVEPROMO, INC	13098 George Weber Drive ,Rogers
22908	ALIVIANE INC	7722 North Loop ,El Paso
22911	ALIXPARTNERS, LLP	2000 Town Center ,Southfield
22914	ALIZA CORPORATION	7111 Garden Grove Blvd ,Garden Grove
22915	ALIZADEH ORTHODONTICS, DDS, PC	2997 Clarkson Road ,Chesterfield
22917	ALIZEE PATHOLOGY	20 Frederick Road ,Thurmont
22918	ALJ ELECTRONICS, INC.	1306 E Imperal Avenue ,El Segundo
22925	ALJERS, LLC	8 W. Connecticut Concourse ,Jackson
22926	ALJETS AUTOMOTIVE, INC.	4617 Seiler Road ,Dorsey
22927	ALJEX SOFTWARE, INC.	463 Union Avenue ,Middlesex
22929	ALJO ENTERPRISES INC.	6251 South Tucson Blvd. ,Tucson
22930	ALJO -GEFA PRECISION MANUFACTURI	205 Sweet Hollow Road ,Old Bethpage
22931	ALJOMA LUMBER, INC.	10300 NW 121 Way ,Medley
22932	AL-JON MANUFACTURING LLC	14599 2nd Avenue ,Ottumwa
22933	AL-JON MANUFACTURING, LLC	14599 2nd Ave ,Ottumwa
22934	ALJON TOOL, INC.	15700 28th Ave N ,Plymouth
22936	ALK	1700 Royston Lane ,Round Rock
22938	ALK SENIOR SERVICES, INC.	952 Route 34 ,Matawan
22939	ALK TECHNOLOGIES, INC.	457 North Harrison Street ,Princeton
22943	ALKAB CONTRACT MANUFACTURING, INC.	843 Industrial Blvd. ,New Kensington
22944	ALKALI MARKETING, INC	1404 Alta Vista Avenue ,Austin
22945	ALKALI, LLC	2301 Ohio Drive ,Plano
22949	ALKAR PERSONNEL SERVICES	3273 Claremont Way ,Napa
22950	ALKAR, INC	310 Natural Resources Drive ,Little Rock
22954	ALKEN INDUSTRIES, INC.	2175 Fifth Avenue ,Ronkonkoma
22958	ALKEON CAPITAL MANAGEMENT, LLC	350 Madison Avenue, 9th Floor ,New York
22960	ALKERMES INC.	852 Winter Street ,Waltham
22964	ALKI AUTO BODY INC	5958 Corson Avenue South ,Seattle
22965	ALKIM LLC	132 Dune Road ,Westhampton Beach
22966	ALKL INC.	805 Gumnut Grove ,New Braunfels
22968	ALKO DISTRIBUTORS, INC.	8801 Kelso Drive ,Baltimore
22969	AL-KO KOBER INDUSTRIES, INC.	21608 Protecta Drive ,Elkhart
22970	AL-KO KOBER LLC	21608 Protecta Drive ,Elkhart
22973	ALKON CORPORATION	728 Graham Dr ,Fremont
22975	ALKOTA CLEANING SYSTEMS, INC.	P.O. Box 288 ,Alcester
22976	ALKOTA PLUMBING & HEATING INC	Po Box 222412 ,Anchorage
22978	ALKU, LLC	200 Brickstone Square, Suite 503 ,Andover
22979	ALL - BRITE GRAPHICS, LLC	6320 NW Hwy 10 ,Anoka
22981	ALL - TECH USA	423 Starwood Trail ,Durango
22982	ALL 1 TEAM, INC.	160 E Via Verde Suite 210 ,San Dimas
22986	ALL 5 INC	1073 Milwaukee Ave ,Burlington
22987	ALL ABOARD AMERICA	230 S. Country Club Dr. ,Mesa
22988	ALL ABOARD INC	255 N Highland Ave ,Ossining
22992	ALL ABOUT CHILDREN	931 Glenrock Road ,Norfolk
22994	ALL ABOUT DANCE, LLC	501 West North Avenue ,Chicago
22996	ALL ABOUT KIDS HOME HEALTH	2102 W Teege Ave ,Harlingen
22998	ALL ABOUT KIDS PEDIATRIC DENTI	3285 Hacks Cross Road ,Memphis
22999	ALL ABOUT KIDS PEDIATRICS	1250 North Mill St., Ste. 100 ,Naperville
23000	ALL ABOUT KIDS PEDIATRICS, P.C.	7517 South Mcclintock Drive ,Tempe
23001	ALL ABOUT LEARNING, INC.	1060 Oconomowoc Pkwy ,Oconomowoc
23002	ALL ABOUT MCCARTHY ENTERPRISES, INC.	211 Phillips Mill Lane ,Newark
23005	ALL ABOUT PEOPLE, INC.	2141 E. Camelback Road, Suite 105 ,Phoenix
23006	ALL ABOUT PETCARE, INC.	3410 Tytus Avenue ,Middletown
23007	ALL ABOUT PLUMBING, INC.	727 W. Lincoln ,Madison Heights
23010	ALL ABOUT SIGNS, INC.	9108 Warren H. Abernathy Hwy ,Spartanburg
23011	ALL ABOUT SMILES DENTAL CENTER, LLC	2332 Centerville Rd. ,Tallahassee
23013	ALL ABOUT SMILES, INC	1611 County Hwy 10 ,Spring Lake Park
23014	ALL ABOUT SMILES, LLC	32 Main St ,Windsor Locks
23016	ALL ABOUT SMILES, P.A.	4543 Stoney Batter Road ,Wilmington
23017	ALL ABOUT TRAINING	8013 Runnymeade Drive ,Frederick
23018	ALL ABOUT TRAVEL, INC.	12168 SW Garden Pl ,Tigard
23020	ALL ABOUT WOMEN HEALTH ASSOCIATES, INC.	651 Colliers Way ,Weirton
23021	ALL ABOUT WOMEN OB GYN CHTD	70 Doctors Drive ,Panama City
23022	ALL ABOUT WOMEN OF CHRISTIANA CARE, INC.	4735 Ogletown Stanton Road Ste 2300 ,Newark
23024	ALL ABOUT WOMEN, P.A.	4735 Ogletown Stanton Road ,Newark
23026	ALL ABOUT YOU DENTAL CARE, P.C.	2631 Williamsburg Ave. ,Geneva
23027	ALL ABOUT YOU HOME CARE SERVICES, LLC	21 Church Street, 2nd Floor ,Naugatuck
23028	ALL ABOUT YOU HOME CARE, INC.	1606 S. Golfview Drive ,Plant City
23029	ALL ABOUT YOU SALON AND DAYSPA	119B Green St ,Foxboro
23031	ALL ACCESS COACH LEASING LLC	364 North Water Ave ,Gallatin
23032	ALL ACCESS MUSIC GROUP	11601 Wilshire Blvd Ste 2150 ,Los Angeles
23033	ALL ACCESS RENTALS INC	3364 Helix St ,Spring Valley
23034	ALL ACCESS RIGGING CO.	P.O. Box 456 ,Clinton
23035	ALL ACCESS STAGING & PRODUCTIONS, INC.	1320 Storm Parkway ,Torrance
23036	ALL ACCESS TICKETS	9454 Wilshire Blvd., Ste M11 ,Beverly Hills
23037	ALL ACES PROMOTIONAL STAFFING	318 E 78th Street ,New York
23038	ALL ACTION ARCHITECTURAL METAL & GLASS, INC	146 G. Sylvania Place ,South Plainfield
23039	ALL AGES PEDIATRICS, P.C.	1207 North Jefferson, Suite 1 ,Ottumwa
23040	ALL AGES VISION CARE, OD, PA	6917 Shannon Willow Rd. ,Charlotte
23041	ALL AIR INCORPORATED	175 Clearbrook Road ,Elmsford
23042	ALL AIR MECHANICAL CONTRACTORS, INC	535 Railroad Avenue ,S. San Francisco
23044	ALL ALLERGY & ASTHMA CARE	1 Marshall Avenue ,Cherry Hill
23045	ALL ALLERGY ASTHMA & IMMUNOLOGY CLI	10216 Garland Road ,Dallas
23047	ALL AMERICA BANK	P. O. Box 300 ,Mustang
23048	ALL AMERICAN ASPHALT	400 East Sixth Street ,Corona
23051	ALL AMERICAN AUTOMATIC FIRE PROTECTION, INC.	459 Tompkins Place ,Orange
23052	ALL AMERICAN AVIATION LLC	9103 Boudreaux Road ,Tomball
23053	ALL AMERICAN BINGO, INC.	12957 Gravois Rd ,Sunset Hills
23055	ALL AMERICAN CANOPIES, INC	Po Box 7758 ,Salem
23057	ALL AMERICAN CHEMICAL CO., INC.	10700 West Higgins Road, # 300 ,Rosemont
23063	ALL AMERICAN CONTAINERS	9330 NW 110th Avenue ,Miami
23066	ALL AMERICAN CUSTOM POOLS & SPAS INC.	225 Main Street ,Norwalk
23067	ALL AMERICAN DAIRY PRODUCTS, INC.	100 Deerfield Lane - Suite 250 ,Malvern
23068	ALL AMERICAN DME	1215 West 15th Street, Suite 350 ,Plano
23070	ALL AMERICAN ELECTRIC	6585 S Riviera Way ,Aurora
23071	ALL AMERICAN ELECTRIC, INC	793 S Tracy Blvd #326 ,Tracy
23072	ALL AMERICAN ELECTRICAL CORP.	308 Lefferts Avenue ,Brooklyn
23073	ALL AMERICAN ENGINEERING AND MANUFACTURING INC	4099 White Bear Pkwy ,Saint Paul
23074	ALL AMERICAN FENCE CORPORATION	P.O. Box 3057 ,Danville
23075	ALL AMERICAN FIRE, INC.	5536 NW 161 Street ,Miami Gardens
23076	ALL AMERICAN FIRST AID & SAFETY	4653 Carmel Mountain Road ,San Diego
23078	ALL AMERICAN FOODS I	1718 N Wells St ,Fort Wayne
23079	ALL AMERICAN FOODS INC	121 Mohr Dr ,Mankato
23080	ALL AMERICAN FOODS, INC.	One All American Way ,North Kingstown
23082	ALL AMERICAN FUN PARK	2608 N. Slappey Boulevard ,Albany
23085	ALL AMERICAN GLASS DISTRIBUTORS INC.	404 Riverside Drive ,Fort Worth
23086	ALL AMERICAN GLASS, INC.	3000-19 NW 25th Avenue ,Pompano Beach
23087	ALL AMERICAN GRATING, INC.	3001 Grand Avenue ,Pittsburgh
23088	ALL AMERICAN GROUP	Po Box 3300 2831 Dexter Drive ,Elkhart
23089	ALL AMERICAN HEALTHCARE LLC	Po Box 1602 ,Mandeville
23090	ALL AMERICAN HEATING & COOLING, INC.	6333 North Oak Trafficway ,Gladstone
23091	ALL AMERICAN HEATING , AIR CONDITIONING & PLUMBI	770 Bound Line Road ,Wolcott
23092	ALL AMERICAN HEATING INC	1535 Decatur St Ste A ,Ridgewood
23094	ALL AMERICAN HOME CENTER, INC.	149 S. Barrington Avenue #114 ,Los Angeles
23097	ALL AMERICAN HOMES LLC	4900 Ritter Road Suite 130 ,Mechanicsburg
23098	ALL AMERICAN HOSE, LLC	217 Titusville Rd ,Union City
23100	ALL AMERICAN INVESTMENT GROUP, LLC	730 17th St ,Denver
23101	ALL AMERICAN LABEL	6958 Sierra Court ,Dublin
23102	ALL AMERICAN LABEL, INC.	3696 Knight Rd. #200 ,Memphis
23103	ALL AMERICAN LAND TITLE INSURANCE AGENCY LTD	2226 E. Silver Springs Blvd ,Ocala
23105	ALL AMERICAN LEASING CORP	237 Route 130 ,Bordentown
23107	ALL AMERICAN LOGISTICS, L.L.C.	6900 Denton Hwy, Suite 107 ,Fort Worth
23108	ALL AMERICAN LOGISTICS, LLC	115 Val Dervin Parkway ,Stockton
23109	ALL AMERICAN MARINE INC.	200 Harris Avenue ,Bellingham
23112	ALL AMERICAN MORTGAGE, INC.	3595 Scottsdale Circle ,Naperville
23113	ALL AMERICAN MOVING GROUP, LLC	P.O. Box 271277 ,Memphis
23114	ALL AMERICAN MOVING SERVICES OF NM, INC	13800 E.Moncrieff Place ,Aurora
23117	ALL AMERICAN OILFIELD ASSOCIATES, LLC	14896 Kenai Spur Hwy, Suite 203 ,Kenai
23118	ALL AMERICAN ORTHOPEDIC & SPORT MEDICINE INSTITUTE	1100 Hercules Suite 100 ,Houston
23119	ALL AMERICAN PAINTING COMPANY	9400 Irvington ,St. Louis
23123	ALL AMERICAN POLY	40 Turner Place ,Piscataway
23124	ALL AMERICAN PRINTING SERVICES	1324 Rand Street ,Petaluma
23126	ALL AMERICAN PRODUCTS CO.	1135 Aviation Place ,San Fernando
23127	ALL AMERICAN QUALITY FOODS, INC.	125 Eagles Landing Parkway ,Stockbridge
23130	ALL AMERICAN RELOCATION, INC.	P. O. Box 14906 ,Raleigh
23131	ALL AMERICAN RIGGING COMPANY, INC.	80 Southbelt Industrial Drive ,Houston
23132	ALL AMERICAN ROOFING	150 Oakwood Road ,Lake Zurich
23136	ALL AMERICAN SCAFFOLD, LLC	51 Washington Ave ,Des Moines
23138	ALL AMERICAN SHIPPING SUPPLIES, INC	3140 S Arlington Avenue ,Indianapolis
23141	ALL AMERICAN SUPPLY INC	10701 W Kellogg ,Wichita
23142	ALL AMERICAN SYSTEMS, INC.	800 West 5th Avenue ,Naperville
23144	ALL AMERICAN TRAILERS INC	1374 Sixth Street ,Norco
23145	ALL AMERICAN TRANSFER	2112 North University ,Lafayette
23146	ALL AMERICAN TREE SERVICE	2076 Schoharie Turnpike Rd. ,Duanesburg
23149	ALL AMERICAN VAN AND STORAGE INC	600 E Cheyenne Ave ,North Las Vegas
23150	ALL AMERICAN WELDING & CONSTRUCTION, INC.	10161 Saltair Drive ,Cypress
23151	ALL AMERICAN WOOD REGISTER CO.	7103 Sands Road ,Crystal Lake
23153	ALL ANIMAL CLINIC P A	5450 Macdonald Ave Ste 13 ,Key West
23154	ALL AREA ABSTRACT LLC	122 E 42nd St Rm 2700 ,New York
23155	ALL AREA PLUMBING, INC.	1560 W. Industrial Park Street ,Covina
23157	ALL AREA SERVICES, INC.	5742 Venice Blvd. ,Los Angeles
23158	ALL AROUND TECHNOLOGY, INC.	8565 Atlas Drive ,Gaithersburg
23159	ALL ASPECT INSPECTIONS INC	793 S. Tracy Blvd. #299 ,Tracy
23160	ALL ASPECTS GENERAL CONTRACTING	43204 W Oakland Ct. ,Maricopa
23161	ALL AT HOME HEALTHCARE	9770 Old Baymeadows Road Suite 133 ,Jacksonville
23163	ALL BALLS RACING INC.	822 N Reading Ave ,New Berlinville
23165	ALL BATTERY SALES AND SERVICE, INC.	727 134th Street Sw ,Everett
23168	ALL BLINDS, INC.	439 E 710 North ,Lindon
23169	ALL BOLT ELECTRIC	18611 NE 23rd Street ,Harrah
23172	ALL BRAND APPLIANCE PARTS	949 East Main St. ,Norristown
23173	ALL BRANDS	8079 West Broad St. ,Richmond
23174	ALL BRIGHT ELECTRIC	100 Snake Hill Road ,West Nyack
23176	ALL BROWARD HOME HEALTH SERVICES, INC.	7900 Nova Drive ,Davie
23177	ALL BUILDING CORPORATION	Po Box 763 ,Fergus Falls
23178	ALL BUSINESS MACHINES, INC.	2555 Third Street, Suite 100 ,Sacramento
23181	ALL CAR SHOP, INC	1755 S. John Young Parkway ,Kissimmee
23182	ALL CARE DENTAL	19019 Hawthorne Blvd, Suite 100B ,Torrance
23184	ALL CARE DENTAL, LLC	11100 Ash St Ste 204 ,Leawood
23187	ALL CARE HEALTH & WELLNESS CENTER, INC.	2875 NE 191 Street #303 ,Aventura
23189	ALL CARE HOME HEALTH PROVIDER	100 W. Broadway, Suite 830 ,Glendale
23190	ALL CARE HOME HEALTH, INC.	2575 Montessouri Street, Suite 100 ,Las Vegas
23192	ALL CARE PHYSICAL THERAPY SERVICES, PC	3101 Main St ,Buffalo
23193	ALL CARE VISITING NURSE ASSOCIATION	210 Market Street ,Lynn
23194	ALL CARTAGE TRANSPORTATION INC	12621 Chadron Ave ,Hawthorne
23195	ALL CATS VETERINARY HOSPITAL INC	3250 Nashville Road ,Bowling Green
23197	ALL CHANNEL ELECTRONICS INC.	6621 Seybold Rd ,Madison
23201	ALL CHICAGOLAND MOVING & STORAGE CO.	730 North York Road ,Elmhurst
23203	ALL CHILDRENS HEALTH SYSTEM, INC.	Attn Finance, 9010 ,St. Petersburg
23205	ALL CITIES ESCROW, INC.	400 S. Sepulveda Blvd., 100 ,Manhattan Beach
23207	ALL CITY COMMUNICATION CO., INC.	4055 North 128th Street ,Brookfield
23209	ALL CITY EMPLOYEES BENEFITS SERVICE ASSOCIATION	201 N Los Angeles St ,Los Angeles
23212	ALL CITY REFRIGERATION COMPANY	32425 West Eight Mile Road ,Livonia
23215	ALL CITY TESTING AND BALANCING	2876 Milburn Ave ,Baldwin
23217	ALL CLASSICAL PUBLIC MEDIA INC.	515 NE 15th Avenue ,Portland
23220	ALL CLIMATE, INC.	17527 NE 67th Court ,Redmond
23222	ALL COAST THERAPY SERVICES INC	13940 N Us Hwy 441 ,Lady Lake
23223	ALL COAST, LLC	151 Southpark Road ,Lafayette
23226	ALL COLOR EMBROIDERY, SERVICES EMPLOYEE FUND AND TRUST	One Northfield Plaza Suite 300 ,Northfield
23228	ALL COMFORT HEATING & AIR CONDITIO	3969 Jeffries Circle Ne ,Louisville
23229	ALL COMFORT INSULATION, INC.	516 Winthrop Avenue ,Addison
23230	ALL COMFORT SERVICES, INC.	5245 Voges Rd ,Madison
23233	ALL CONCIERGE INC	19727 Oakbrook Cir ,Boca Raton
23235	ALL COUNTIES COURIER, INC.	14811 Myford Road ,Tustin
23236	ALL COUNTY ABSTRACT, INC.	87 Covert Avenue ,Floral Park
23237	ALL COUNTY AND ASSOCIATES INC.	1841 Pottstown Pike ,Saint Peters
23239	ALL COUNTY BUS, LLC	70 Fernbrook Street ,Yonkers
23242	ALL COUNTY ENTERPRISES	560 Cross St ,Lakewood
23243	ALL COUNTY EXTERIORS	560 Cross St ,Lakewood
23244	ALL COUNTY FIRE, INC.	3163 Adams Avenue ,San Diego
23252	ALL COUNTY SEWER & DRAIN SERVICE, INC.	10 Bonnel Street ,Chatham
23253	ALL COVERED, INC.	1051 E. Hillsdale Blvd., Suite 510 ,Foster City
23254	ALL CRAFT MANUFACTURING, INC.	6500 Glenway Avenue ,Cincinnati
23255	ALL CREATURES ANIMAL CLINIC, INC.	1015 W Pipkin Rd ,Lakeland
23256	ALL CREATURES ANIMAL HOSPITAL, LLC	220 N. Lewis Street ,New Iberia
23260	ALL CREATURES INC	12545 Sheets Road ,Rittman
23263	ALL CREATURES VETERINARY CLINIC	6575 N. Sante Fe ,Fresno
23264	ALL CREATURES VETERINARY CLINIC PC	1567 Mcminnville Hwy ,Manchester
23265	ALL CREATURES VETERINARY CLINIC PLC	431 Guerusey Lan ,Red Wing
23266	ALL CREATURES VETERINARY HOSPITAL	20 Commercial Street ,Salem
23268	ALL CREATURES VETERINARY SERVICES,	733 West Park Avenue ,Long Beach
23269	ALL CREDIT CONSIDERED MORTGAGE, INC	932 Hungerford Drive #6B ,Rockville
23270	ALL CRUISE TRAVEL, INC.	1723 Hamilton Ave ,San Jose
23271	ALL CURRENT ELECTRICAL SALES	2500 Mcclellan Avenue, Suite 140 ,Pennsauken
23273	ALL DATA SOLUTIONS	3075 Par Drive ,Vero Beach
23274	ALL DENTAL	90 Orne St At Route 1 ,North Attleboro
23276	ALL DENVER, INC.	1050 S. Monaco Pkwy Unit 122 ,Denver
23277	ALL DIMENSIONS MANUFACTURING,	665 Hayward Ave. N. ,Oakdale
23279	ALL DIRECT TRAVEL SERVICES, INC.	19000 Macarthur Blvd, Suite 625 ,Irvine
23280	ALL DISTRIBUTIONS CORP.	4005 NW 114th Avenue ,Doral
23281	ALL EAR DOCTORS	17732 Beach Blvd Suite C ,Huntington Beach
23282	ALL ELECTRIC COMPANY INC.	1680 Airport Road ,Breckenridge
23284	ALL ELECTRONICS CORPORATION	14928 Oxnard St ,Van Nuys
23285	ALL ELEMENTS MECHANICAL CORPORATION	776 Bennett Dr Unit 121 ,Longwood
23286	ALL ENVIRONMENTAL SERVICES	2100 Middle Country Road ,Centereach
23287	A-L-L EQUIPMENT INC.	204 38th Street ,Moline
23288	ALL EQUIPT LEASING, INC.	20 Donna Road ,Newton
23289	ALL ERECTION & CRANE RENTAL CORPORATION	7809 Old Rockside Road ,Cleveland
23294	ALL FAB, LLC	940 Stone Hill Road ,Denver
23295	ALL FABRICATIONS, INC.	121 West Woodlawn Ranch Road ,Houma
23296	ALL FABRICS, INC.	1453 Kern Way ,Walnut
23299	ALL FAITHS FUNERAL SERVICES, LLC	2850 S. Seneca ,Wichita
23301	ALL FAMILY CLINIC OF DAYTONA BEACH, INC.	1040 Mason Avenue ,Daytona Beach
23302	ALL FAMILY DENTAL CENTER, LLC	45 Route 46 East ,Ridgefield Park
23304	ALL FENCE COMPANY, INC.	1900 Spring Street ,Redwood City
23305	ALL FILL INC.	418 Creamery Way ,Exton
23307	ALL FIRE SERVICES, INC.	2027 Sherman St ,Hollywood
23309	ALL FLEX FLEXIBLE CIRCUITS, LLC	1705 Cannon Lane ,Northfield
23310	ALL FLO PUMP CO.	7750 Tyler Blvd ,Mentor
23312	ALL FLORIDA ELECTRIC	2606 NE 17th Ter ,Gainesville
23313	ALL FLORIDA ELECTRIC OF TALLAHASSEE, INC.	1219 Blountstown Highway ,Tallahassee
23314	ALL FLORIDA FAMILY CARE INC	3301 66th St N Ste A ,Saint Petersburg
23315	ALL FLORIDA INSURANCE	3228 W Sr 426 Suite 1032 ,Oviedo
23316	ALL FLORIDA MEDIAWORKS, INC.	246 E. 6th Avenue ,Tallahassee
23317	ALL FLORIDA ORTHOPAEDIC ASSOCIATES, P.A.	4600 4th St N ,St Petersburg
23318	ALL FOR KIDS	8200 Homer Drive Suite F ,Anchorage
23320	ALL FOR KIDZ, INC.	20700 44th Ave W Ste 220 ,Lynnwood
23321	ALL FOR MAILERS INC	4 Roland Ave ,Feasterville Trevose
23323	ALL FOREIGN USED AUTO PARTS, INC	500 North Wilson Road ,Columbus
23324	ALL FOREIGN USED AUTO PARTS, INC.	Donald G. Davis ,Fredericksburg
23325	ALL FREIGHT INTERNATIONAL, INC.	131 S.W. 156th St., Suite 200 ,Seattle
23326	ALL FREIGHT SOLUTIONS, LLC	6051 S 194th Street ,Kent
23327	ALL FREIGHT SYSTEMS, INC.	1134 S. 12Th Street ,Kansas City
23329	ALL FURNITURE INSTALLATION, INC.	675 Stinson Blvd. ,Minneapolis
23330	ALL FURNITURE INSTALLATION, LLC.	63 Saint Anthony Parkway ,Minneapolis
23331	ALL GLASS INC	1007 Sunshine Lane ,Altamonte Springs
23333	ALL GODS CHILDREN INTERNATIONAL	3808 NE Peerless Place ,Portland
23335	ALL GREEN IRRIGATION, INC.	2009 Ginoria Court ,Export
23336	ALL GUEST SERVICES	4303 Vineland Road Suite F5 ,Orlando
23338	ALL HANDS RAISED	2069 Hoyt Street ,Portland
23339	ALL HANDS VOLUNTEERS, INC.	6 Country Road ,Mattapoisett
23340	ALL HEALTH CHIROPRACTIC WELLNESS CENTER, INC.	24932 Aurora Road, Suite C ,Bedford Heights
23345	ALL HOME HEALTH INC	2626 E. 82nd St., Suite 180 ,Bloomington
23347	ALL HORIZONS RANCHO TRAVEL	160 Main Street ,Los Altos
23348	ALL HORIZONS, INC. DBA ALL SEASONS MENTAL HEALTH	8050 W. Rifleman, Suite 100 ,Boise
23350	ALL HYUNDAI & ISUZU AUTO RECYCLING	3750 Recycle Road ,Rancho Cordova
23351	ALL IN CONSTRUCTION SERVICES, LLC	275 Hunt Park Cove ,Longwood
23352	ALL IN ENTERPRISES, CORP.	15705 El Dorado Way ,Larkspur
23353	ALL IN ONE FITNESS	614 San Pablo ,Albany
23354	ALL IN ONE MAIL SHOP, INC.	11950 S.W. 128th Street ,Miami
23355	ALL IN ONE MOBILITY INC.	12833 NE Airport Way ,Portland
23356	ALL IN ONE MORTGAGE LLC	9200 S Dadeland Blvd. ,Miami
23357	ALL IN ONE POSTER COMPANY, INC.	8521 Whitaker Street ,Buena Park
23358	ALL IN ONE VENDING INC.	29550 Woodbine ,Menifee
23359	ALL IN THE FAMILY DENTAL CARE, P.A.	2041 State Route 35 ,Wall Township
23360	ALL INBOX LLC	244 5th Ave ,New York
23361	ALL INDUSTRIAL ELECTRIC, INC.	432 E. State Parkway, Suite 129 ,Schaumburg
23362	ALL INDUSTRIAL SAFETY PRODUCTS, INC .	950 Mount Holly Road ,Edgewater Park
23363	ALL INDUSTRY UNDERWRITERS, INC.	2600 Sumerian Dr. ,Land O Lakes
23366	ALL INSURANCE UNDERWRITERS	2600 Sumerian Drive Unit 101 ,Land Olakes
23367	ALL INTERIORS, INC.	184 Rockingham Road ,Londonderry
23371	ALL ISLAND CASE MANAGEMENT CORPORATION	1188 Bishop Street, Suite 1508 ,Honolulu
23374	ALL ISLAND HOMES LTD	21A Saturn Blvd ,Hauppauge
23376	ALL ISLAND MASON SUPPLY INC	180 Townline Road ,Kings Park
23377	ALL ISLAND MEDIA, INC.	1 Rodeo Drive ,Edgewood
23379	ALL ISLAND SIGNS & LIGHTING LL	2645A Middle Country Rd ,Centereach
23382	ALL JERSEY MECH & CONST INC	77 Cliffwood Ave Ste 4D ,Cliffwood
23384	ALL JERSEY SYSTEMS ELECTRICAL	77 Cliffwood Ave Ste 4C ,Cliffwood
23387	ALL KELLY, INC.	Po Box 8986 ,South Charleston
23388	ALL KIDS CLINIC, INC.	1922 W Martin Luther King, Jr Blvd ,Tampa
23390	ALL KIDS FIRST, INC.	1385 Magnolia Road ,Vineland
23391	ALL KIDS PEDIATRICS, P.A.	131 Mcdowell St., Ste 100 ,Asheville
23392	ALL KIND PAINTING	18611 Dunbury Ave. ,Farmington
23394	ALL KINDS VETERINARY, INC.	20865 Callaway Village Way, #14 ,Callaway
23395	ALL KRAFT ERECTORS, INC.	5265 Ken Tenn Hwy ,South Fulton
23396	ALL LAW.COM, INC	6501 Americas Parkway Ne ,Albuquerque
23397	ALL LEASING SERVICES, INC.	9701 Research Dr. ,Irvine
23398	ALL LEISURE HOLIDAYS LIMITED	1800 SE 10th Ave Ste 205 ,Fort Lauderdale
23400	ALL LINE INC	31 West 310 91st Street ,Naperville
23402	ALL MAID UP	1739 Parkview Avenue ,Chesapeake
23403	ALL MAINTENANCE AND REPAIR, LLC	95-656 Holani St. ,Mililani
23404	ALL MAKES HEATING & AIR COND.	365 White Plains Road ,Eastchester
23405	ALL MAKES OFFICE EQUIPMENT CO.	2558 Farnam Street ,Omaha
23406	ALL MANAGEMENT CORPORATION	6601 Center Drive West Suite 650 ,Los Angeles
23407	ALL MARINE SPARES INTERNATIONAL LLC	Po Box 113453 ,Stamford
23408	ALL MARKET INC., DBA VITA COCO	38 West 21st Street ,New York
23410	ALL MD MEDICAL CENTER, LLC	2100 West 68th Street ,Hialeah
23412	ALL MEDIA CAPITAL, INC.	711 E Imperial Hwy Ste 202 ,Brea
23413	ALL MEDIA DESIGN GROUP	835 Sharon Drive #300 ,Westlake
23415	ALL MEDICAL PERSONNEL, INC.	4000 Hollywood Blvd ,Hollywood
23416	ALL METAL DESIGNS, INC.	700 Windcrest Drive ,Holland
23417	ALL METAL FABRICATION INC	6405 Broadway Street ,American Canyon
23418	ALL METAL SALES, INC.	29260 Clemens Road ,Westlake
23421	ALL METAL STAMPING, INC.	411 West Spruce Street ,Abbotsford
23422	ALL METAL WORKS INC	4321 Bolton Rd ,Gasport
23424	ALL METALS FABRICATION	3160 South 1900 West ,Ogden
23425	ALL METALS FABRICATION INC	6 Hadco Road ,Wilmington
23426	ALL METALS FABRICATORS INC	619 Lambson Ln ,New Castle
23427	ALL METALS INDUSTRIES, INC.	Po Box 807 ,Belmont
23428	ALL METALS SERVICE & WAREHOUSING, INC.	100 All Metals Drive ,Cartersville
23429	ALL METALS SUPPLY INC	123 Grand Oak Drive ,Oroville
23430	ALL METALS, INC.	628 Industrial Drive ,Adrian
23434	ALL MISSION INDIAN HOUSING AUTHORITY	27740 Jefferson Ave Ste 240 ,Temecula
23435	ALL MISSISSIPPI HEARING, INC.	2657 Lakeland Drive, Suite B ,Flowood
23436	ALL MOBILE VIDEO, INC.	221 West 26th Street ,New York
23439	ALL MOLDED PLASTICS CO., INC.	3 B Fairfield Blvd. ,Wallingford
23440	ALL MOTION	5501 Del Oro Court ,San Jose
23441	ALL MOTORISTS INSURANCE AGENCY	5230 Las Virgenes Road, Ste 100 ,Calabasas
23442	ALL N 1 FITNESS	9744 Watson Road ,Crestwood
23444	ALL NATIONS FLAG CO., INC.	118 W 5th St ,Kansas City
23447	ALL NATURAL DISTRIBUTORS, INC.	6 Perry Drive ,Foxboro
23448	ALL NATURAL STONE, INC.	2504 Seaboard Avenue ,San Jose
23449	ALL NEEDS INSURANCE AGENCY, INC	1226A N Roselle Rd. ,Schaumburg
23450	ALL NEVADA INSURANCE INC.	9440 W. Sahara Ave ,Las Vegas
23452	ALL NIPPON AIRWAYS	2050 West 190th Street, Suite 100 ,Torrance
23453	ALL NIPPON AIRWAYS CO., LTD.	2050 West 190th St., Suite 100 ,Torrance
23454	ALL NOUNTY WINDOW CLEANING	47 State Rt 94 ,Vernon
23455	ALL NY TITLE AGENCY, INC.	222 Bloomingdale Road, Suite 306 ,White Plains
23456	ALL OCEAN SERVICES, LLC	10924 Mukilteo Speedway, Suite I305 ,Mukilteo
23459	ALL OHIO MASONRY RESTORATION, LLC	P.O. Box 10779 ,Columbus
23460	ALL OHIO SECURE SHRED	3842 Congress Parkway ,Richfield
23462	ALL ONE GOD FAITH, INC.	P.O. Box 1958 ,Vista
23464	ALL OUR CHILDRENS ADVOCACY CEN	8651 S 79th Av ,Justice
23467	ALL OWNERS DRAIN CLEANING INC	934 Main Street ,Wilmington
23469	ALL PALLET RECYCLING LLC	Po Box 290677 ,Wethersfield
23470	ALL PAWS VETERINARY CLINIC LLC	3 Central Avenue ,Mays Landing
23471	ALL PAWS WILDLIFE REMOVAL LLC	1055 Franklin Rd ,Gallatin
23472	ALL PAWS, INC.	1187 Coast Village Rd Ste I-473 ,Montecito
23474	ALL PET CARE ANIMAL HOSPITAL	1453 Sunset Point Road ,Clearwater
23475	ALL PETS ANIMAL CLINIC	408 First Street ,Nutter Fort
23476	ALL PETS ANIMAL HOSPITAL, P.A	7 Reynolds Mountain Blvd ,Asheville
23477	ALL PETS CENTER, INC.	424 South 5th Street ,Grand Junction
23478	ALL PETS CLINIC - WAIPAHU, INC.	94-366 Pupupani St. #105 ,Waipahu
23480	ALL PETS HOSPITAL	269 South Van Ness Ave. ,San Francisco
23481	ALL PETS HOSPITAL, LTD	200 Read Street ,Lockport
23482	ALL PHASE AUTO REPAIR	300 Eastern Blvd. ,Essex
23484	ALL PHASE ELECTRIC CO., INC.	1031 Pennsylvania Avenue ,Linden
23486	ALL PHASE LOGISTICS, INC.	1545 Ocean Avenue ,Bohemia
23487	ALL PHASE MECHANICAL	4334 Rancho Road ,Marysville
23488	ALL PHASE MECHANICAL, INC.	4334 Rancho Rd ,Marysville
23489	ALL PHASE PLUMBING HEATING & A	541 Industrial Drive ,Woodstock
23490	ALL PHASE POWER AND LIGHTING, INC.	Po Box 2515 ,Sandusky
23491	ALL PHASE RENOVATIONS LLC	25 Plantation Rd ,Broad Brook
23495	ALL PHASE SALES & SERVICE, INC.	P.O. Box 249 ,Hookstown
23496	ALL PHASE SECURITY	2959 Promenade St ,West Sacramento
23497	ALL PHASE SERVICES, INC.	34 SW 5th Ave ,Delray Beach
23498	ALL PHASE SOLUTIONS, LLC	32 SW 5th Ave ,Delray Beach
23500	ALL PHASES DERMATOLOGY, LLC	6355 Walker La. ,Alexandria
23504	ALL PLASTICS MOLDING, INC	15700 Midway Road ,Addison
23505	ALL PLAY, INC	13903 Van Wall Street ,Houston
23506	ALL POINTS COOPERATIVE	120 W 8th Street ,Gothenburg
23507	ALL POINTS COUNTERTOP, INC.	449 N. Cameron Street ,Winchester
23508	ALL POINTS EAP & ORGANIZATIONAL SERVICES INC	2250 Murrell Rd Ste 5B ,Lynchburg
23509	ALL POINTS ENTERPRISES CORPORATION	710 SE 3rd Lane ,Dania Beach
23510	ALL POINTS EQUIPMENT INC	12851 Prospect St. ,Dearborn
23512	ALL POINTS LOGISTICS, LLC	190 S. Sykes Creek Parkway ,Merritt Island
23513	ALL POINTS MOVING AND STORAGE INC.	225 Rt. 303 #108 ,Congers
23515	ALL POINTS WASTE SERVICE, INC.	1055 Van Buren Avenue ,Indian Trail
23516	ALL POOL SERVICE & SUPPLY INC	4401 Edgewater Dr. ,Orlando
23517	ALL POOLSIDE SERVICES, INC.	121 County Road C E ,Saint Paul
23519	ALL POWER BROKERS REAL ESTATE, INC.	847 N. Highway 49/88, Suite 1 ,Jackson
23521	ALL POWER SUPPLY INC.	2580 N Powerline Rd Ste 605 ,Pompano Beach
23523	ALL POWER, INC.	12352 Loma Rica Drive ,Grass Valley
23525	ALL PRECISION MANUFACTURING, LLC	153 North 5th Street ,Nokomis
23526	ALL PRINT RESOURCES GROUP INC	175 Us Highway 46 ,Fairfield
23527	ALL PRINTING RESOURCES, INC.	140 W Lake Drive ,Glendale Heights
23529	ALL PRO CARRIERS, LLC	2223 Brookstone Centre Parkway ,Columbus
23530	ALL PRO CLEANING SYSTEMS	7747 Allen Street ,Midvale
23533	ALL PRO ELECTRIC INCORPORATED	5224 SW Dosch Road ,Portland
23535	ALL PRO ELECTRIC, INC.	4N240 Cavalry Dr. #D ,Bloomingdale
23538	ALL PRO FREIGHT SYSTEMS	1200 Chester Indusrial Parkway ,Avon
23539	ALL PRO FREIGHT SYSTEMS INC	1200 Chester Industrial Pkwy ,Avon
23540	ALL PRO INDUSTRIES INC.	183 Route 23B ,Hudson
23541	ALL PRO LEGAL INVESTIGATIONS, PA	424 E Central Blvd ,Orlando
23543	ALL PRO PLUMBING & DRAIN CLEANING, INC.	1947 10th Ave. North ,Lake Worth
23544	ALL PRO PLUMBING INC	Po Box 811 ,Asheville
23547	ALL PRO RESTORATION, INC.	1967 Greenspring Dr. ,Timonium
23550	ALL PRO SALES, INC.	1108 Quaker St ,Dallas
23551	ALL PRO SHIPPING INC	8955 South Ridgeline Blvd ,Highlands Ranch
23553	ALL PRO TECHNICAL SERVICE, INC.	1769 Scherer Pkwy ,Saint Charles
23557	ALL PURPOSE RENTALS INC	19 Newman Springs Rd E ,Shrewsbury
23558	ALL QUALITY AND SERVICES, INC.	401 Kato Terrace ,Fremont
23559	ALL RAILROAD SERVICES CORPORATIO	159 Hampton Point Dr Ste 3 ,St Augustine
23560	ALL READY MOVING & STORAGE INC	61-64 81st Street ,Middle Village
23562	ALL REASONS MOVING INC	600 E Trimble Rd ,San Jose
23563	ALL RECYCLING, INC.	279 South William Street ,Newburgh
23564	ALL RELOCATION SERVICES, LTD.	12425 Chimney Rock Rd. ,Houston
23565	ALL RIGHT MAILING, INC.	47 Mellen Street ,Framingham
23566	ALL RISK BROKERAGE COMPANY INC.	530 E 89 Street ,New York
23567	ALL RISK, INC	501 Kennedy Boulevard ,Somerdale
23568	ALL RISK, INC.	69 North Street ,Danbury
23569	ALL RISKS LTD	10150 York Road ,Hunt Valley
23570	ALL RITE CONSTRUCTION, INC.	3040 Painted Rock NW Suite A ,Albuquerque
23571	ALL RITE SPRING CO.	2302 Spring Ridge Dr ,Spring Grove
23573	ALL ROOFS NORTHWEST INC	P O Box 21936 ,Eugene
23575	ALL SAFE TECHNOLOGIES, LLC	517 North Baylen St ,Pensacola
23576	ALL SAINTS ACADEMY	5001 State Road 540 W ,Winter Haven
23577	ALL SAINTS ALL DAY CHILD CARE CTR INC.	4607 Willard Ave ,Chevy Chase
23578	ALL SAINTS CHURCH OF WINTER PARK INC.	338 E. Lyman Ave ,Winter Park
23579	ALL SAINTS EPISCOPAL DAY SCHOOL	6300 N. Central Ave ,Phoenix
23582	ALL SAINTS EPISCOPAL SCHOOL	2717 Confederate Avenue ,Vicksburg
23585	ALL SCRAP METALS, LLC	7 Veterans Memorial Blvd ,Kenner
23588	ALL SEASON FINANCIAL ADVISORS INC	731 Sherman Street ,Denver
23589	ALL SEASON HEATING & AIR CONDITIONING LLC	Po Box 4957 ,Helena
23590	ALL SEASON HEATING AND AIR CONDITIONING	4204 Riverwalk Parkway Ste 270 ,Riverside
23591	ALL SEASON LAWN CARE LANDSCAPI	Po Box 090753 ,Milwaukee
23592	ALL SEASON MOVERS, INC.	12 Breiderhoft Road ,Kearny
23595	ALL SEASONS	9820 NW 77 Ave Hialeah Garde ,Hialeah
23596	ALL SEASONS ADJUSTING, INC.	200 Briars Run Drive ,Downingtown
23597	ALL SEASONS AIR CONDITIONING, PLUMBING AND	73605 Dinah Shore Dr #1310M ,Palm Desert
23602	ALL SEASONS DENTAL, INC.	830 W. Abriendo Avenue ,Pueblo
23603	ALL SEASONS EXCAVATING, INC.	P.O. Box 96 ,Colchester
23605	ALL SEASONS FRAMING CORP.	644 N Eckhoff St ,Orange
23606	ALL SEASONS GENERAL CONTRACTING, INC.	7 Kenwood Lane ,St. James
23607	ALL SEASONS HEATING & AIR CONDITIONING COMPANY OF JAX, INC.	4514 St. Augustine Road ,Jacksonville
23608	ALL SEASONS HEATING & AIR CONDITIONING, INC.	C/O 1440 N 16th Ave ,Yakima
23612	ALL SEASONS LANDSCAPE MANAGEMENT	2621 Little Tom Starnes Road ,Monroe
23614	ALL SEASONS MAINTENANCE, INC.	2443 South Progress Drive ,West Valley City
23615	ALL SEASONS MARKETING, INC.	10001 W Roosevelt Road ,Westchester
23616	ALL SEASONS MECHANICAL, INC.	Po Box 2564, 6744 Townline Road ,Syracuse
23617	ALL SEASONS PAINT	96 West Main St ,Woodland
23618	ALL SEASONS PLACEMENT	Po Box 8517 ,Erie
23621	ALL SEASONS RENTALS, INC.	15113 Bat Hawk Circle ,Austin
23623	ALL SEASONS RV	3300 Colusa Highway ,Yuba City
23627	ALL SEASONS TENNIS CLUB	Po Box 2845 ,Acton
23628	ALL SEASONS TRAVEL AGENCY, INC.	2900 Cahaba Road ,Birmingham
23629	ALL SEASONS TRAVEL AND RESORTS	4104 W Linebaugh Avenue ,Tampa
23630	ALL SEASONS WEED CONTROL, INC.	Po Box 1548 ,Grass Valley
23631	ALL SEASONS WINDOW & DOOR MFG., INC	400 Ambassador Row ,Longview
23634	ALL SENSORS CORPORATION	16035 Vineyard Blvd. ,Morgan Hill
23637	ALL SERVICE ELECTRIC CO., INC.	7222 S. Maple Avenue ,Fresno
23638	ALL SERVICE ELECTRIC GROUP INC	1556 Whitlock Ave ,Jacksonville
23641	ALL SERVICE PLASTIC MOLDING, INC.	900 Falls Creek Dr. ,Vandalia
23645	ALL SHORE INDUSTRIES, INC.	1 Edgewater Plaza, #215 ,Staten Island
23646	ALL SMILES DENTAL	2 Wellspring Rd ,Biddeford
23647	ALL SMILES DENTAL CARE, L.L.C.	201 West 2nd Street ,Minneapolis
23648	ALL SMILES DENTAL CARE, P.A.	3438 Tampa Road ,Palm Harbor
23650	ALL SMILES DENTAL, PC.	2016 Avenue M ,Brooklyn
23651	ALL SMILES DENTAL, PLLC	1043 Oaklawn Drive ,Culpeper
23652	ALL SMILES FAMILY DENTISTRY, PLC	1421 West 1st Street ,Cedar Falls
23653	ALL SMILES ORTHODONTICS	745 E. Gunn Road ,Rochester
23656	ALL SOULS EPISCOPAL CHURCH	6400 N. Pennsylvania Avenue ,Oklahoma City
23657	ALL SOULS SCHOOL	1157 Lexington Avenue ,New York
23658	ALL SOUTH BAY FOOTCARE PODIATRY GROUP, INC.	23365 Hawthorne Blvd. ,Torrance
23662	ALL SOUTHERN FABRICATORS, LLC	5010 126th Avenue North ,Clearwater
23664	ALL SPEC SHEET METAL, INC.	547 Bliss Ave ,Pittsburg
23667	ALL SPORTS HEROES UNIFORMS SPORTING GOODS	18 First Street ,Lowell
23670	ALL SPORTS THERAPY	311 N Douty St ,Hanford
23672	ALL STAFFING, INC.	P.O. Box 219 ,Lansford
23673	ALL STAR AUTO LIGHTS - CALIFORNIA I NC.	5952 Jasmine St. ,Riverside
23674	ALL STAR AUTOS, INC.	1403 E. Lincolnway ,Laporte
23676	ALL STAR BUICK GMC TRUCK, INC.	1180 E. Napoleon St. ,Sulphur
23677	ALL STAR CARPET BEDDING & FURN	6854 New Hampshire Ave ,Takoma Park
23678	ALL STAR CHEMICAL CO., INC.	275 Old County Line Rd., Ste. E ,Westerville
23679	ALL STAR CHIROPRACTIC INC	4711 Mission Rd ,Westwood
23681	ALL STAR COMPUTER	20819 N. 25th Place ,Phoenix
23682	ALL STAR CONSTRUCTION, INC.	13110 T.C. Jester Blvd., Ste. 100 ,Houston
23683	ALL STAR CONSULTING INC	1111 Oak Street ,San Francisco
23684	ALL STAR COPYING AND PRINTING	101 S Elm St Ste 220 ,Greensboro
23685	ALL STAR CORRUGATED	1425 Forum Way S ,Fort Worth
23686	ALL STAR DAIRY ASSOCIATION, INC	P.O. Box 911050 ,Lexington
23688	ALL STAR DELIVERY SYSTEMS, INC.	Po Box 1245 ,Denville
23689	ALL STAR DELIVERY, INC.	300 S 200 West ,Bountiful
23690	ALL STAR DIRECTORIES	2200 Alaskan Way, Suite 200 ,Seattle
23691	ALL STAR DISTRIBUTING, INC.	1000 Patriot Parkway ,Reading
23692	ALL STAR DODGE CHRYSLER JEEP RAM	11503 Saint Charles Rock Rd ,Bridgeton
23694	ALL STAR ELECTRIC, INC.	1208 Bert Street ,Laplace
23695	ALL STAR EQUIPMENT RENTALS	Sales Inc ,Fort Myers
23696	ALL STAR FINANCIAL, INC.	3800 American Blvd. W., Suite 1450 ,Minneapolis
23697	ALL STAR FORD MERCURY, INC.	2929 S. Loop 256 ,Palestine
23698	ALL STAR FORD, LLC	P.O. Box 11699 ,Olympia
23700	ALL STAR GLASS COMPANY, INC.	1845 Morena Boulevard ,San Diego
23701	ALL STAR GROUP, INC	810 Taylor Street ,Elyria
23702	ALL STAR HEALTH	5030 E Sunrise Dr ,Phoenix
23703	ALL STAR HEALTHCARE SERVICES, INC.	114 West 20th Street ,Norfolk
23704	ALL STAR HEATING & AIR CONDITIONING, INC.	P. O. Box 70 ,Fall City
23705	ALL STAR INSURANCE BRANDON INC	113 E Brandon Blvd Ste J ,Brandon
23706	ALL STAR INTERPRETING SERVICE INC	1925 Vassar Street ,Glendale
23707	ALL STAR MOTORS OF GREENVILLE, INC.	1009 Hwy 82 E ,Greenville
23708	ALL STAR MOVING, INC.	1759 Oceanside Blvd ,Oceanside
23710	ALL STAR PEDIATRICS	702 Gordon Dr. ,Exton
23711	ALL STAR PEDIATRICS, INC.	5571 4th St N ,St. Petersburg
23712	ALL STAR PEDIATRICS, P.C.	6428 Joliet Road ,Countryside
23715	ALL STAR PHYSICAL THERAPY, PA	1140 Bloomfield Ave. ,West Caldwell
23717	ALL STAR POOL & SPA SUPPLY, INC.	1821 Tin Valley Circle ,Birmingham
23718	ALL STAR RENTS	2525 Clay Bank Road ,Fairfield
23719	ALL STAR ROOFING	13318 Old Chapel Rd. ,Bowie
23720	ALL STAR SEED	2015 Silsbee Road ,El Centro
23721	ALL STAR SIGN, INC.	Post Office Box 23071 ,Columbus
23722	ALL STAR SIGNS INC.	1924 Mission Rd Ste A ,Escondido
23723	ALL STAR SOFTWARE SYSTEMS LLC	440 Smith St ,Middletown
23725	ALL STAR TITLE, INC.	6225 Smith Avenue ,Baltimore
23728	ALL STAR TRANSPORTATION, INC.	1547 Thornton St ,Pacific
23730	ALL STAR TRUCKING, INC.	1606 Progress Way, Suite B ,Clarksville
23731	ALL STAR VENDING, INC.	3443 Military St. ,Port Huron
23732	ALL STAR VETERINARY CLINIC LLC	789 East Main Street ,Westfield
23736	ALL STATE COMMUNICATIONS, INC.	5114 Marson Drive ,Sauk Rapids
23737	ALL STATE CONSTRUCTION, INC.	449 Cooke Street ,Farmington
23738	ALL STATE FASTENER CORPORATION	15460 East 12 Mile Road ,Roseville
23739	ALL STATE FIRE EQUIPMENT OF WNY, LLC	400 Mineral Springs Road ,Buffalo
23740	ALL STATE MANUFACTURING CO., INC.	4024 2nd Pkwy ,Terre Haute
23741	ALL STATE METALS, INC.	382 Cortlandt St ,Belleville
23742	ALL STATE MOVING & TRANSFER CO	Inc Bayonne Nj ,Linden
23745	ALL STATE TRAFFIC CONTROL	P.O. Box 14 ,Terryville
23747	ALL STATES AG PARTS, INC.	E1140 State Road 170 ,Downing
23752	ALL STATES PAINTING, INC	Rr 1 ,Alexander
23754	ALL STEAM TECHNOLOGIES	4235 W. Alamos Ave ,Fresno
23755	ALL STEEL FENCE, INC.	P O Box 1309 ,Lathrop
23756	ALL STEEL PRODUCTS, INC	20835 Old Route 66 ,Staunton
23757	ALL STEEL STRUCTURES, INC.	16301 South Vincennes ,South Holland
23758	ALL STEEL, LLC	240 Crystal Lake Road ,Ellington
23760	ALL STONE LLC	312 4th Street ,Ithaca
23763	ALL SUPPLIES INTERNATIONAL, INC	3410 Industrial Blvd ,West Sacramento
23764	ALL SYSTEMS BROADBAND, INC.	6567 Brisa Street ,Livermore
23766	ALL SYSTEMS GO FURNITURE, INC.	2245 Enterprise Street, Suite 100 ,Escondido
23767	ALL SYSTEMS GO INC	21714 Redwood Canyon Pl ,Santa Clarita
23768	ALL SYSTEMS INSTALLATION INC	8300 10th Ave N ,Golden Valley
23769	ALL SYSTEMS INTEGRATED INC	315 7th St Ne ,Puyallup
23770	ALL SYSTEMS INTEGRATION	266 Sandpiper Ave ,Royal Palm Beach
23772	ALL TAG SECURITY AMERICAS, INC.	1155 Broken Sound Pkwy NW Ste E ,Boca Raton
23773	ALL TAXI MANAGEMENT INC.	41-25 36th Street ,Long Island City
23775	ALL TECH ELECTRONIC SYSTEMS, INC.	312 Kentucky St. ,Bakersfield
23779	ALL TECH INSPECTION	5602 Ih-37 ,Corpus Christi
23780	ALL TECH MACHINE & ENGINEERING INC	2700 Prune Avenue ,Fremont
23781	ALL -TECH MANUFACTURING LIMITED	1477 Industrial Parkway ,Akron
23782	ALL TECH MARKETING	567 Exton Commons ,Exton
23783	ALL TECH NETWORKING, LLC	131 Dartmouth Street ,Boston
23784	ALL TECH SOLUTIONS US, INC.	75 Urban Ave ,Westbury
23786	ALL TECH WIRELESS	5483 I 55 South ,Jackson
23787	ALL TECHNOLOGIES, INC.	201 S 12Th Street ,Arlington
23788	ALL TEK DRYWALL, INC.	344 Main St ,Vista
23790	ALL TEMP CHICAGO	4363 W Montrose Ave ,Chicago
23792	ALL TEMPERATURE CONTROL, INC.	3426 N. 29th Avenue ,Phoenix
23793	ALL TEMPERATURE SERVICE AIR CONDITIONING, INC.	773 Ames Ave. ,Milpitas
23794	ALL TEMPERATURE SYSTEMS, INC.	N2505 State Road 22 ,Waupaca
23795	ALL TEMPERATURES CONTROLLED, INC.	9720 Topanga Canyon Place ,Chatsworth
23796	ALL TEMPORARIES, INC.	5455 Garden Grove ,Westminster
23797	ALL TERRA LANDSCAPE SERVICES L	Po Box 80046 ,Lansing
23798	ALL TERRAIN EXCAVATING	349 Mt Hermon Road ,Hope
23799	ALL TERRAIN PRODUCTIONS, INC.	2675 W. Grand Ave. ,Chicago
23800	ALL TEST & INSPECTION, INC.	9998 Goodhue Street Ne ,Blaine
23801	ALL TEX SUPPLY RETIREMENT PLAN	1244 Southridge Ct Ste 109 ,Hurst
23803	ALL THE ANSWERS	207 Hallock Rd. ,Stony Brook
23804	ALL THE WORKS INC	721 W Del Paso Raod ,Sacramento
23807	ALL THINGS MEDIA, LLC	10 Industrial Ave. ,Mahwah
23808	ALL THINGS POSTAGE INC.	9420 College Park Drive Ste 155 ,Woodlands
23810	ALL TIME DETECTION, INC.	28 Willett Avenue ,Portchester
23811	ALL TIME INSTALLATIONS, INC.	1601 Hill Avenue ,Mangonia Park
23812	ALL TIME MACHINE INC	2050 South Del Rio Place ,Ontario
23814	ALL TOOL SALES, INC.	C/O 555 Main Street, Suite 300 ,Racine
23816	ALL TOOLS COMPANY, INC.	216 N. Quapah ,Oklahoma City
23817	ALL TOPS, INC. DBA INSOLID	94-425 Maikoiko Street ,Waipahu
23822	ALL TRANS EXPRESS, LLC	1920 East 3rd Street Suite 22 ,Tempe
23823	ALL TRI-R INC	1301 E. Jackson St. ,Pana
23824	ALL TRUCK PARTS & EQUIPMENT CO., INC.	15959 Florida Blvd ,Baton Rouge
23825	ALL TRUCK TRANSPORTATION CO., INC.	4924 S. Austin Avenue ,Chicago
23826	ALL TYPE COMPRESSOR SERVICE CO., INC.	1712 N Main St ,Dupo
23827	ALL TYPE PROFESSIONAL DOOR SERVICES INC	405 N Pearl St ,Albany
23828	ALL TYPES FENCE, INC.	1665 Route 23 North ,Streator
23829	ALL TYPES PLUMBING COMPANY	4949 Ashlee Way ,Erda
23832	ALL VALLEY ADMINISTRATORS, LLC	7525 N. Cedar Street, #109 ,Fresno
23835	ALL VALLEY HOSE & INDUSTRIAL SUPPLY LLC	16735 Saticoy Street #107 ,Van Nuys
23838	ALL VALLEY SMILES, INC.	16 Briarwood Lane ,New Hartford
23842	ALL WALL CONTRACTING, INC.	723 South Lochsa Street ,Post Falls
23843	ALL WASHED UP AUTO WASH, INC.	115A Main Street ,Medway
23844	ALL WASTE, INC.	143 Murphy Road ,Hartford
23845	ALL WAYS ELECTRIC CORP.	262 Orinoco Drive ,Brightwaters
23847	ALL WAYS FORWARDING INTERNATIONAL, INC	701 Newark Avenue ,Elizabeth
23848	ALL WAYS HEATING & AIR CONDITIONING INC	2401 Baldwin Ct ,Schaumburg
23851	ALL WAYS TRANSIT, INC.	7693 State Hwy 64 ,Bloomer
23852	ALL WEATHER ARCHITECTURAL ALUM	777 Aldridge Rd ,Vacaville
23855	ALL WEATHER PRODUCTS COMPANY, L.L.C.	1500 Greenleaf Ave ,Elk Grove Village
23856	ALL WEATHER ROOFTOP SOLUTIONS, INC	3308 Pine St ,Everett
23857	ALL WEATHER STEEL PRODUCTS, LLC	704 South 400 West ,Salt Lake City
23858	ALL WEATHER SURFACES HAWAII, LLC	99-890 Iwaena St ,Aiea
23859	ALL WEATHER SYSTEMS, INC.	11065 Fairview Road ,Newark
23861	ALL WEATHER, INC.	1165 National Drive ,Sacramento
23863	ALL WEB CAFE, INC.	42 Cassatt Ave ,Berwyn
23864	ALL WEB LEADS, INC.	7300 Fm 2222 Bldg 2 Ste 100 ,Austin
23865	ALL WEST COMMUNICATIONS, INC.	50 W 100 N ,Kamas
23866	ALL WEST CONTAINER CO.	30 Tanforan Ave. ,South San Francisco
23868	ALL WEST FIRE PROTECTION SYSTEMS	6735 Corsair Avenue ,Prescott
23869	ALL WEST SELECT SIRES	P.O. Box 507 ,Burlington
23870	ALL WESTERN MORTGAGE, INC	8345 W Sunset Rd Nbr 380 ,Las Vegas
23871	ALL WHEEL DRIVE EQUIPMENT MANU	2022B E 61st St N ,Tulsa
23874	ALL WOMENS CARE, PLLC	1033 E. Lamar Alexander Pkwy. ,Maryville
23877	ALL WORLD MACHINERY SUPPLY, INC.	1301 W Diggins St ,Harvard
23878	ALL WORLD TRAVEL SERVICE INC	108 West 1st Street ,Dayton
23879	ALL WORLD, INC.	4750 255th Street East ,Elko
23880	ALL WRAPPED UP, LLC	250 Kinnelon Road ,Kinnelon
23881	ALL WRITE RIBBON, INC.	Po Box 67 ,Amelia
23882	ALL YEAR COOLING & HEATING, INC.	6781 West Sunrise Blvd ,Weston
23883	ALL, INC.	185 West Plato ,St. Paul
23884	ALL3MEDIA USA, INC.	6060 Center Drive, Suite 400 ,Los Angeles
23885	ALL3SPORTS INC	Po Box 988 ,Bowling Green
23886	ALL4 INC.	Po Box 299 ,Kimberton
23890	ALLABEN & BANDEEN, PC	4467 Cascade Rd SE Ste 4473 ,Grand Rapids
23893	ALLAFRICA, INC.	920 M Street, Se ,Washington
23894	ALLAGASH INTERNATIONAL, INC.	1 Madison Street ,South Portland
23896	ALLAIN & SON, INC.	10R Rainbow Ter. ,Danvers
23897	ALLAIN AND ALLAIN	Po Box 467 ,Jeanerette
23899	ALLAIRE ELDER LAW LLC	271 Farmington Avenue ,Bristol
23900	ALLAIRE IVY LEAGUE ACADEMY, INC.	5990 Bethelview Road ,Cumming
23901	ALLAMAKEE-CLAYTON ELECTRIC COOPERATIVE, INC.	229 Highway 51 ,Postville
23902	ALLAMAN, INC.	141 Infantry Way ,Marietta
23903	ALL-AMERICAN AUTO SERVICE INC	1036 Grand Ave ,Saint Paul
23904	ALL-AMERICAN COOPERATIVE	P. O. Box 125 ,Stewartville
23905	ALL-AMERICAN FARMS, INC.	2400 High Ridge Road, 100 ,Boynton Beach
23906	ALL-AMERICAN FIRE EQUIPMENT, INC	Po Box 146 ,Ona
23907	ALL-AMERICAN FITNESS AND RAQUETBALL CENTERS, INC.	1825 N Willow Ave ,Broken Arrow
23909	ALLAN A. SHENOI	1234 Rosalind Rd. ,San Marino
23910	ALLAN AND CONRAD INC	1280 Palmetto Ave ,Winter Park
23912	ALLAN AND MARTELLE, LLP	2076 Lincoln Avenue ,San Jose
23913	ALLAN AUTOMATIC SPRINKLER CORPORATION	20303 Mack Street ,Hayward
23914	ALLAN AUTOMATIC SPRINKLER CORPORATION OF SO. CAL.	3233 Enterprise Street ,Brea
23916	ALLAN B. CHODOR	9010 Corbin Avenue, Suite 6 ,Northridge
23920	ALLAN BERGER & ASSOCIATES, PLC	4173 Canal Street ,New Orleans
23921	ALLAN BLOCK	7424 West 78th Street ,Bloomington
23923	ALLAN BRITEWAY ELECTRICAL CONTRACTORS IN	130 Algonquin Parkway ,Whippany
23924	ALLAN BROTHERS, INC.	31 Allan Road ,Naches
23926	ALLAN C. CALDEMEYER, DDS	977 Gladstone Se ,Grand Rapids
23931	ALLAN C. SUNDIN, D.D.S., M.S., P.C.	1385 Laskin Road ,Virginia Beach
23933	ALLAN CHEMICAL CORPORATION	235 Margaret King Avenue ,Ringwood
23934	ALLAN COLLAUTT ASSOCIATES, INC.	1974 Sproul Road, Suite 200 ,Broomall
23936	ALLAN D. LAIRD	15538 E. Fairfield Road ,Mount Vernon
23938	ALLAN D. NEWDELMAN PC	80 E. Columbus Ave ,Phoenix
23940	ALLAN D. SCHULMAN, D.D.S., P.A.	1710 Crain Highway, Suite 103 ,Glen Burnie
23942	ALLAN D. WEIMER, DDS, MS	100 Park Ave. Suite 104 ,Steamboat Springs
23948	ALLAN EDWARDS BUILDER INC.	1973 W. Gray, Suite 5 ,Houston
23949	ALLAN ELECTRIC, INC.	918 A West Canal Dr. ,Kennewick
23950	ALLAN ERDY ESCROW, INC.	15374 Ventura Blvd. ,Sherman Oaks
23954	ALLAN G. HUTCHISON CPA PC	17100 East Shea Blvd 400A ,Fountain Hills
23957	ALLAN GERKE & SONS, INC.	15341 State Hwy 131 S ,Tomah
23958	ALLAN GOLDSTEIN, D.D.S., P.C.	88 Nathaniel Road ,Holland
23959	ALLAN GORMAN	215 Glenridge Avenue ,Montclair
23960	ALLAN GREENBERG, ARCHITECT, LLC	1217 King St. ,Alexandria
23962	ALLAN H. MACHT	575 South Charles St. Suite 200 ,Baltimore
23966	ALLAN HANCOCK AGENCY, INC.	1618 E Pleasant Valley Blvd ,Altoona
23968	ALLAN HOMES, INC.	P.O. Box 1058 ,Columbia
23969	ALLAN I. ZACKLER	3824 Grand Avenue ,Oakland
23970	ALLAN INDUSTRIES, INC.	270 Route 46 East ,Rockaway
23979	ALLAN JOSEPH CRIBBINS, III, MD, PA	6020 W. Parker Rd., Suite 430 ,Plano
23984	ALLAN KATZ AMERICANA	25 Old Still Road ,Woodbridge
23985	ALLAN KELLEY, MD, P.C.	102 Doctors Drive ,Dothan
23987	ALLAN L LINK DMD & ASSOC LLC	14335 Manchester Rd ,Ballwin
23988	ALLAN L REID PSC	4828 Lincoln Ave ,Evansville
23990	ALLAN L. GOINS, JR.	67 Long Street ,North Vernon
23991	ALLAN L. HABLUTZEL DDS	820 Pacific Avenue, Suite 204 ,Bremerton
23995	ALLAN LAW GROUP, P.C.	23018 Pacific Coast Highway ,Malibu
23997	ALLAN M. BLOCK AGENCY INC.	24 South Broadway ,Tarrytown
23998	ALLAN M. MILLER, DDS	540 North State Road, 2nd Floor ,Briarcliff Manor
23999	ALLAN M. ROBBINS, M.D.	1678 Empire Blvd Suite 400 ,Webster
24000	ALLAN M. SNIFFEN, D.D.S., P.C.	245 North Broadway, Suite 205 ,Sleepy Hollow
24001	ALLAN M. WALKER INSURANCE AGENCY	120 High Street, Po Box 1057 ,Taunton
24002	ALLAN MAGAZINER, D.O., P.C.	1907 Greentree Road ,Cherry Hill
24003	ALLAN MECHANICAL INC.	7875 Fuller Road ,Eden Prairie
24005	ALLAN MINEROFF, M.D., P.C.	1709 North Broad Street ,Lansdale
24006	ALLAN MOHR, D.D.S.	3187 Shore Drive ,Merrick
24010	ALLAN N. KARLIN	174 Chancery Row ,Morgantown
24012	ALLAN NOTT ENTERPRISES, INC.	3500 Elida Road ,Lima
24014	ALLAN PFEIFFER	23440 Civic Center Way ,Malibu
24019	ALLAN R. YOUNG	2475 W Monroe St ,Springfield
24024	ALLAN RUDA, DDS	180 Hwy 35 ,Red Bank
24030	ALLAN S. LOLLY & ASSOCIATES, APC	4655 Cass St., Suite 300 ,San Diego
24031	ALLAN S. THOMAS, D.M.D.	2545 E. Parleys Way ,Salt Lake City
24033	ALLAN SPEAR CONSTRUCTION COMPANY	2225 NW 66th Ct ,Gainesville
24034	ALLAN STONE GALLERIES, INC.	C O Silvercrest Asset Mngt Group ,New York
24035	ALLAN T BACON II DDS PA	1329 Pennsylvania Avenue ,Hagerstown
24036	ALLAN T. SAWYER MD LTD	Po Box 11660 ,Glendale
24042	ALLAN W ROTHSCHILD DPM PA	1022 Main St, Ste L ,Dunedin
24043	ALLAN W. REDASH, MD, PLLC	953 Main Street ,Nashville
24044	ALLAN WISER INSURANCE SERVICES, INC.	4809 Sparks Avenue ,San Diego
24047	ALLAN Z. SCHWARTZBERG, M.D., P.A.	6616 Kenhill Road ,Bethesda
24048	ALLAN, NAVA & GLANDER, PLLC	825 W. Bitters Road, Suite 102 ,San Antonio
24050	ALLANN BROTHERS COFFEE CO., INC.	1852 Fescue Street Se ,Albany
24051	ALLARD AND FISH, P.C.	2600 Buhl Bldg., 535 Griswold ,Detroit
24053	ALLARD INSTITUTE INC.	39811 Sharon Avenue ,Davis
24054	ALLARD LUMBER COMPANY	354 Old Ferry Road ,Brattleboro
24056	ALLARD NAZARIAN GROUP, INC.	124 Joliette Street ,Manchester
24057	ALLARD RENTAL CORPORATION	8820 Indianapolis Blvd ,Highland
24058	ALLARD USA, INC.	300 Forge Way, Suite 3 ,Rockaway
24059	ALLARY CORPORATION	2204 Morris Ave. ,Union
24060	ALLAWAY AND PAROUSIS UROLOGY, M.D.	12234 Williams Road ,Cumberland
24061	ALLAY HOME AND HOSPICE INC	13255 W Bluemound Rd Ste 100 ,Brookfield
24062	ALLAY HOME CARE, LLC	3253 Robert C. Byrd Drive ,Beckley
24063	ALLAY MEDICAL CARE, P.C.	7 Lexington Ave., Suite 1A ,New York
24066	ALLBERY CROSS FOGARTY ATTORNEY	At Law ,Dayton
24067	ALLBRIGHT ASSET MANAGEMENT, INC.	640 State Route 48 ,Fulton
24068	ALL-BRIGHT ELECTRIC COMPANY IN	9727 Kent Street Ste 100 ,Elk Grove
24069	ALLBRIGHT ELECTRIC, INC.	212 Avenue S ,Brooklyn
24073	ALL-BRITE ELECTRIC, INC.	Po Box 26004 ,West Haven
24077	ALL-BUSINESS SYSTEMS & DESIGN	14221 A. Willard Rd., Ste. 1100 ,Chantilly
24079	ALLCABLE	665 E. 56th Ave. ,Denver
24080	ALL-CAL EQUIPMENT SERVICE, INC.	P.O. Box 30035 ,Stockton
24081	ALLCALL MESSAGING CENTER, INC.	3810 Superior Ridge Drive ,Fort Wayne
24083	ALLCANES CORP.	14596 Caminito Lazanja ,San Diego
24084	ALLCARE CLINICAL ASSOCIATES PA	76 Peachtree Road, Suite 300 ,Asheville
24087	ALLCARE HOME HEALTH, INC.	10170 E. Mississippi Ave. ,Denver
24088	ALLCARE MEDICAL	P.O. Box 697 ,Old Bridge
24089	ALLCARE MEDICAL MANAGEMENT, INC.	164 W. Hospitality Lane No.14 ,San Bernardino
24090	ALLCARE MEDICAL SUPPLY CORPORA	30 Grafton St ,Millbury
24092	ALL-CARE PHYSICAL THERAPY CENTER, L	67 Lacey Road ,Whiting
24093	ALLCARE PROVIDER SERVICES, INC	3040 East Tremont Ave. ,Bronx
24094	ALLCAST, INC.	C/O 555 Main Street, Suite 300 ,Racine
24095	ALLCAST, LLC	C/O 555 Main Street, Suite 300 ,Racine
24096	ALLCAT CLAIMS SERVICE, L.P.	113 Falls Court, Ste 800 ,Boerne
24097	ALLCAT CLAIMS SERVICES, L.P.	109 Enterprise Parkway Suite 10 ,Boerne
24098	ALLCELLS LLC	1301 Harbor Bay Pkwy Ste 200 ,Alameda
24100	ALLCHEM INDUSTRIES HOLDING CORPO	6010 Northwest First Place ,Gainesville
24101	ALL-CIRCO, INC.	670 North Clark St ,Chicago
24103	ALL-CLAD METALCRAFTERS, INC.	424 Morganza Rd ,Canonsburg
24104	ALLCLEAR ID, INC.	823 Congress Avenue, Suite 300 ,Austin
24108	ALLCOM CREDIT UNION	36 Park Avenue ,Worcester
24109	ALLCOM ELECTRIC, INC.	80 Whitney Place ,Fremont
24113	ALLCOMP INC	209 Puente Ave ,City Of Industry
24114	ALLCON CONTRACTING CORP.	121-13 14th Road ,College Point
24115	ALLCON, LLC	421 W National Ave ,Milwaukee
24119	ALL-COUNTY DERMATOLOGY, LLC	26 Green Ridge Drive ,Manalapan
24120	ALLCOUNTY PLUMBING AND HEATING CORP .	799 Coney Island Ave ,Brooklyn
24121	ALLCRAFT PRINTING, INC.	7600 Carpenter Fwy #15 ,Dallas
24122	ALLCRIPTS HEALTHCARE LLC	8529 Six Forks Rd ,Raleigh
24124	ALLDIGITAL, INC.	220 Technology Drive ,Irvine
24125	ALLDREDGE GARDENS	3300 N Fairgrounds Rd ,Midland
24128	ALLE KISKI INDUSTRIES, INC	531 Hyde Park Rd. ,Leechburg
24129	ALLE MANAGEMENT COMPANY, INC.	505 South Windsor Blvd. ,Los Angeles
24130	ALLEARTH RENEWABLES, INC.	94 Harvest Lane ,Williston
24133	ALLEE WILLIS	9255 Sunset Blvd., Ste. 1040 ,West Hollywood
24134	ALLEGACY FEDERAL CREDIT UNION	Po Box 26043 ,Winston-Salem
24136	ALLEGAN GENERAL HOSPITAL	555 Linn Street ,Allegan
24139	ALLEGAN METAL FABRICATORS, INC.	3280 M40 ,Hamilton
24140	ALLEGAN ORTHOPEDICS, P.C.	551 Linn Street, Suite 220 ,Allegan
24143	ALLEGANY AGGREGATES, INC.	14504 Greenview Drive Suite 210 ,Laurel
24144	ALLEGANY CHIROPRACTIC CENTER	203 Greene Street ,Cumberland
24145	ALLEGANY CO-OP INSURANCE COMPANY	9 North Branch Rd ,Cuba
24146	ALLEGANY COUNTY CHAPTER NYSARC, INC.	240 OConnor Street ,Wellsville
24147	ALLEGANY COUNTY HRDC, INC.	125 Virginia Avenue ,Cumberland
24148	ALLEGANY COUNTY SCHOOLS FCU	27 W Main St ,Fillmore
24149	ALLEGANY COUNTY TEACHERS FEDERAL CREDIT UNION	14316 National Hwy Sw ,Lavale
24150	ALLEGANY DENTAL CARE, P.A.	19418 Leitersburg Pike ,Hagerstown
24152	ALLEGANY HEARING & BALANCE, LLC	938 National Highway ,Lavale
24153	ALLEGANY IMAGING, P.C.	P.O. Box 3206 ,Lavale
24155	ALLEGANY LAW FOUNDATION, INC.	110 Greene St ,Cumberland
24156	ALLEGANY MEDICAL	324 E. Antietam St. ,Hagerstown
24157	ALLEGANY ORTHODONTICS, PC	428 National Hwy ,Lavale
24158	ALLEGANY REHABILITATION ASSC INC	4222 Bolivar Road ,Wellsville
24161	ALLEGENT COMMUNITY FCU	2000 Corporate Drive, Suite 210 ,Wexford
24164	ALLEGHANY CORPORATION	7 Times Square Tower, 17th Floor ,New York
24167	ALLEGHANY MEMORIAL HOSPITAL, INC.	233 Doctors Street ,Sparta
24168	ALLEGHANY MOTORS LLC	820 S. Lexington Avenue ,Covington
24169	ALLEGHANY PARTNERSHIP FOR CHILDREN	994 North Main Street ,Sparta
24170	ALLEGHANY PROPERTIES, LLC	2150 River Plaza Drive, Suite 155 ,Sacramento
24171	ALLEGHANY WAREHOUSE CO., INC.	3021 Commerce Road ,Richmond
24172	ALLEGHENIES INDEPENDENT PHYSICIANS	321 Main Street, Suite 3C ,Johnstown
24173	ALLEGHENY & CHESAPEAKE PHYSICAL THERAPY, P.C.	3053 New Germany Road ,Ebensburg
24176	ALLEGHENY BATH, LLC	542 Industrial Drive ,Lewisberry
24179	ALLEGHENY BRADFORD CORPORATION	P.O. Box 200 ,Bradford
24181	ALLEGHENY CEMETERY	4734 Butler St ,Pittsburgh
24182	ALLEGHENY CHRISTIAN MINISTRIES	200 Cambridge Drive ,Davidsville
24183	ALLEGHENY CITY ELECTRIC, INC.	3080 Babcock Blvd ,Pittsburgh
24184	ALLEGHENY COLLEGE	520 N. Main Street ,Meadville
24185	ALLEGHENY CONFERENCE ON COMMUNITY DEVELOPMENT	11 Stanwix Street ,Pittsburgh
24186	ALLEGHENY CONSTRUCTION COMPANY, INC.	2830 Nicholas Avenue ,Roanoke
24187	ALLEGHENY CONSTRUCTION GROUP, INC.	100 Commercial Street ,Bridgeville
24189	ALLEGHENY CONTRACT FLOORING INC.	36 Holton Street ,Winchester
24190	ALLEGHENY CONTRACT FLOORING, INC	36 Holton Street ,Winchester
24192	ALLEGHENY COUNTRY CLUB	250 Country Club Road ,Sewickley
24193	ALLEGHENY COUNTY LIBRARY ASSOCIATION	22 Wabash St ,Pittsburgh
24194	ALLEGHENY COUNTY MEDICAL SOCIETY	713 Ridge Ave. ,Pittsburgh
24195	ALLEGHENY DESIGN SERVICES LLC	102 Leeway Street ,Morgantown
24196	ALLEGHENY DIMENSION, A WEST VIRGINIA LIMITED LIABILITY COMPANY	240 Airport Road ,Petersburg
24197	ALLEGHENY EAR, NOSE & THROAT ASSOCIATES, INC.	100 Delafield Road, Suite 207 ,Pittsburgh
24198	ALLEGHENY EDUCATIONAL SYSTEMS INC.	1425 Freeport Road ,Natrona Heights
24201	ALLEGHENY ENGINEERING CO.	P.O. Box 12567 ,Pittsburgh
24202	ALLEGHENY EQUINE ASSOCIATES, INC.	5015 Sampson Lane ,Murrysville
24203	ALLEGHENY EXCAVATING, INC.	120 Mcelroy Road ,Cranberry Township
24204	ALLEGHENY FAMILY CHIROPRACTIC CENTER, P.C.	2514 E. Allegheny Avenue ,Philadelphia
24205	ALLEGHENY FINANCIAL GROUP	Stone Quarry Crossing ,Pittsburgh
24207	ALLEGHENY FORESTRY, INC.	P.O. Box 611 ,Warren
24210	ALLEGHENY HEALTHCHOICES, INC.	444 Liberty Ave Ste 240 ,Pittsburgh
24211	ALLEGHENY HOUSING REHABILITATION CORP.	5604 Baum Boulevard ,Pittsburgh
24212	ALLEGHENY IMAGING OF MCCANDLESS	320 East North Avenue ,Pittsburgh
24213	ALLEGHENY INSTITUTE FOR PUBLIC	305 Mount Lebanon Blvd Ste 208 ,Pittsburgh
24215	ALLEGHENY INSURANCE SERVICES, INC.	Po Box 1426 ,Elkins
24216	ALLEGHENY IRON & METAL CO., INC.	2200 Adams Avenue ,Philadelphia
24217	ALLEGHENY KISKI POSTAL FCU	501 11th St Rm 206 ,New Kensington
24218	ALLEGHENY LAND TRUST	409 Broad Street Suite 206B ,Sewickley
24221	ALLEGHENY MANUFACTURING & ELECTRICA L SERVICE, INC.	107 Station St ,Johnstown
24222	ALLEGHENY MARKETING GROUP, INC.	1101 Parkway View Drive ,Pittsburgh
24223	ALLEGHENY METAL FEDERAL CREDIT UNION	260 Pershing Ave ,Leechburg
24224	ALLEGHENY MILLWORK PBT	104 Commerce Blvd. ,Lawrence
24225	ALLEGHENY MINERAL COMPANY	One Ppg Place ,Pittsburgh
24226	ALLEGHENY MORTGAGE CORP.	Oak Park Mall ,White Oak
24228	ALLEGHENY OPHTHALMIC & ORBITAL ASSOCIATES	420 E. North Avenue ,Pittsburgh
24230	ALLEGHENY ORTHODONTIC ASSOCIATES, LTD.	344 Budfield Street, Suite 1 ,Johnstown
24232	ALLEGHENY PAPER SHREDDERS CORPORATION	Old William Penn Highway East ,Delmont
24233	ALLEGHENY PETROLEUM PRODUCTS CO.	999 Airbrake Avenue ,Wilmerding
24235	ALLEGHENY PIPE & SUPPLY COMPANY	Po Box 9340 ,Pittsburgh
24236	ALLEGHENY PLASTIC SURGERY	324 East Antietam Street, Suite 303 ,Hagerstown
24237	ALLEGHENY PLASTICS, INC.	3 Avenue A, Buidling 3 ,Leetsdale
24238	ALLEGHENY PLYWOOD COMPANY INC	3433 Smallman Street ,Pittsburgh
24239	ALLEGHENY PODIATRY MANAGEMENT, LLC	495 East Waterfront Drive, Ste 230 ,Homestead
24241	ALLEGHENY RAW MATERIALS	206 Bilmar Drive ,Pittsburgh
24242	ALLEGHENY REFRIGERATION SALES, INC.	1228 Brighton Road ,Pittsburgh
24244	ALLEGHENY RESTORATION & BUILDERS, INC.	P.O. Box 18032 ,Morgantown
24245	ALLEGHENY SCIENCE & TECHNOLOGY CORPORATION	125 Professional Place ,Bridgeport
24246	ALLEGHENY STORE FIXTURES, INC	57 Holley Avenue ,Bradford
24247	ALLEGHENY SUPPLY & MAINTENANCE CO. INC.	P.O. Box 186 ,Duncansville
24248	ALLEGHENY SURETY AGENCY	4217 Steubenville Pike ,Pittsburgh
24250	ALLEGHENY SURVEYS, INC.	237 Birch River Road ,Birch River
24251	ALLEGHENY TECHNOLOGIES INCORPORATED	1000 Six Ppg Place ,Pittsburgh
24253	ALLEGHENY TOOL & MFG. CO., INC.	P.O. Box 422 ,Meadville
24254	ALLEGHENY TOOL MOLD & MANUFACTURING	15300 Route 6 ,Clarendon
24255	ALLEGHENY TRUCKS, INC.	49-A Greenwood Rd ,Altoona
24256	ALLEGHENY VALLEY BANK OF PITTSBURGH	5137 Butler Street ,Pittsburgh
24257	ALLEGHENY VALLEY SCHOOL	620 Germantown Pike ,Lafayette Hill
24258	ALLEGHENY VALLEY TRANSFER CO., INC.	1512 Lebanon Church Road ,Pittsburgh
24261	ALLEGHENY VENEER COMPANY, INC.	Po Box 33 ,Corry
24262	ALLEGHENY WOOD PRODUCTS, INC.	240 Airport Road ,Petersburg
24263	ALLEGHENY WOOD WORKS, INC.	10003 Railroad Street ,Lake City
24264	ALLEGHENY WOODWORKS LLC	6714 Allegheny Ave ,Takoma Park
24265	ALLEGHENY YORK CO	3995 N George Street Ext ,Manchester
24266	ALLEGHENY, INC.	722 Allegheny Blvd ,Franklin
24267	ALLEGHENY-LUDLUM BRACKENRIDGE FCU	1131 Brackenridge Ave ,Brackenridge
24268	ALLEGIANCE ABSTRACT SERVICES, INC.	111 Conklin St. ,Farmingdale
24269	ALLEGIANCE BANK TEXAS	8727 W Sam Houston Parkway N Suite ,Houston
24270	ALLEGIANCE BENEFIT PLAN MANAGEMENT, INC.	2806 S. Garfield Street ,Missoula
24271	ALLEGIANCE BILLING & CONSULTING LLC	333 Jericho Turnpike Ste 102 ,Jericho
24273	ALLEGIANCE COMMUNICATIONS, LLC	707 Saratoga St ,Shawnee
24275	ALLEGIANCE CRANE & EQUIPMENT, LLC	777 SW 12Th Avenue ,Pompano Beach
24276	ALLEGIANCE CREDIT UNION	4235 N Meridian Ave ,Oklahoma City
24277	ALLEGIANCE FINANCIAL ADVISORS INC.	12108 East Paradise Drive ,Scottsdale
24278	ALLEGIANCE FINANCIAL GROUP, INC.	2935 Country Drive, Suite 102 ,Little Canada
24280	ALLEGIANCE GROUP, INC.	P.O. Box 30440 ,Santa Barbara
24284	ALLEGIANCE HOME LOANS, LLC	350 West Center Street ,Orem
24286	ALLEGIANCE HOSPITALITY	Po Box 6165 ,Hilton Head Island
24287	ALLEGIANCE HR SOLUTIONS GROUP	3800 E 42nd St Ste 306 ,Odessa
24288	ALLEGIANCE INSURANCE SERVICES	100 Tower Dr Ste 120 ,Burr Ridge
24290	ALLEGIANCE MANAGEMENT, LLC	2609 Morse Lane ,Woodbridge
24295	ALLEGIANCE PROTECTION GROUP INC.	42 West 38th Street, Ste 1101 ,New York
24296	ALLEGIANCE REALTY PARTNERS LLC	5100 Leesburg Pike Ste 302 ,Alexandria
24298	ALLEGIANCE RETIREMENT SOLUTIONS INC	1790 Atkinson Road ,Lawrenceville
24299	ALLEGIANCE SOFTWARE, INC.	10235 South Jordan Gateway ,South Jordan
24301	ALLEGIANCE SURETY ASSOCIATES, INC.	7901 Sandy Spring Road, Suite 515 ,Laurel
24303	ALLEGIANCE TITLE COMPANY	8111 Preston Road, Suite 300 ,Dallas
24304	ALLEGIANCE, L.L.C.	P.O. Box 37952 ,Shreveport
24305	ALLEGIANCE, LLC	276 Commerce Park Dr. ,Ridgeland
24306	ALLEGIANT ENGINEERING GROUP, LLC	1205 S. Bennett ,Tyler
24307	ALLEGIANT INTERNATIONAL, LLC	1710 N. Main St. ,Auburn
24308	ALLEGIANT MANAGEMENT CORPORATION	300 Lafayette Rd ,Rye
24309	ALLEGIANT MANAGEMENT LLC	78884 U.S. Highway 40 ,Winter Park
24310	ALLEGIANT NETWORKS LLC	12721 Metcalf Avenue, Suite 104 ,Overland Park
24311	ALLEGIANT PARTNERS, INC.	900 Fourth Street, Suite 200 ,San Rafael
24313	ALLEGIANT TRAVEL COMPANY	8360 S Durango Dr ,Las Vegas
24314	ALLEGIANTMD, INC.	100 South Ashley Drive, Suite 1500 ,Tampa
24316	ALLEGIENT, LLC	201 West 103rd Street ,Indianapolis
24318	ALLEGIS COMMUNICATIONS, INC.	660 SW 39th Street ,Renton
24320	ALLEGIS DEVELOPMENT SERVICES, INC.	427 C Street, Suite 316 ,San Diego
24321	ALLEGIS GROUP	7301 Parkway Drive ,Hanover
24322	ALLEGIS PHARMACEUTICALS	Po Box 189 ,Madison
24323	ALLEGIS RESIDENTIAL SERVICES	7857 Convoy Ct Ste 211 ,San Diego
24325	ALLEGIUS FEDERAL CREDIT UNION	244 Allegius Dr ,Burns Harbor
24326	ALLEGORY, INC.	4 Embarcadero Center ,San Francisco
24328	ALLEGRA DIRECT COMMUNICATIONS	47792 Van Dyke Ave ,Shelby Township
24329	ALLEGRA NETWORK LLC	47585 Galleon Drive ,Plymouth
24330	ALLEGRA PRINT & IMAGING	301 N Park Ave 1E ,Helena
24335	ALLEGRA, LTD	88 Lenora Street ,Seattle
24339	ALLEGRETTO FUNDING GROUP, INC. DBA INFINIT TECHNOLOGY SOLUTIONS	6477 Ridings Road ,Syracuse
24344	ALLEGRO CONSULTANTS, INC.	4675 Stevens Creek Blvd Ste 121 ,Santa Clara
24345	ALLEGRO CONSULTANTS, LTD	9800 Jeb Stuart Parkway, Suite 106 ,Glen Allen
24346	ALLEGRO CORPORATION	20048 NE San Rafael Street ,Portland
24347	ALLEGRO DEVELOPMENT	1445 Ross Avenue ,Dallas
24352	ALLEGRO MFG. INC.	150 Milford Road ,East Windsor
24353	ALLEGRO MICROSYSTEMS, LLC	955 Perimeter Road ,Manchester
24355	ALLEGRO ORTHODONTICS, INC	10450 S. Progress Way, #100 ,Parker
24356	ALLEGRO POOL SERVICE, INC.	3204 Ginger Bread Court ,Ellicott City
24358	ALLEGRO SANITATION CORP	Po Box 2615 ,Secaucus
24360	ALLEGRO, INC.	1410 Colonial Life Blvd. W. Ste 230 ,Columbia
24361	ALLEGUEZ & NEWMAN, LLP	21860 Burbank Boulevard, Suite 360 ,Woodland Hills
24362	ALLE-KISKI AREA HOPE CENTER, INC.	Po Box 67 ,Tarentum
24363	ALLEMAN, HALL, MCCOY, RUSSELL & TUTTLE, LLP	806 SW Broadway, Ste 600 ,Portland
24364	ALLEMANN, ALMQUIST & JONES, LTD	124 North Third Street, 2nd Floor ,Philadelphia
24366	ALLEN & ASSOCIATES, INC	Po Box 644 ,Chanute
24367	ALLEN & CARON, INC.	18200 Von Karman Avenue, #780 ,Irvine
24368	ALLEN & CARWILE, P.C.	109 S. Wayne Avenue, Suite 200 ,Waynesboro
24369	ALLEN & COMPANY	711 Fifth Avenue, 9th Floor ,New York
24370	ALLEN & COMPANY FINANCIAL CORPORATION	1401 South Florida Avenue ,Lakeland
24371	ALLEN & COMPANY OF FLORIDA, INC.	1401 South Florida Avenue ,Lakeland
24372	ALLEN & COOK, INC. CERTIFIED PUBLIC	1530 The Alameda Ste 200 ,San Jose
24373	ALLEN & DUDNEY, DMD, PC	122 Seventh Avenue ,Alabaster
24375	ALLEN & GERRITSEN, INC.	2 Seaport Lane ,Boston
24378	ALLEN & GRAHAM INC.	106 Allen-Graham Blvd ,Brunswick
24379	ALLEN & HARTZELL, INC.	148 Main Street ,Wadsworth
24382	ALLEN & HOSHALL, INC.	1661 International Drive, Suite 100 ,Memphis
24383	ALLEN & KILLCOYNE ARCHITECTS, LLP	12 West 27th St ,New York
24384	ALLEN & KIMBELL, LLP	317 East Carrillo Street ,Santa Barbara
24385	ALLEN & KORKOWSKI & ASSOC	123 N Garrard St ,Rantoul
24386	ALLEN & LAPORTE GENERAL CONTRACTING, INC.	Po Box 808 ,Albany
24389	ALLEN & O HARA, INC	999 South Shady Grove Road ,Memphis
24390	ALLEN & OVERY LLP	1221 Avenue Of The Americas ,New York
24392	ALLEN & PETERSEN COMPANY	3002 Seward Highway ,Anchorage
24393	ALLEN & PINCKARD INDUSTRIAL CONTRACTORS, INC.	3269 West Edge Street ,Apache Junction
24396	ALLEN & TATEM DDS PC	10705 Spotsylvania Avenue ,Fredericksburg
24398	ALLEN & WEBB INDUSTRIAL SUPPLY CO.	P. O. Box 71227 ,Charleston
24400	ALLEN A LEFKOVITZ & ASSOCIATES, P.C.	120 North Lasalle Street ,Chicago
24405	ALLEN AIRCRAFT PRODUCTS, INC.	6168 Woodbine Street ,Ravenna
24406	ALLEN AND ALLEN, LTD.	P.O. Box 5140 ,San Antonio
24409	ALLEN ANIMAL HOSPITAL	19066 Farmington Road ,Livonia
24410	ALLEN ASSOCIATES PROPERTIES, INC.	1320 Centre Street, Suite 403 ,Newton Centre
24411	ALLEN ASSOCIATES, INC.	60 Saginaw Drive ,Rochester
24413	ALLEN AUDIOLOGY & WESTGATE HEARING INC.	401 N 17th Street ,Allentown
24414	ALLEN AUTOMOTIVE	386 E. Virginia Ave. ,Phoenix
24415	ALLEN AVIONICS INC	255 East 2nd Street ,Mineola
24416	ALLEN B. BERMAN, D.D.S.	9430 S Main St ,Plymouth
24417	ALLEN BAILEY & ASSOCIATES, INC.	8310 Capital Of Texas Highway North ,Austin
24418	ALLEN BATES TECHNOLOGIES, INC.	600 Mcknight Park Drive Ste. 606 ,Pittsburgh
24419	ALLEN BEVERAGES, INC.	13300 Dedeaux Rd ,Gulfport
24420	ALLEN BINKLEY CONSTRUCTION, INC.	Po Box 19546 ,Birmingham
24424	ALLEN BOONE HUMPHRIES ROBINSON LLP	3200 Southwest Freeway, Suite 2600 ,Houston
24426	ALLEN BROS. WHOLESALE DISTRIBUTORS, INC.	120 West Erie Avenue ,Philadelphia
24427	ALLEN BROTHERS ATTORNEY & COUN	400 Monroe St Ste 220 ,Detroit
24428	ALLEN BROTHERS MILLING COMPANY, INC.	804 1/2 Gervais Street ,Columbia
24429	ALLEN BROTHERS MORTUARY INC.	2475 El Sereno Way ,Vista
24430	ALLEN BROTHERS, INC.	3737 South Halsted Street ,Chicago
24434	ALLEN C. BENTSON AGENCY, INC.	653 Forest Ave. ,Staten Island
24435	ALLEN C. CHOU, M.D.	2621 S. Bristol St., 203 ,Santa Ana
24438	ALLEN C. RICHMOND, MD, PC	3998 Red Lion Road ,Philadelphia
24440	ALLEN CHASE FOUNDATION EAGLEBROOK SCHOOL	271 Pine Nook Rd ,Deerfield
24441	ALLEN COMMUNICATION LEARNING SERVICES, INC.	55 West 900 South ,Salt Lake City
24443	ALLEN CONSTRUCTION SERVICES, INC.	310 South Industrial Park ,Deerfield
24446	ALLEN CONSULTING GROUP, INC.	2641 Terrace Hill ,Muscatine
24447	ALLEN CONSULTING GROUP, LLC	25 East Main Street, Suite 201 ,Richmond
24448	ALLEN CONSULTING, INC.	115 W Main St ,Norman
24449	ALLEN CONTRACTING, INC.	P.O. Box 1178 ,Oklahoma City
24450	ALLEN CORPORATION OF AMERICA, INC.	10400 Eaton Place, Suite 450 ,Fairfax
24451	ALLEN COUNTY CARDIOLOGY, LLC	604 W. Berry Street ,Fort Wayne
24454	ALLEN COUNTY INDIANA BAR ASSOC.	924 S Calhoun Street ,Fort Wayne
24456	ALLEN CREEK DENTAL	1630 Williams Hwy Pmb 179 ,Grants Pass
24458	ALLEN D DUMONT, MD, PC	911 Brown Street ,Ann Arbor
24459	ALLEN D SCHULTZ DDS LTD	P.O. Box 130 ,Quinton
24464	ALLEN D. MCCORKLE, D.D.S., P.C.	25 South Kent Street ,Winchester
24468	ALLEN DAHLE & CO INC	427 Bedford Rd Suite 350 ,Pleasantville
24469	ALLEN DATAGRAPH SYSTEMS, INC.	56 Kendall Pond Road ,Derry
24472	ALLEN DENTAL	860 Mill St N Ste 1 ,West Salem
24473	ALLEN DENTAL ASSOCIATES P.C.	382 Grove Street ,Braintree
24474	ALLEN DERMATOLOGY	520 Charter Blvd Suite 100 ,Macon
24476	ALLEN DISTRIBUTION	P.O. Box 62 ,Plainfield
24477	ALLEN DRILLING & EXCAVATING CO., INC.	P.O. Box 398 ,Fairplay
24478	ALLEN DRYWALL & ASSOCIATES	380 Lang Road ,Burlingame
24479	ALLEN E CHANTRY DDS INC	3300 Cameron Park Dr Ste 3000 ,Cameron Park
24487	ALLEN EAR, NOSE & THROAT ASSOC.	1575 Pond Road Suite 203 ,Allentown
24489	ALLEN ECONOMIC DEVELOPMENT GROUP	144 S. Main Street Suite 200 ,Lima
24490	ALLEN EDUCATION CENTER, LLC	872 Route 376 ,Wappingers Falls
24491	ALLEN EDWIN COMPANY	2186 E Centre Ave ,Portage
24492	ALLEN ELECTRIC CO	12545 Perrywood Ln ,Dunkirk
24494	ALLEN ENDODONTIC GROUP	6520 N 7th Ave Suite 7 ,Phoenix
24497	ALLEN ENGINEERING CORPORATION	819 South 5th Street ,Paragould
24502	ALLEN EYE ASSOCIATES	1511 W Mcdermott Dr Ste 100 ,Allen
24503	ALLEN F GARBER, DDS	5420 Webb Road Suite A 1 ,Tampa
24504	ALLEN F. AVRUTIN, D.D.S., P.C. & JERRY L. STATMAN, D.M.D., P.C.	105-107 Theodore Fremd Avenue ,Rye
24509	ALLEN FAMILY FOODS, INC.	126 Shipley Street ,Seaford
24510	ALLEN FLAVORS, INC.	23 Progress Street ,Edison
24516	ALLEN G.WOODS, DMD	395 N Maple Ave ,Kingston
24518	ALLEN GRADING COMPANY, INC.	P.O. Drawer 1838 ,Goldsboro
